
/home/monalisa/Downloads/Smestre7/sistemas-tempo-real/pratica05_sem_contador/build/pratica05.elf:     file format elf32-littlearm

Sections:
Idx Name          Size      VMA       LMA       File off  Algn
  0 .text         00007ddc  10000000  10000000  00001000  2**4
                  CONTENTS, ALLOC, LOAD, READONLY, CODE
  1 .rodata       000003b8  10007ddc  10007ddc  00008ddc  2**2
                  CONTENTS, ALLOC, LOAD, READONLY, DATA
  2 .ARM.exidx    00000008  10008194  10008194  00009194  2**2
                  CONTENTS, ALLOC, LOAD, READONLY, DATA
  3 .binary_info  00000020  1000819c  1000819c  0000919c  2**2
                  CONTENTS, ALLOC, LOAD, READONLY, DATA
  4 .ram_vector_table 00000110  20000000  20000000  0000c000  2**2
                  ALLOC
  5 .uninitialized_data 00000000  20000110  20000110  0000b340  2**0
                  CONTENTS
  6 .data         00001170  20000110  100081bc  0000a110  2**3
                  CONTENTS, ALLOC, LOAD, READONLY, CODE
  7 .tdata        00000000  20001280  20001280  0000b340  2**0
                  CONTENTS, ALLOC, LOAD, DATA, THREAD_LOCAL
  8 .tbss         00000000  20001280  20001280  00000000  2**0
                  ALLOC, THREAD_LOCAL
  9 .bss          00021024  20001280  1000932c  0000c280  2**3
                  ALLOC
 10 .heap         00000800  200222a4  200222a4  0000b340  2**2
                  CONTENTS, READONLY
 11 .scratch_x    00000000  20080000  20080000  0000bb40  2**0
                  CONTENTS
 12 .scratch_y    00000000  20081000  20081000  0000bb40  2**0
                  CONTENTS
 13 .stack1_dummy 00000800  20080000  20080000  0000c000  2**2
                  ALLOC
 14 .stack_dummy  00000800  20081000  20081000  0000bb40  2**5
                  CONTENTS, READONLY
 15 .flash_end    00000014  1000932c  1000932c  0000b32c  2**2
                  CONTENTS, ALLOC, LOAD, READONLY, DATA
 16 .ARM.attributes 00000034  00000000  00000000  0000c340  2**0
                  CONTENTS, READONLY
 17 .comment      00000049  00000000  00000000  0000c374  2**0
                  CONTENTS, READONLY
 18 .debug_info   000493cf  00000000  00000000  0000c3bd  2**0
                  CONTENTS, READONLY, DEBUGGING, OCTETS
 19 .debug_abbrev 0000a572  00000000  00000000  0005578c  2**0
                  CONTENTS, READONLY, DEBUGGING, OCTETS
 20 .debug_loc    00036874  00000000  00000000  0005fcfe  2**0
                  CONTENTS, READONLY, DEBUGGING, OCTETS
 21 .debug_aranges 00001978  00000000  00000000  00096578  2**3
                  CONTENTS, READONLY, DEBUGGING, OCTETS
 22 .debug_ranges 00013690  00000000  00000000  00097ef0  2**3
                  CONTENTS, READONLY, DEBUGGING, OCTETS
 23 .debug_line   00034833  00000000  00000000  000ab580  2**0
                  CONTENTS, READONLY, DEBUGGING, OCTETS
 24 .debug_str    0000ce60  00000000  00000000  000dfdb3  2**0
                  CONTENTS, READONLY, DEBUGGING, OCTETS
 25 .debug_frame  00004cf4  00000000  00000000  000ecc14  2**2
                  CONTENTS, READONLY, DEBUGGING, OCTETS

/home/monalisa/Downloads/Smestre7/sistemas-tempo-real/pratica05_sem_contador/build/pratica05.elf:     file format elf32-littlearm


Disassembly of section .text:

10000000 <__VECTOR_TABLE>:
10000000:	20082000 	.word	0x20082000
10000004:	1000015d 	.word	0x1000015d
10000008:	10000113 	.word	0x10000113
1000000c:	10000115 	.word	0x10000115
10000010:	10000111 	.word	0x10000111
10000014:	10000111 	.word	0x10000111
10000018:	10000111 	.word	0x10000111
1000001c:	10000111 	.word	0x10000111
10000020:	10000111 	.word	0x10000111
10000024:	10000111 	.word	0x10000111
10000028:	10000111 	.word	0x10000111
1000002c:	10000117 	.word	0x10000117
10000030:	10000111 	.word	0x10000111
10000034:	10000111 	.word	0x10000111
10000038:	10000119 	.word	0x10000119
1000003c:	1000011b 	.word	0x1000011b
10000040:	1000011d 	.word	0x1000011d
10000044:	1000011d 	.word	0x1000011d
10000048:	1000011d 	.word	0x1000011d
1000004c:	1000011d 	.word	0x1000011d
10000050:	1000011d 	.word	0x1000011d
10000054:	1000011d 	.word	0x1000011d
10000058:	1000011d 	.word	0x1000011d
1000005c:	1000011d 	.word	0x1000011d
10000060:	1000011d 	.word	0x1000011d
10000064:	1000011d 	.word	0x1000011d
10000068:	1000011d 	.word	0x1000011d
1000006c:	1000011d 	.word	0x1000011d
10000070:	1000011d 	.word	0x1000011d
10000074:	1000011d 	.word	0x1000011d
10000078:	1000011d 	.word	0x1000011d
1000007c:	1000011d 	.word	0x1000011d
10000080:	1000011d 	.word	0x1000011d
10000084:	1000011d 	.word	0x1000011d
10000088:	1000011d 	.word	0x1000011d
1000008c:	1000011d 	.word	0x1000011d
10000090:	1000011d 	.word	0x1000011d
10000094:	1000011d 	.word	0x1000011d
10000098:	1000011d 	.word	0x1000011d
1000009c:	1000011d 	.word	0x1000011d
100000a0:	1000011d 	.word	0x1000011d
100000a4:	1000011d 	.word	0x1000011d
100000a8:	1000011d 	.word	0x1000011d
100000ac:	1000011d 	.word	0x1000011d
100000b0:	1000011d 	.word	0x1000011d
100000b4:	1000011d 	.word	0x1000011d
100000b8:	1000011d 	.word	0x1000011d
100000bc:	1000011d 	.word	0x1000011d
100000c0:	1000011d 	.word	0x1000011d
100000c4:	1000011d 	.word	0x1000011d
100000c8:	1000011d 	.word	0x1000011d
100000cc:	1000011d 	.word	0x1000011d
100000d0:	1000011d 	.word	0x1000011d
100000d4:	1000011d 	.word	0x1000011d
100000d8:	1000011d 	.word	0x1000011d
100000dc:	1000011d 	.word	0x1000011d
100000e0:	1000011d 	.word	0x1000011d
100000e4:	1000011d 	.word	0x1000011d
100000e8:	1000011d 	.word	0x1000011d
100000ec:	1000011d 	.word	0x1000011d
100000f0:	1000011d 	.word	0x1000011d
100000f4:	1000011d 	.word	0x1000011d
100000f8:	1000011d 	.word	0x1000011d
100000fc:	1000011d 	.word	0x1000011d
10000100:	1000011d 	.word	0x1000011d
10000104:	1000011d 	.word	0x1000011d
10000108:	1000011d 	.word	0x1000011d
1000010c:	1000011d 	.word	0x1000011d

10000110 <isr_invalid>:
10000110:	be00      	bkpt	0x0000

10000112 <isr_nmi>:
10000112:	be00      	bkpt	0x0000

10000114 <isr_hardfault>:
10000114:	be00      	bkpt	0x0000

10000116 <isr_svcall>:
10000116:	be00      	bkpt	0x0000

10000118 <isr_pendsv>:
10000118:	be00      	bkpt	0x0000

1000011a <isr_systick>:
1000011a:	be00      	bkpt	0x0000

1000011c <__unhandled_user_irq>:
1000011c:	f3ef 8005 	mrs	r0, IPSR
10000120:	3810      	subs	r0, #16

10000122 <unhandled_user_irq_num_in_r0>:
10000122:	be00      	bkpt	0x0000

10000124 <binary_info_header>:
10000124:	7188ebf2 	.word	0x7188ebf2
10000128:	1000819c 	.word	0x1000819c
1000012c:	100081bc 	.word	0x100081bc
10000130:	100001a8 	.word	0x100001a8
10000134:	e71aa390 	.word	0xe71aa390

10000138 <__binary_info_header_end>:
10000138:	ffffded3 	.word	0xffffded3
1000013c:	10210142 	.word	0x10210142
10000140:	000001ff 	.word	0x000001ff
10000144:	000091f4 	.word	0x000091f4
10000148:	ab123579 	.word	0xab123579

1000014c <_entry_point>:
1000014c:	f04f 0000 	mov.w	r0, #0

10000150 <_enter_vtable_in_r0>:
10000150:	4920      	ldr	r1, [pc, #128]	; (100001d4 <data_cpy_table+0x2c>)
10000152:	6008      	str	r0, [r1, #0]
10000154:	c806      	ldmia	r0!, {r1, r2}
10000156:	f381 8808 	msr	MSP, r1
1000015a:	4710      	bx	r2

1000015c <_reset_handler>:
1000015c:	f04f 4050 	mov.w	r0, #3489660928	; 0xd0000000
10000160:	6800      	ldr	r0, [r0, #0]
10000162:	b110      	cbz	r0, 1000016a <hold_non_core0_in_bootrom+0x6>

10000164 <hold_non_core0_in_bootrom>:
10000164:	f04f 0000 	mov.w	r0, #0
10000168:	e7f2      	b.n	10000150 <_enter_vtable_in_r0>
1000016a:	a40f      	add	r4, pc, #60	; (adr r4, 100001a8 <data_cpy_table>)
1000016c:	cc0e      	ldmia	r4!, {r1, r2, r3}
1000016e:	2900      	cmp	r1, #0
10000170:	d002      	beq.n	10000178 <hold_non_core0_in_bootrom+0x14>
10000172:	f000 f815 	bl	100001a0 <data_cpy>
10000176:	e7f9      	b.n	1000016c <hold_non_core0_in_bootrom+0x8>
10000178:	4917      	ldr	r1, [pc, #92]	; (100001d8 <data_cpy_table+0x30>)
1000017a:	4a18      	ldr	r2, [pc, #96]	; (100001dc <data_cpy_table+0x34>)
1000017c:	2000      	movs	r0, #0
1000017e:	e000      	b.n	10000182 <bss_fill_test>

10000180 <bss_fill_loop>:
10000180:	c101      	stmia	r1!, {r0}

10000182 <bss_fill_test>:
10000182:	4291      	cmp	r1, r2
10000184:	d1fc      	bne.n	10000180 <bss_fill_loop>

10000186 <platform_entry>:
10000186:	2000      	movs	r0, #0
10000188:	f380 880a 	msr	MSPLIM, r0
1000018c:	4914      	ldr	r1, [pc, #80]	; (100001e0 <data_cpy_table+0x38>)
1000018e:	4788      	blx	r1
10000190:	4914      	ldr	r1, [pc, #80]	; (100001e4 <data_cpy_table+0x3c>)
10000192:	4788      	blx	r1
10000194:	4914      	ldr	r1, [pc, #80]	; (100001e8 <data_cpy_table+0x40>)
10000196:	4788      	blx	r1
10000198:	be00      	bkpt	0x0000
1000019a:	e7fd      	b.n	10000198 <platform_entry+0x12>

1000019c <data_cpy_loop>:
1000019c:	c901      	ldmia	r1!, {r0}
1000019e:	c201      	stmia	r2!, {r0}

100001a0 <data_cpy>:
100001a0:	429a      	cmp	r2, r3
100001a2:	d3fb      	bcc.n	1000019c <data_cpy_loop>
100001a4:	4770      	bx	lr
100001a6:	bf00      	nop

100001a8 <data_cpy_table>:
100001a8:	100081bc 	.word	0x100081bc
100001ac:	20000110 	.word	0x20000110
100001b0:	20001280 	.word	0x20001280
100001b4:	1000932c 	.word	0x1000932c
100001b8:	20080000 	.word	0x20080000
100001bc:	20080000 	.word	0x20080000
100001c0:	1000932c 	.word	0x1000932c
100001c4:	20081000 	.word	0x20081000
100001c8:	20081000 	.word	0x20081000
100001cc:	00000000 	.word	0x00000000
100001d0:	4770      	bx	lr
100001d2:	0000      	.short	0x0000
100001d4:	e000ed08 	.word	0xe000ed08
100001d8:	20001280 	.word	0x20001280
100001dc:	200222a4 	.word	0x200222a4
100001e0:	10001b75 	.word	0x10001b75
100001e4:	10000335 	.word	0x10000335
100001e8:	10001b6d 	.word	0x10001b6d

100001ec <_init>:
100001ec:	b5f8      	push	{r3, r4, r5, r6, r7, lr}
100001ee:	bf00      	nop

100001f0 <__do_global_dtors_aux>:
100001f0:	b510      	push	{r4, lr}
100001f2:	4c05      	ldr	r4, [pc, #20]	; (10000208 <__do_global_dtors_aux+0x18>)
100001f4:	7823      	ldrb	r3, [r4, #0]
100001f6:	b933      	cbnz	r3, 10000206 <__do_global_dtors_aux+0x16>
100001f8:	4b04      	ldr	r3, [pc, #16]	; (1000020c <__do_global_dtors_aux+0x1c>)
100001fa:	b113      	cbz	r3, 10000202 <__do_global_dtors_aux+0x12>
100001fc:	4804      	ldr	r0, [pc, #16]	; (10000210 <__do_global_dtors_aux+0x20>)
100001fe:	e000      	b.n	10000202 <__do_global_dtors_aux+0x12>
10000200:	bf00      	nop
10000202:	2301      	movs	r3, #1
10000204:	7023      	strb	r3, [r4, #0]
10000206:	bd10      	pop	{r4, pc}
10000208:	20001448 	.word	0x20001448
1000020c:	00000000 	.word	0x00000000
10000210:	10007ddc 	.word	0x10007ddc

10000214 <frame_dummy>:
10000214:	b508      	push	{r3, lr}
10000216:	4b03      	ldr	r3, [pc, #12]	; (10000224 <frame_dummy+0x10>)
10000218:	b11b      	cbz	r3, 10000222 <frame_dummy+0xe>
1000021a:	4903      	ldr	r1, [pc, #12]	; (10000228 <frame_dummy+0x14>)
1000021c:	4803      	ldr	r0, [pc, #12]	; (1000022c <frame_dummy+0x18>)
1000021e:	e000      	b.n	10000222 <frame_dummy+0xe>
10000220:	bf00      	nop
10000222:	bd08      	pop	{r3, pc}
10000224:	00000000 	.word	0x00000000
10000228:	2000144c 	.word	0x2000144c
1000022c:	10007ddc 	.word	0x10007ddc

10000230 <button_isr>:
10000230:	2300      	movs	r3, #0
10000232:	b510      	push	{r4, lr}
10000234:	280f      	cmp	r0, #15
10000236:	b082      	sub	sp, #8
10000238:	9301      	str	r3, [sp, #4]
1000023a:	d001      	beq.n	10000240 <button_isr+0x10>
1000023c:	b002      	add	sp, #8
1000023e:	bd10      	pop	{r4, pc}
10000240:	074b      	lsls	r3, r1, #29
10000242:	d5fb      	bpl.n	1000023c <button_isr+0xc>
10000244:	f005 fd3e 	bl	10005cc4 <xTaskGetTickCountFromISR>
10000248:	4c0b      	ldr	r4, [pc, #44]	; (10000278 <button_isr+0x48>)
1000024a:	4603      	mov	r3, r0
1000024c:	6822      	ldr	r2, [r4, #0]
1000024e:	1a82      	subs	r2, r0, r2
10000250:	2ac7      	cmp	r2, #199	; 0xc7
10000252:	d80a      	bhi.n	1000026a <button_isr+0x3a>
10000254:	9b01      	ldr	r3, [sp, #4]
10000256:	2b00      	cmp	r3, #0
10000258:	d0f0      	beq.n	1000023c <button_isr+0xc>
1000025a:	f04f 23e0 	mov.w	r3, #3758153728	; 0xe000e000
1000025e:	f04f 5280 	mov.w	r2, #268435456	; 0x10000000
10000262:	f8c3 2d04 	str.w	r2, [r3, #3332]	; 0xd04
10000266:	b002      	add	sp, #8
10000268:	bd10      	pop	{r4, pc}
1000026a:	4a04      	ldr	r2, [pc, #16]	; (1000027c <button_isr+0x4c>)
1000026c:	a901      	add	r1, sp, #4
1000026e:	6810      	ldr	r0, [r2, #0]
10000270:	6023      	str	r3, [r4, #0]
10000272:	f004 ff87 	bl	10005184 <xQueueGiveFromISR>
10000276:	e7ed      	b.n	10000254 <button_isr+0x24>
10000278:	20022220 	.word	0x20022220
1000027c:	200221e4 	.word	0x200221e4

10000280 <vLedTask>:
10000280:	260e      	movs	r6, #14
10000282:	250d      	movs	r5, #13
10000284:	b508      	push	{r3, lr}
10000286:	4c0b      	ldr	r4, [pc, #44]	; (100002b4 <vLedTask+0x34>)
10000288:	f04f 31ff 	mov.w	r1, #4294967295	; 0xffffffff
1000028c:	6820      	ldr	r0, [r4, #0]
1000028e:	f005 f83d 	bl	1000530c <xQueueSemaphoreTake>
10000292:	2801      	cmp	r0, #1
10000294:	d1f8      	bne.n	10000288 <vLedTask+0x8>
10000296:	ec40 6040 	gpioc_bit_out_put r6, r0
1000029a:	ec40 5040 	gpioc_bit_out_put r5, r0
1000029e:	f44f 707a 	mov.w	r0, #1000	; 0x3e8
100002a2:	f006 fe5b 	bl	10006f5c <vTaskDelay>
100002a6:	2300      	movs	r3, #0
100002a8:	ec43 6040 	gpioc_bit_out_put r6, r3
100002ac:	ec43 5040 	gpioc_bit_out_put r5, r3
100002b0:	e7ea      	b.n	10000288 <vLedTask+0x8>
100002b2:	bf00      	nop
100002b4:	200221e4 	.word	0x200221e4

100002b8 <app_main>:
100002b8:	b580      	push	{r7, lr}
100002ba:	b082      	sub	sp, #8
100002bc:	f001 fd4e 	bl	10001d5c <stdio_init_all>
100002c0:	200e      	movs	r0, #14
100002c2:	f000 f98f 	bl	100005e4 <gpio_init>
100002c6:	200d      	movs	r0, #13
100002c8:	f000 f98c 	bl	100005e4 <gpio_init>
100002cc:	2401      	movs	r4, #1
100002ce:	230e      	movs	r3, #14
100002d0:	ec44 3044 	gpioc_bit_oe_put r3, r4
100002d4:	230d      	movs	r3, #13
100002d6:	ec44 3044 	gpioc_bit_oe_put r3, r4
100002da:	200f      	movs	r0, #15
100002dc:	f000 f982 	bl	100005e4 <gpio_init>
100002e0:	2500      	movs	r5, #0
100002e2:	200f      	movs	r0, #15
100002e4:	ec45 0044 	gpioc_bit_oe_put r0, r5
100002e8:	462a      	mov	r2, r5
100002ea:	4621      	mov	r1, r4
100002ec:	f000 f90c 	bl	10000508 <gpio_set_pulls>
100002f0:	4622      	mov	r2, r4
100002f2:	4b0c      	ldr	r3, [pc, #48]	; (10000324 <app_main+0x6c>)
100002f4:	200f      	movs	r0, #15
100002f6:	2104      	movs	r1, #4
100002f8:	f000 f920 	bl	1000053c <gpio_set_irq_enabled_with_callback>
100002fc:	4629      	mov	r1, r5
100002fe:	200a      	movs	r0, #10
10000300:	f004 feb4 	bl	1000506c <xQueueCreateCountingSemaphore>
10000304:	4606      	mov	r6, r0
10000306:	4f08      	ldr	r7, [pc, #32]	; (10000328 <app_main+0x70>)
10000308:	462b      	mov	r3, r5
1000030a:	f44f 7280 	mov.w	r2, #256	; 0x100
1000030e:	4907      	ldr	r1, [pc, #28]	; (1000032c <app_main+0x74>)
10000310:	e9cd 4500 	strd	r4, r5, [sp]
10000314:	4806      	ldr	r0, [pc, #24]	; (10000330 <app_main+0x78>)
10000316:	603e      	str	r6, [r7, #0]
10000318:	f006 fb3c 	bl	10006994 <xTaskCreate>
1000031c:	f006 fcb8 	bl	10006c90 <vTaskStartScheduler>
10000320:	e7fe      	b.n	10000320 <app_main+0x68>
10000322:	bf00      	nop
10000324:	10000231 	.word	0x10000231
10000328:	200221e4 	.word	0x200221e4
1000032c:	10007ddc 	.word	0x10007ddc
10000330:	10000281 	.word	0x10000281

10000334 <main>:
10000334:	b508      	push	{r3, lr}
10000336:	f7ff ffbf 	bl	100002b8 <app_main>
1000033a:	bf00      	nop

1000033c <gpio_default_irq_handler>:
1000033c:	f04f 4050 	mov.w	r0, #3489660928	; 0xd0000000
10000340:	e92d 4ff8 	stmdb	sp!, {r3, r4, r5, r6, r7, r8, r9, sl, fp, lr}
10000344:	496b      	ldr	r1, [pc, #428]	; (100004f4 <gpio_default_irq_handler+0x1b8>)
10000346:	6807      	ldr	r7, [r0, #0]
10000348:	4a6b      	ldr	r2, [pc, #428]	; (100004f8 <gpio_default_irq_handler+0x1bc>)
1000034a:	2608      	movs	r6, #8
1000034c:	2f00      	cmp	r7, #0
1000034e:	bf14      	ite	ne
10000350:	4688      	movne	r8, r1
10000352:	4690      	moveq	r8, r2
10000354:	4b69      	ldr	r3, [pc, #420]	; (100004fc <gpio_default_irq_handler+0x1c0>)
10000356:	f8df a1a8 	ldr.w	sl, [pc, #424]	; 10000500 <gpio_default_irq_handler+0x1c4>
1000035a:	f8df 91a8 	ldr.w	r9, [pc, #424]	; 10000504 <gpio_default_irq_handler+0x1c8>
1000035e:	f853 b027 	ldr.w	fp, [r3, r7, lsl #2]
10000362:	f1a6 0508 	sub.w	r5, r6, #8
10000366:	08ea      	lsrs	r2, r5, #3
10000368:	f102 030c 	add.w	r3, r2, #12
1000036c:	f858 4023 	ldr.w	r4, [r8, r3, lsl #2]
10000370:	b1e4      	cbz	r4, 100003ac <gpio_default_irq_handler+0x70>
10000372:	f1bb 0f00 	cmp.w	fp, #0
10000376:	d01e      	beq.n	100003b6 <gpio_default_irq_handler+0x7a>
10000378:	f014 010f 	ands.w	r1, r4, #15
1000037c:	d010      	beq.n	100003a0 <gpio_default_irq_handler+0x64>
1000037e:	f85a 3027 	ldr.w	r3, [sl, r7, lsl #2]
10000382:	f005 0207 	and.w	r2, r5, #7
10000386:	40eb      	lsrs	r3, r5
10000388:	08e8      	lsrs	r0, r5, #3
1000038a:	0092      	lsls	r2, r2, #2
1000038c:	07db      	lsls	r3, r3, #31
1000038e:	fa01 f202 	lsl.w	r2, r1, r2
10000392:	f100 0c8c 	add.w	ip, r0, #140	; 0x8c
10000396:	d403      	bmi.n	100003a0 <gpio_default_irq_handler+0x64>
10000398:	4628      	mov	r0, r5
1000039a:	f849 202c 	str.w	r2, [r9, ip, lsl #2]
1000039e:	47d8      	blx	fp
100003a0:	0924      	lsrs	r4, r4, #4
100003a2:	f105 0501 	add.w	r5, r5, #1
100003a6:	d001      	beq.n	100003ac <gpio_default_irq_handler+0x70>
100003a8:	42b5      	cmp	r5, r6
100003aa:	d3e5      	bcc.n	10000378 <gpio_default_irq_handler+0x3c>
100003ac:	3608      	adds	r6, #8
100003ae:	2e28      	cmp	r6, #40	; 0x28
100003b0:	d1d7      	bne.n	10000362 <gpio_default_irq_handler+0x26>
100003b2:	e8bd 8ff8 	ldmia.w	sp!, {r3, r4, r5, r6, r7, r8, r9, sl, fp, pc}
100003b6:	f014 010f 	ands.w	r1, r4, #15
100003ba:	d004      	beq.n	100003c6 <gpio_default_irq_handler+0x8a>
100003bc:	f85a 3027 	ldr.w	r3, [sl, r7, lsl #2]
100003c0:	40eb      	lsrs	r3, r5
100003c2:	07d8      	lsls	r0, r3, #31
100003c4:	d570      	bpl.n	100004a8 <gpio_default_irq_handler+0x16c>
100003c6:	0923      	lsrs	r3, r4, #4
100003c8:	f1a6 0107 	sub.w	r1, r6, #7
100003cc:	d0ee      	beq.n	100003ac <gpio_default_irq_handler+0x70>
100003ce:	f013 030f 	ands.w	r3, r3, #15
100003d2:	d00c      	beq.n	100003ee <gpio_default_irq_handler+0xb2>
100003d4:	f85a 2027 	ldr.w	r2, [sl, r7, lsl #2]
100003d8:	40ca      	lsrs	r2, r1
100003da:	07d2      	lsls	r2, r2, #31
100003dc:	d407      	bmi.n	100003ee <gpio_default_irq_handler+0xb2>
100003de:	f001 0007 	and.w	r0, r1, #7
100003e2:	08ca      	lsrs	r2, r1, #3
100003e4:	0081      	lsls	r1, r0, #2
100003e6:	408b      	lsls	r3, r1
100003e8:	328c      	adds	r2, #140	; 0x8c
100003ea:	f849 3022 	str.w	r3, [r9, r2, lsl #2]
100003ee:	0a23      	lsrs	r3, r4, #8
100003f0:	f1a6 0106 	sub.w	r1, r6, #6
100003f4:	d0da      	beq.n	100003ac <gpio_default_irq_handler+0x70>
100003f6:	f013 030f 	ands.w	r3, r3, #15
100003fa:	d00c      	beq.n	10000416 <gpio_default_irq_handler+0xda>
100003fc:	f85a 2027 	ldr.w	r2, [sl, r7, lsl #2]
10000400:	40ca      	lsrs	r2, r1
10000402:	07d5      	lsls	r5, r2, #31
10000404:	d407      	bmi.n	10000416 <gpio_default_irq_handler+0xda>
10000406:	f001 0007 	and.w	r0, r1, #7
1000040a:	08ca      	lsrs	r2, r1, #3
1000040c:	0081      	lsls	r1, r0, #2
1000040e:	408b      	lsls	r3, r1
10000410:	328c      	adds	r2, #140	; 0x8c
10000412:	f849 3022 	str.w	r3, [r9, r2, lsl #2]
10000416:	0b23      	lsrs	r3, r4, #12
10000418:	f1a6 0105 	sub.w	r1, r6, #5
1000041c:	d0c6      	beq.n	100003ac <gpio_default_irq_handler+0x70>
1000041e:	f013 030f 	ands.w	r3, r3, #15
10000422:	d133      	bne.n	1000048c <gpio_default_irq_handler+0x150>
10000424:	0c23      	lsrs	r3, r4, #16
10000426:	f1a6 0104 	sub.w	r1, r6, #4
1000042a:	d0bf      	beq.n	100003ac <gpio_default_irq_handler+0x70>
1000042c:	f013 030f 	ands.w	r3, r3, #15
10000430:	d143      	bne.n	100004ba <gpio_default_irq_handler+0x17e>
10000432:	0d23      	lsrs	r3, r4, #20
10000434:	f1a6 0103 	sub.w	r1, r6, #3
10000438:	d0b8      	beq.n	100003ac <gpio_default_irq_handler+0x70>
1000043a:	f013 030f 	ands.w	r3, r3, #15
1000043e:	d14a      	bne.n	100004d6 <gpio_default_irq_handler+0x19a>
10000440:	0e23      	lsrs	r3, r4, #24
10000442:	f1a6 0102 	sub.w	r1, r6, #2
10000446:	d0b1      	beq.n	100003ac <gpio_default_irq_handler+0x70>
10000448:	f013 030f 	ands.w	r3, r3, #15
1000044c:	d00c      	beq.n	10000468 <gpio_default_irq_handler+0x12c>
1000044e:	f85a 2027 	ldr.w	r2, [sl, r7, lsl #2]
10000452:	40ca      	lsrs	r2, r1
10000454:	07d0      	lsls	r0, r2, #31
10000456:	d407      	bmi.n	10000468 <gpio_default_irq_handler+0x12c>
10000458:	f001 0007 	and.w	r0, r1, #7
1000045c:	08ca      	lsrs	r2, r1, #3
1000045e:	0081      	lsls	r1, r0, #2
10000460:	408b      	lsls	r3, r1
10000462:	328c      	adds	r2, #140	; 0x8c
10000464:	f849 3022 	str.w	r3, [r9, r2, lsl #2]
10000468:	0f24      	lsrs	r4, r4, #28
1000046a:	f106 32ff 	add.w	r2, r6, #4294967295	; 0xffffffff
1000046e:	d09d      	beq.n	100003ac <gpio_default_irq_handler+0x70>
10000470:	f85a 3027 	ldr.w	r3, [sl, r7, lsl #2]
10000474:	40d3      	lsrs	r3, r2
10000476:	07d9      	lsls	r1, r3, #31
10000478:	d498      	bmi.n	100003ac <gpio_default_irq_handler+0x70>
1000047a:	f002 0107 	and.w	r1, r2, #7
1000047e:	08d3      	lsrs	r3, r2, #3
10000480:	008a      	lsls	r2, r1, #2
10000482:	4094      	lsls	r4, r2
10000484:	338c      	adds	r3, #140	; 0x8c
10000486:	f849 4023 	str.w	r4, [r9, r3, lsl #2]
1000048a:	e78f      	b.n	100003ac <gpio_default_irq_handler+0x70>
1000048c:	f85a 2027 	ldr.w	r2, [sl, r7, lsl #2]
10000490:	40ca      	lsrs	r2, r1
10000492:	07d0      	lsls	r0, r2, #31
10000494:	d4c6      	bmi.n	10000424 <gpio_default_irq_handler+0xe8>
10000496:	f001 0007 	and.w	r0, r1, #7
1000049a:	08ca      	lsrs	r2, r1, #3
1000049c:	0081      	lsls	r1, r0, #2
1000049e:	408b      	lsls	r3, r1
100004a0:	328c      	adds	r2, #140	; 0x8c
100004a2:	f849 3022 	str.w	r3, [r9, r2, lsl #2]
100004a6:	e7bd      	b.n	10000424 <gpio_default_irq_handler+0xe8>
100004a8:	f005 0307 	and.w	r3, r5, #7
100004ac:	009b      	lsls	r3, r3, #2
100004ae:	fa01 f303 	lsl.w	r3, r1, r3
100004b2:	328c      	adds	r2, #140	; 0x8c
100004b4:	f849 3022 	str.w	r3, [r9, r2, lsl #2]
100004b8:	e785      	b.n	100003c6 <gpio_default_irq_handler+0x8a>
100004ba:	f85a 2027 	ldr.w	r2, [sl, r7, lsl #2]
100004be:	40ca      	lsrs	r2, r1
100004c0:	07d2      	lsls	r2, r2, #31
100004c2:	d4b6      	bmi.n	10000432 <gpio_default_irq_handler+0xf6>
100004c4:	f001 0007 	and.w	r0, r1, #7
100004c8:	08ca      	lsrs	r2, r1, #3
100004ca:	0081      	lsls	r1, r0, #2
100004cc:	408b      	lsls	r3, r1
100004ce:	328c      	adds	r2, #140	; 0x8c
100004d0:	f849 3022 	str.w	r3, [r9, r2, lsl #2]
100004d4:	e7ad      	b.n	10000432 <gpio_default_irq_handler+0xf6>
100004d6:	f85a 2027 	ldr.w	r2, [sl, r7, lsl #2]
100004da:	40ca      	lsrs	r2, r1
100004dc:	07d5      	lsls	r5, r2, #31
100004de:	d4af      	bmi.n	10000440 <gpio_default_irq_handler+0x104>
100004e0:	f001 0007 	and.w	r0, r1, #7
100004e4:	08ca      	lsrs	r2, r1, #3
100004e6:	0081      	lsls	r1, r0, #2
100004e8:	408b      	lsls	r3, r1
100004ea:	328c      	adds	r2, #140	; 0x8c
100004ec:	f849 3022 	str.w	r3, [r9, r2, lsl #2]
100004f0:	e7a6      	b.n	10000440 <gpio_default_irq_handler+0x104>
100004f2:	bf00      	nop
100004f4:	40028290 	.word	0x40028290
100004f8:	40028248 	.word	0x40028248
100004fc:	20001a1c 	.word	0x20001a1c
10000500:	20002164 	.word	0x20002164
10000504:	40028000 	.word	0x40028000

10000508 <gpio_set_pulls>:
10000508:	2900      	cmp	r1, #0
1000050a:	bf15      	itete	ne
1000050c:	210c      	movne	r1, #12
1000050e:	2104      	moveq	r1, #4
10000510:	f04f 0c08 	movne.w	ip, #8
10000514:	f04f 0c00 	moveq.w	ip, #0
10000518:	2a00      	cmp	r2, #0
1000051a:	bf08      	it	eq
1000051c:	4661      	moveq	r1, ip
1000051e:	4b06      	ldr	r3, [pc, #24]	; (10000538 <gpio_set_pulls+0x30>)
10000520:	f853 2020 	ldr.w	r2, [r3, r0, lsl #2]
10000524:	eb03 0380 	add.w	r3, r3, r0, lsl #2
10000528:	404a      	eors	r2, r1
1000052a:	f503 5380 	add.w	r3, r3, #4096	; 0x1000
1000052e:	f002 020c 	and.w	r2, r2, #12
10000532:	601a      	str	r2, [r3, #0]
10000534:	4770      	bx	lr
10000536:	bf00      	nop
10000538:	40038004 	.word	0x40038004

1000053c <gpio_set_irq_enabled_with_callback>:
1000053c:	e92d 43f0 	stmdb	sp!, {r4, r5, r6, r7, r8, r9, lr}
10000540:	f04f 4950 	mov.w	r9, #3489660928	; 0xd0000000
10000544:	f8df 8098 	ldr.w	r8, [pc, #152]	; 100005e0 <gpio_set_irq_enabled_with_callback+0xa4>
10000548:	f8d9 7000 	ldr.w	r7, [r9]
1000054c:	4616      	mov	r6, r2
1000054e:	f858 2027 	ldr.w	r2, [r8, r7, lsl #2]
10000552:	4604      	mov	r4, r0
10000554:	460d      	mov	r5, r1
10000556:	b083      	sub	sp, #12
10000558:	b342      	cbz	r2, 100005ac <gpio_set_irq_enabled_with_callback+0x70>
1000055a:	b393      	cbz	r3, 100005c2 <gpio_set_irq_enabled_with_callback+0x86>
1000055c:	f848 3027 	str.w	r3, [r8, r7, lsl #2]
10000560:	f04f 4350 	mov.w	r3, #3489660928	; 0xd0000000
10000564:	681f      	ldr	r7, [r3, #0]
10000566:	4a1a      	ldr	r2, [pc, #104]	; (100005d0 <gpio_set_irq_enabled_with_callback+0x94>)
10000568:	4b1a      	ldr	r3, [pc, #104]	; (100005d4 <gpio_set_irq_enabled_with_callback+0x98>)
1000056a:	491b      	ldr	r1, [pc, #108]	; (100005d8 <gpio_set_irq_enabled_with_callback+0x9c>)
1000056c:	2f00      	cmp	r7, #0
1000056e:	bf08      	it	eq
10000570:	4613      	moveq	r3, r2
10000572:	08e2      	lsrs	r2, r4, #3
10000574:	f004 0407 	and.w	r4, r4, #7
10000578:	00a4      	lsls	r4, r4, #2
1000057a:	fa05 f404 	lsl.w	r4, r5, r4
1000057e:	f102 008c 	add.w	r0, r2, #140	; 0x8c
10000582:	f841 4020 	str.w	r4, [r1, r0, lsl #2]
10000586:	eb03 0382 	add.w	r3, r3, r2, lsl #2
1000058a:	b14e      	cbz	r6, 100005a0 <gpio_set_irq_enabled_with_callback+0x64>
1000058c:	2101      	movs	r1, #1
1000058e:	2015      	movs	r0, #21
10000590:	f503 5300 	add.w	r3, r3, #8192	; 0x2000
10000594:	601c      	str	r4, [r3, #0]
10000596:	b003      	add	sp, #12
10000598:	e8bd 43f0 	ldmia.w	sp!, {r4, r5, r6, r7, r8, r9, lr}
1000059c:	f000 b94e 	b.w	1000083c <irq_set_enabled>
100005a0:	f503 5340 	add.w	r3, r3, #12288	; 0x3000
100005a4:	601c      	str	r4, [r3, #0]
100005a6:	b003      	add	sp, #12
100005a8:	e8bd 83f0 	ldmia.w	sp!, {r4, r5, r6, r7, r8, r9, pc}
100005ac:	2b00      	cmp	r3, #0
100005ae:	d0da      	beq.n	10000566 <gpio_set_irq_enabled_with_callback+0x2a>
100005b0:	2015      	movs	r0, #21
100005b2:	490a      	ldr	r1, [pc, #40]	; (100005dc <gpio_set_irq_enabled_with_callback+0xa0>)
100005b4:	f848 3027 	str.w	r3, [r8, r7, lsl #2]
100005b8:	f000 f9b4 	bl	10000924 <irq_add_shared_handler>
100005bc:	f8d9 7000 	ldr.w	r7, [r9]
100005c0:	e7d1      	b.n	10000566 <gpio_set_irq_enabled_with_callback+0x2a>
100005c2:	2015      	movs	r0, #21
100005c4:	4905      	ldr	r1, [pc, #20]	; (100005dc <gpio_set_irq_enabled_with_callback+0xa0>)
100005c6:	9301      	str	r3, [sp, #4]
100005c8:	f000 faa0 	bl	10000b0c <irq_remove_handler>
100005cc:	9b01      	ldr	r3, [sp, #4]
100005ce:	e7c5      	b.n	1000055c <gpio_set_irq_enabled_with_callback+0x20>
100005d0:	40028248 	.word	0x40028248
100005d4:	40028290 	.word	0x40028290
100005d8:	40028000 	.word	0x40028000
100005dc:	1000033d 	.word	0x1000033d
100005e0:	20001a1c 	.word	0x20001a1c

100005e4 <gpio_init>:
100005e4:	b430      	push	{r4, r5}
100005e6:	2300      	movs	r3, #0
100005e8:	ec43 0044 	gpioc_bit_oe_put r0, r3
100005ec:	ec43 0040 	gpioc_bit_out_put r0, r3
100005f0:	2505      	movs	r5, #5
100005f2:	f44f 7480 	mov.w	r4, #256	; 0x100
100005f6:	4b0b      	ldr	r3, [pc, #44]	; (10000624 <gpio_init+0x40>)
100005f8:	00c2      	lsls	r2, r0, #3
100005fa:	f853 1020 	ldr.w	r1, [r3, r0, lsl #2]
100005fe:	eb03 0080 	add.w	r0, r3, r0, lsl #2
10000602:	f081 0140 	eor.w	r1, r1, #64	; 0x40
10000606:	f102 4380 	add.w	r3, r2, #1073741824	; 0x40000000
1000060a:	f503 3320 	add.w	r3, r3, #163840	; 0x28000
1000060e:	f001 02c0 	and.w	r2, r1, #192	; 0xc0
10000612:	f500 5180 	add.w	r1, r0, #4096	; 0x1000
10000616:	f500 5040 	add.w	r0, r0, #12288	; 0x3000
1000061a:	600a      	str	r2, [r1, #0]
1000061c:	605d      	str	r5, [r3, #4]
1000061e:	6004      	str	r4, [r0, #0]
10000620:	bc30      	pop	{r4, r5}
10000622:	4770      	bx	lr
10000624:	40038004 	.word	0x40038004

10000628 <panic>:
10000628:	b40f      	push	{r0, r1, r2, r3}
1000062a:	b500      	push	{lr}
1000062c:	b083      	sub	sp, #12
1000062e:	9c04      	ldr	r4, [sp, #16]
10000630:	4807      	ldr	r0, [pc, #28]	; (10000650 <panic+0x28>)
10000632:	f001 fbd3 	bl	10001ddc <__wrap_puts>
10000636:	b13c      	cbz	r4, 10000648 <panic+0x20>
10000638:	a905      	add	r1, sp, #20
1000063a:	4620      	mov	r0, r4
1000063c:	9101      	str	r1, [sp, #4]
1000063e:	f001 fa7b 	bl	10001b38 <weak_raw_vprintf>
10000642:	4804      	ldr	r0, [pc, #16]	; (10000654 <panic+0x2c>)
10000644:	f001 fbca 	bl	10001ddc <__wrap_puts>
10000648:	2001      	movs	r0, #1
1000064a:	f001 fa8d 	bl	10001b68 <_exit>
1000064e:	bf00      	nop
10000650:	10007de8 	.word	0x10007de8
10000654:	10007df8 	.word	0x10007df8

10000658 <hw_claim_lock>:
10000658:	f3ef 8010 	mrs	r0, PRIMASK
1000065c:	b672      	cpsid	i
1000065e:	4b06      	ldr	r3, [pc, #24]	; (10000678 <hw_claim_lock+0x20>)
10000660:	e8d3 1fcf 	ldaexb	r1, [r3]
10000664:	2201      	movs	r2, #1
10000666:	2900      	cmp	r1, #0
10000668:	d1fa      	bne.n	10000660 <hw_claim_lock+0x8>
1000066a:	e8c3 2f41 	strexb	r1, r2, [r3]
1000066e:	2900      	cmp	r1, #0
10000670:	d1f6      	bne.n	10000660 <hw_claim_lock+0x8>
10000672:	f3bf 8f5f 	dmb	sy
10000676:	4770      	bx	lr
10000678:	20001613 	.word	0x20001613

1000067c <hw_claim_unlock>:
1000067c:	2300      	movs	r3, #0
1000067e:	4a03      	ldr	r2, [pc, #12]	; (1000068c <hw_claim_unlock+0x10>)
10000680:	e8c2 3f8f 	stlb	r3, [r2]
10000684:	f380 8810 	msr	PRIMASK, r0
10000688:	4770      	bx	lr
1000068a:	bf00      	nop
1000068c:	20001613 	.word	0x20001613

10000690 <hw_claim_or_assert>:
10000690:	b570      	push	{r4, r5, r6, lr}
10000692:	f3ef 8510 	mrs	r5, PRIMASK
10000696:	b672      	cpsid	i
10000698:	4c13      	ldr	r4, [pc, #76]	; (100006e8 <hw_claim_or_assert+0x58>)
1000069a:	e8d4 cfcf 	ldaexb	ip, [r4]
1000069e:	2601      	movs	r6, #1
100006a0:	f1bc 0f00 	cmp.w	ip, #0
100006a4:	d1f9      	bne.n	1000069a <hw_claim_or_assert+0xa>
100006a6:	e8c4 6f4c 	strexb	ip, r6, [r4]
100006aa:	f1bc 0f00 	cmp.w	ip, #0
100006ae:	d1f4      	bne.n	1000069a <hw_claim_or_assert+0xa>
100006b0:	f3bf 8f5f 	dmb	sy
100006b4:	f04f 0c01 	mov.w	ip, #1
100006b8:	ea4f 0ed1 	mov.w	lr, r1, lsr #3
100006bc:	f001 0307 	and.w	r3, r1, #7
100006c0:	fa0c f303 	lsl.w	r3, ip, r3
100006c4:	f810 c00e 	ldrb.w	ip, [r0, lr]
100006c8:	ea1c 0603 	ands.w	r6, ip, r3
100006cc:	d108      	bne.n	100006e0 <hw_claim_or_assert+0x50>
100006ce:	ea4c 0303 	orr.w	r3, ip, r3
100006d2:	f800 300e 	strb.w	r3, [r0, lr]
100006d6:	e8c4 6f8f 	stlb	r6, [r4]
100006da:	f385 8810 	msr	PRIMASK, r5
100006de:	bd70      	pop	{r4, r5, r6, pc}
100006e0:	4610      	mov	r0, r2
100006e2:	f7ff ffa1 	bl	10000628 <panic>
100006e6:	bf00      	nop
100006e8:	20001613 	.word	0x20001613

100006ec <hw_claim_unused_from_range>:
100006ec:	b5f8      	push	{r3, r4, r5, r6, r7, lr}
100006ee:	f3ef 8510 	mrs	r5, PRIMASK
100006f2:	b672      	cpsid	i
100006f4:	4c23      	ldr	r4, [pc, #140]	; (10000784 <hw_claim_unused_from_range+0x98>)
100006f6:	e8d4 7fcf 	ldaexb	r7, [r4]
100006fa:	2601      	movs	r6, #1
100006fc:	2f00      	cmp	r7, #0
100006fe:	d1fa      	bne.n	100006f6 <hw_claim_unused_from_range+0xa>
10000700:	e8c4 6f47 	strexb	r7, r6, [r4]
10000704:	2f00      	cmp	r7, #0
10000706:	d1f6      	bne.n	100006f6 <hw_claim_unused_from_range+0xa>
10000708:	f3bf 8f5f 	dmb	sy
1000070c:	429a      	cmp	r2, r3
1000070e:	d827      	bhi.n	10000760 <hw_claim_unused_from_range+0x74>
10000710:	2601      	movs	r6, #1
10000712:	08d7      	lsrs	r7, r2, #3
10000714:	f810 e007 	ldrb.w	lr, [r0, r7]
10000718:	f002 0c07 	and.w	ip, r2, #7
1000071c:	fa06 fc0c 	lsl.w	ip, r6, ip
10000720:	ea1e 0f0c 	tst.w	lr, ip
10000724:	eb00 07d2 	add.w	r7, r0, r2, lsr #3
10000728:	d10d      	bne.n	10000746 <hw_claim_unused_from_range+0x5a>
1000072a:	e025      	b.n	10000778 <hw_claim_unused_from_range+0x8c>
1000072c:	ea4f 0ed2 	mov.w	lr, r2, lsr #3
10000730:	f810 e00e 	ldrb.w	lr, [r0, lr]
10000734:	f002 0c07 	and.w	ip, r2, #7
10000738:	fa06 fc0c 	lsl.w	ip, r6, ip
1000073c:	ea1e 0f0c 	tst.w	lr, ip
10000740:	eb00 07d2 	add.w	r7, r0, r2, lsr #3
10000744:	d018      	beq.n	10000778 <hw_claim_unused_from_range+0x8c>
10000746:	3201      	adds	r2, #1
10000748:	4293      	cmp	r3, r2
1000074a:	d2ef      	bcs.n	1000072c <hw_claim_unused_from_range+0x40>
1000074c:	f04f 30ff 	mov.w	r0, #4294967295	; 0xffffffff
10000750:	2300      	movs	r3, #0
10000752:	e8c4 3f8f 	stlb	r3, [r4]
10000756:	f385 8810 	msr	PRIMASK, r5
1000075a:	4298      	cmp	r0, r3
1000075c:	db07      	blt.n	1000076e <hw_claim_unused_from_range+0x82>
1000075e:	bdf8      	pop	{r3, r4, r5, r6, r7, pc}
10000760:	2300      	movs	r3, #0
10000762:	e8c4 3f8f 	stlb	r3, [r4]
10000766:	f385 8810 	msr	PRIMASK, r5
1000076a:	f04f 30ff 	mov.w	r0, #4294967295	; 0xffffffff
1000076e:	2900      	cmp	r1, #0
10000770:	d0f5      	beq.n	1000075e <hw_claim_unused_from_range+0x72>
10000772:	9806      	ldr	r0, [sp, #24]
10000774:	f7ff ff58 	bl	10000628 <panic>
10000778:	ea4e 0c0c 	orr.w	ip, lr, ip
1000077c:	4610      	mov	r0, r2
1000077e:	f887 c000 	strb.w	ip, [r7]
10000782:	e7e5      	b.n	10000750 <hw_claim_unused_from_range+0x64>
10000784:	20001613 	.word	0x20001613

10000788 <next_striped_spin_lock_num>:
10000788:	4a04      	ldr	r2, [pc, #16]	; (1000079c <next_striped_spin_lock_num+0x14>)
1000078a:	7810      	ldrb	r0, [r2, #0]
1000078c:	1c43      	adds	r3, r0, #1
1000078e:	b2db      	uxtb	r3, r3
10000790:	2b17      	cmp	r3, #23
10000792:	bf88      	it	hi
10000794:	2310      	movhi	r3, #16
10000796:	7013      	strb	r3, [r2, #0]
10000798:	4770      	bx	lr
1000079a:	bf00      	nop
1000079c:	200011d0 	.word	0x200011d0

100007a0 <spin_lock_claim>:
100007a0:	4601      	mov	r1, r0
100007a2:	4a02      	ldr	r2, [pc, #8]	; (100007ac <spin_lock_claim+0xc>)
100007a4:	4802      	ldr	r0, [pc, #8]	; (100007b0 <spin_lock_claim+0x10>)
100007a6:	f7ff bf73 	b.w	10000690 <hw_claim_or_assert>
100007aa:	bf00      	nop
100007ac:	10007dfc 	.word	0x10007dfc
100007b0:	20001a2c 	.word	0x20001a2c

100007b4 <spin_lock_claim_unused>:
100007b4:	b510      	push	{r4, lr}
100007b6:	4c05      	ldr	r4, [pc, #20]	; (100007cc <spin_lock_claim_unused+0x18>)
100007b8:	b082      	sub	sp, #8
100007ba:	4601      	mov	r1, r0
100007bc:	231f      	movs	r3, #31
100007be:	2218      	movs	r2, #24
100007c0:	9400      	str	r4, [sp, #0]
100007c2:	4803      	ldr	r0, [pc, #12]	; (100007d0 <spin_lock_claim_unused+0x1c>)
100007c4:	f7ff ff92 	bl	100006ec <hw_claim_unused_from_range>
100007c8:	b002      	add	sp, #8
100007ca:	bd10      	pop	{r4, pc}
100007cc:	10007e1c 	.word	0x10007e1c
100007d0:	20001a2c 	.word	0x20001a2c

100007d4 <spinlock_set_extexclall>:
100007d4:	f04f 22e0 	mov.w	r2, #3758153728	; 0xe000e000
100007d8:	6893      	ldr	r3, [r2, #8]
100007da:	f043 5300 	orr.w	r3, r3, #536870912	; 0x20000000
100007de:	6093      	str	r3, [r2, #8]
100007e0:	4770      	bx	lr
100007e2:	bf00      	nop

100007e4 <spin_locks_reset>:
100007e4:	2100      	movs	r1, #0
100007e6:	4b04      	ldr	r3, [pc, #16]	; (100007f8 <spin_locks_reset+0x14>)
100007e8:	f103 0220 	add.w	r2, r3, #32
100007ec:	e8c3 1f8f 	stlb	r1, [r3]
100007f0:	3301      	adds	r3, #1
100007f2:	4293      	cmp	r3, r2
100007f4:	d1fa      	bne.n	100007ec <spin_locks_reset+0x8>
100007f6:	4770      	bx	lr
100007f8:	20001608 	.word	0x20001608

100007fc <runtime_init_per_core_irq_priorities>:
100007fc:	f04f 23e0 	mov.w	r3, #3758153728	; 0xe000e000
10000800:	f04f 3280 	mov.w	r2, #2155905152	; 0x80808080
10000804:	f8c3 2400 	str.w	r2, [r3, #1024]	; 0x400
10000808:	f8c3 2404 	str.w	r2, [r3, #1028]	; 0x404
1000080c:	f8c3 2408 	str.w	r2, [r3, #1032]	; 0x408
10000810:	f8c3 240c 	str.w	r2, [r3, #1036]	; 0x40c
10000814:	f8c3 2410 	str.w	r2, [r3, #1040]	; 0x410
10000818:	f8c3 2414 	str.w	r2, [r3, #1044]	; 0x414
1000081c:	f8c3 2418 	str.w	r2, [r3, #1048]	; 0x418
10000820:	f8c3 241c 	str.w	r2, [r3, #1052]	; 0x41c
10000824:	f8c3 2420 	str.w	r2, [r3, #1056]	; 0x420
10000828:	f8c3 2424 	str.w	r2, [r3, #1060]	; 0x424
1000082c:	f8c3 2428 	str.w	r2, [r3, #1064]	; 0x428
10000830:	f8c3 242c 	str.w	r2, [r3, #1068]	; 0x42c
10000834:	f8c3 2430 	str.w	r2, [r3, #1072]	; 0x430
10000838:	4770      	bx	lr
1000083a:	bf00      	nop

1000083c <irq_set_enabled>:
1000083c:	2301      	movs	r3, #1
1000083e:	f000 021f 	and.w	r2, r0, #31
10000842:	4093      	lsls	r3, r2
10000844:	0940      	lsrs	r0, r0, #5
10000846:	b141      	cbz	r1, 1000085a <irq_set_enabled+0x1e>
10000848:	0080      	lsls	r0, r0, #2
1000084a:	f100 4060 	add.w	r0, r0, #3758096384	; 0xe0000000
1000084e:	f500 4061 	add.w	r0, r0, #57600	; 0xe100
10000852:	f8c0 3180 	str.w	r3, [r0, #384]	; 0x180
10000856:	6003      	str	r3, [r0, #0]
10000858:	4770      	bx	lr
1000085a:	4a02      	ldr	r2, [pc, #8]	; (10000864 <irq_set_enabled+0x28>)
1000085c:	3020      	adds	r0, #32
1000085e:	f842 3020 	str.w	r3, [r2, r0, lsl #2]
10000862:	4770      	bx	lr
10000864:	e000e100 	.word	0xe000e100

10000868 <irq_is_enabled>:
10000868:	2301      	movs	r3, #1
1000086a:	4a06      	ldr	r2, [pc, #24]	; (10000884 <irq_is_enabled+0x1c>)
1000086c:	0941      	lsrs	r1, r0, #5
1000086e:	f852 2021 	ldr.w	r2, [r2, r1, lsl #2]
10000872:	f000 001f 	and.w	r0, r0, #31
10000876:	fa03 f000 	lsl.w	r0, r3, r0
1000087a:	4210      	tst	r0, r2
1000087c:	bf14      	ite	ne
1000087e:	4618      	movne	r0, r3
10000880:	2000      	moveq	r0, #0
10000882:	4770      	bx	lr
10000884:	e000e100 	.word	0xe000e100

10000888 <irq_set_pending>:
10000888:	2201      	movs	r2, #1
1000088a:	0943      	lsrs	r3, r0, #5
1000088c:	4904      	ldr	r1, [pc, #16]	; (100008a0 <irq_set_pending+0x18>)
1000088e:	f000 001f 	and.w	r0, r0, #31
10000892:	fa02 f000 	lsl.w	r0, r2, r0
10000896:	3340      	adds	r3, #64	; 0x40
10000898:	f841 0023 	str.w	r0, [r1, r3, lsl #2]
1000089c:	4770      	bx	lr
1000089e:	bf00      	nop
100008a0:	e000e100 	.word	0xe000e100

100008a4 <irq_has_shared_handler>:
100008a4:	4a05      	ldr	r2, [pc, #20]	; (100008bc <irq_has_shared_handler+0x18>)
100008a6:	3010      	adds	r0, #16
100008a8:	6892      	ldr	r2, [r2, #8]
100008aa:	4b05      	ldr	r3, [pc, #20]	; (100008c0 <irq_has_shared_handler+0x1c>)
100008ac:	f852 0020 	ldr.w	r0, [r2, r0, lsl #2]
100008b0:	1ac0      	subs	r0, r0, r3
100008b2:	282f      	cmp	r0, #47	; 0x2f
100008b4:	bf8c      	ite	hi
100008b6:	2000      	movhi	r0, #0
100008b8:	2001      	movls	r0, #1
100008ba:	4770      	bx	lr
100008bc:	e000ed00 	.word	0xe000ed00
100008c0:	200011d4 	.word	0x200011d4

100008c4 <irq_set_exclusive_handler>:
100008c4:	b5f8      	push	{r3, r4, r5, r6, r7, lr}
100008c6:	460d      	mov	r5, r1
100008c8:	f3ef 8710 	mrs	r7, PRIMASK
100008cc:	b672      	cpsid	i
100008ce:	4e12      	ldr	r6, [pc, #72]	; (10000918 <irq_set_exclusive_handler+0x54>)
100008d0:	e8d6 2fcf 	ldaexb	r2, [r6]
100008d4:	2301      	movs	r3, #1
100008d6:	2a00      	cmp	r2, #0
100008d8:	d1fa      	bne.n	100008d0 <irq_set_exclusive_handler+0xc>
100008da:	e8c6 3f42 	strexb	r2, r3, [r6]
100008de:	2a00      	cmp	r2, #0
100008e0:	d1f6      	bne.n	100008d0 <irq_set_exclusive_handler+0xc>
100008e2:	f3bf 8f5f 	dmb	sy
100008e6:	4b0d      	ldr	r3, [pc, #52]	; (1000091c <irq_set_exclusive_handler+0x58>)
100008e8:	f100 0410 	add.w	r4, r0, #16
100008ec:	689b      	ldr	r3, [r3, #8]
100008ee:	4a0c      	ldr	r2, [pc, #48]	; (10000920 <irq_set_exclusive_handler+0x5c>)
100008f0:	f853 3024 	ldr.w	r3, [r3, r4, lsl #2]
100008f4:	4293      	cmp	r3, r2
100008f6:	d003      	beq.n	10000900 <irq_set_exclusive_handler+0x3c>
100008f8:	4299      	cmp	r1, r3
100008fa:	d001      	beq.n	10000900 <irq_set_exclusive_handler+0x3c>
100008fc:	f001 f818 	bl	10001930 <hard_assertion_failure>
10000900:	4b06      	ldr	r3, [pc, #24]	; (1000091c <irq_set_exclusive_handler+0x58>)
10000902:	689b      	ldr	r3, [r3, #8]
10000904:	f843 5024 	str.w	r5, [r3, r4, lsl #2]
10000908:	f3bf 8f5f 	dmb	sy
1000090c:	2300      	movs	r3, #0
1000090e:	e8c6 3f8f 	stlb	r3, [r6]
10000912:	f387 8810 	msr	PRIMASK, r7
10000916:	bdf8      	pop	{r3, r4, r5, r6, r7, pc}
10000918:	20001611 	.word	0x20001611
1000091c:	e000ed00 	.word	0xe000ed00
10000920:	1000011d 	.word	0x1000011d

10000924 <irq_add_shared_handler>:
10000924:	e92d 4ff0 	stmdb	sp!, {r4, r5, r6, r7, r8, r9, sl, fp, lr}
10000928:	4680      	mov	r8, r0
1000092a:	468b      	mov	fp, r1
1000092c:	4617      	mov	r7, r2
1000092e:	b083      	sub	sp, #12
10000930:	f3ef 8310 	mrs	r3, PRIMASK
10000934:	b672      	cpsid	i
10000936:	f8df a1d0 	ldr.w	sl, [pc, #464]	; 10000b08 <irq_add_shared_handler+0x1e4>
1000093a:	9300      	str	r3, [sp, #0]
1000093c:	e8da 1fcf 	ldaexb	r1, [sl]
10000940:	2301      	movs	r3, #1
10000942:	2900      	cmp	r1, #0
10000944:	d1fa      	bne.n	1000093c <irq_add_shared_handler+0x18>
10000946:	e8ca 3f41 	strexb	r1, r3, [sl]
1000094a:	2900      	cmp	r1, #0
1000094c:	d1f6      	bne.n	1000093c <irq_add_shared_handler+0x18>
1000094e:	f3bf 8f5f 	dmb	sy
10000952:	4e66      	ldr	r6, [pc, #408]	; (10000aec <irq_add_shared_handler+0x1c8>)
10000954:	f996 5000 	ldrsb.w	r5, [r6]
10000958:	2d00      	cmp	r5, #0
1000095a:	f2c0 80a0 	blt.w	10000a9e <irq_add_shared_handler+0x17a>
1000095e:	4c64      	ldr	r4, [pc, #400]	; (10000af0 <irq_add_shared_handler+0x1cc>)
10000960:	eb05 0345 	add.w	r3, r5, r5, lsl #1
10000964:	eb04 0083 	add.w	r0, r4, r3, lsl #2
10000968:	7981      	ldrb	r1, [r0, #6]
1000096a:	f108 0810 	add.w	r8, r8, #16
1000096e:	7031      	strb	r1, [r6, #0]
10000970:	4960      	ldr	r1, [pc, #384]	; (10000af4 <irq_add_shared_handler+0x1d0>)
10000972:	009b      	lsls	r3, r3, #2
10000974:	6889      	ldr	r1, [r1, #8]
10000976:	4699      	mov	r9, r3
10000978:	f851 e028 	ldr.w	lr, [r1, r8, lsl #2]
1000097c:	4606      	mov	r6, r0
1000097e:	ebae 0104 	sub.w	r1, lr, r4
10000982:	292f      	cmp	r1, #47	; 0x2f
10000984:	ea4f 0245 	mov.w	r2, r5, lsl #1
10000988:	d931      	bls.n	100009ee <irq_add_shared_handler+0xca>
1000098a:	4b5b      	ldr	r3, [pc, #364]	; (10000af8 <irq_add_shared_handler+0x1d4>)
1000098c:	459e      	cmp	lr, r3
1000098e:	f040 80a2 	bne.w	10000ad6 <irq_add_shared_handler+0x1b2>
10000992:	4b5a      	ldr	r3, [pc, #360]	; (10000afc <irq_add_shared_handler+0x1d8>)
10000994:	f109 0902 	add.w	r9, r9, #2
10000998:	44a1      	add	r9, r4
1000099a:	3b04      	subs	r3, #4
1000099c:	eba3 0309 	sub.w	r3, r3, r9
100009a0:	f3c3 034a 	ubfx	r3, r3, #1, #11
100009a4:	ea6f 43c3 	mvn.w	r3, r3, lsl #19
100009a8:	f44f 4121 	mov.w	r1, #41216	; 0xa100
100009ac:	ea6f 43d3 	mvn.w	r3, r3, lsr #19
100009b0:	4415      	add	r5, r2
100009b2:	f824 1025 	strh.w	r1, [r4, r5, lsl #2]
100009b6:	eb04 0585 	add.w	r5, r4, r5, lsl #2
100009ba:	806b      	strh	r3, [r5, #2]
100009bc:	f64b 5301 	movw	r3, #48385	; 0xbd01
100009c0:	80ab      	strh	r3, [r5, #4]
100009c2:	23ff      	movs	r3, #255	; 0xff
100009c4:	f046 0e01 	orr.w	lr, r6, #1
100009c8:	71ef      	strb	r7, [r5, #7]
100009ca:	f8c5 b008 	str.w	fp, [r5, #8]
100009ce:	71ab      	strb	r3, [r5, #6]
100009d0:	4b48      	ldr	r3, [pc, #288]	; (10000af4 <irq_add_shared_handler+0x1d0>)
100009d2:	689b      	ldr	r3, [r3, #8]
100009d4:	f843 e028 	str.w	lr, [r3, r8, lsl #2]
100009d8:	f3bf 8f5f 	dmb	sy
100009dc:	2300      	movs	r3, #0
100009de:	e8ca 3f8f 	stlb	r3, [sl]
100009e2:	9b00      	ldr	r3, [sp, #0]
100009e4:	f383 8810 	msr	PRIMASK, r3
100009e8:	b003      	add	sp, #12
100009ea:	e8bd 8ff0 	ldmia.w	sp!, {r4, r5, r6, r7, r8, r9, sl, fp, pc}
100009ee:	f02e 0101 	bic.w	r1, lr, #1
100009f2:	f891 c007 	ldrb.w	ip, [r1, #7]
100009f6:	45bc      	cmp	ip, r7
100009f8:	d82b      	bhi.n	10000a52 <irq_add_shared_handler+0x12e>
100009fa:	f44f 4621 	mov.w	r6, #41216	; 0xa100
100009fe:	52e6      	strh	r6, [r4, r3]
10000a00:	4b3e      	ldr	r3, [pc, #248]	; (10000afc <irq_add_shared_handler+0x1d8>)
10000a02:	f109 0602 	add.w	r6, r9, #2
10000a06:	4426      	add	r6, r4
10000a08:	3b04      	subs	r3, #4
10000a0a:	f109 0904 	add.w	r9, r9, #4
10000a0e:	1b9b      	subs	r3, r3, r6
10000a10:	44a1      	add	r9, r4
10000a12:	1f0e      	subs	r6, r1, #4
10000a14:	71c7      	strb	r7, [r0, #7]
10000a16:	eba6 0609 	sub.w	r6, r6, r9
10000a1a:	4f39      	ldr	r7, [pc, #228]	; (10000b00 <irq_add_shared_handler+0x1dc>)
10000a1c:	f3c6 064a 	ubfx	r6, r6, #1, #11
10000a20:	433e      	orrs	r6, r7
10000a22:	8086      	strh	r6, [r0, #4]
10000a24:	f3c3 034a 	ubfx	r3, r3, #1, #11
10000a28:	4e36      	ldr	r6, [pc, #216]	; (10000b04 <irq_add_shared_handler+0x1e0>)
10000a2a:	433b      	orrs	r3, r7
10000a2c:	8043      	strh	r3, [r0, #2]
10000a2e:	f64a 25aa 	movw	r5, #43690	; 0xaaaa
10000a32:	460b      	mov	r3, r1
10000a34:	1b1b      	subs	r3, r3, r4
10000a36:	415b      	adcs	r3, r3
10000a38:	435d      	muls	r5, r3
10000a3a:	0d2d      	lsrs	r5, r5, #20
10000a3c:	f8c0 b008 	str.w	fp, [r0, #8]
10000a40:	7185      	strb	r5, [r0, #6]
10000a42:	f040 0e01 	orr.w	lr, r0, #1
10000a46:	600e      	str	r6, [r1, #0]
10000a48:	e7c2      	b.n	100009d0 <irq_add_shared_handler+0xac>
10000a4a:	79c0      	ldrb	r0, [r0, #7]
10000a4c:	42b8      	cmp	r0, r7
10000a4e:	d92b      	bls.n	10000aa8 <irq_add_shared_handler+0x184>
10000a50:	4661      	mov	r1, ip
10000a52:	f991 3006 	ldrsb.w	r3, [r1, #6]
10000a56:	eb03 0043 	add.w	r0, r3, r3, lsl #1
10000a5a:	eb04 0080 	add.w	r0, r4, r0, lsl #2
10000a5e:	2b00      	cmp	r3, #0
10000a60:	4684      	mov	ip, r0
10000a62:	daf2      	bge.n	10000a4a <irq_add_shared_handler+0x126>
10000a64:	f64b 5001 	movw	r0, #48385	; 0xbd01
10000a68:	9301      	str	r3, [sp, #4]
10000a6a:	1d0b      	adds	r3, r1, #4
10000a6c:	3e04      	subs	r6, #4
10000a6e:	1af6      	subs	r6, r6, r3
10000a70:	f3c6 064a 	ubfx	r6, r6, #1, #11
10000a74:	ea6f 46c6 	mvn.w	r6, r6, lsl #19
10000a78:	ea6f 46d6 	mvn.w	r6, r6, lsr #19
10000a7c:	eb02 0c05 	add.w	ip, r2, r5
10000a80:	f8df 9080 	ldr.w	r9, [pc, #128]	; 10000b04 <irq_add_shared_handler+0x1e0>
10000a84:	9b01      	ldr	r3, [sp, #4]
10000a86:	718d      	strb	r5, [r1, #6]
10000a88:	eb04 058c 	add.w	r5, r4, ip, lsl #2
10000a8c:	808e      	strh	r6, [r1, #4]
10000a8e:	f844 902c 	str.w	r9, [r4, ip, lsl #2]
10000a92:	80a8      	strh	r0, [r5, #4]
10000a94:	71ab      	strb	r3, [r5, #6]
10000a96:	71ef      	strb	r7, [r5, #7]
10000a98:	f8c5 b008 	str.w	fp, [r5, #8]
10000a9c:	e798      	b.n	100009d0 <irq_add_shared_handler+0xac>
10000a9e:	f000 ff47 	bl	10001930 <hard_assertion_failure>
10000aa2:	f996 5000 	ldrsb.w	r5, [r6]
10000aa6:	e75a      	b.n	1000095e <irq_add_shared_handler+0x3a>
10000aa8:	8888      	ldrh	r0, [r1, #4]
10000aaa:	9301      	str	r3, [sp, #4]
10000aac:	0540      	lsls	r0, r0, #21
10000aae:	f101 0304 	add.w	r3, r1, #4
10000ab2:	d415      	bmi.n	10000ae0 <irq_add_shared_handler+0x1bc>
10000ab4:	ea4f 5c60 	mov.w	ip, r0, asr #21
10000ab8:	f06f 0007 	mvn.w	r0, #7
10000abc:	f10c 0c02 	add.w	ip, ip, #2
10000ac0:	eba0 0009 	sub.w	r0, r0, r9
10000ac4:	eb03 0c4c 	add.w	ip, r3, ip, lsl #1
10000ac8:	1b00      	subs	r0, r0, r4
10000aca:	4460      	add	r0, ip
10000acc:	f3c0 004a 	ubfx	r0, r0, #1, #11
10000ad0:	f440 4060 	orr.w	r0, r0, #57344	; 0xe000
10000ad4:	e7ca      	b.n	10000a6c <irq_add_shared_handler+0x148>
10000ad6:	9201      	str	r2, [sp, #4]
10000ad8:	f000 ff2a 	bl	10001930 <hard_assertion_failure>
10000adc:	9a01      	ldr	r2, [sp, #4]
10000ade:	e758      	b.n	10000992 <irq_add_shared_handler+0x6e>
10000ae0:	f500 10ff 	add.w	r0, r0, #2088960	; 0x1fe000
10000ae4:	f500 50ff 	add.w	r0, r0, #8160	; 0x1fe0
10000ae8:	301f      	adds	r0, #31
10000aea:	e7e3      	b.n	10000ab4 <irq_add_shared_handler+0x190>
10000aec:	2002229f 	.word	0x2002229f
10000af0:	200011d4 	.word	0x200011d4
10000af4:	e000ed00 	.word	0xe000ed00
10000af8:	1000011d 	.word	0x1000011d
10000afc:	20001204 	.word	0x20001204
10000b00:	ffffe000 	.word	0xffffe000
10000b04:	47804801 	.word	0x47804801
10000b08:	20001611 	.word	0x20001611

10000b0c <irq_remove_handler>:
10000b0c:	e92d 4ff0 	stmdb	sp!, {r4, r5, r6, r7, r8, r9, sl, fp, lr}
10000b10:	b083      	sub	sp, #12
10000b12:	f3ef 8910 	mrs	r9, PRIMASK
10000b16:	b672      	cpsid	i
10000b18:	4e70      	ldr	r6, [pc, #448]	; (10000cdc <irq_remove_handler+0x1d0>)
10000b1a:	e8d6 2fcf 	ldaexb	r2, [r6]
10000b1e:	2301      	movs	r3, #1
10000b20:	2a00      	cmp	r2, #0
10000b22:	d1fa      	bne.n	10000b1a <irq_remove_handler+0xe>
10000b24:	e8c6 3f42 	strexb	r2, r3, [r6]
10000b28:	2a00      	cmp	r2, #0
10000b2a:	d1f6      	bne.n	10000b1a <irq_remove_handler+0xe>
10000b2c:	f3bf 8f5f 	dmb	sy
10000b30:	4b6b      	ldr	r3, [pc, #428]	; (10000ce0 <irq_remove_handler+0x1d4>)
10000b32:	f100 0710 	add.w	r7, r0, #16
10000b36:	689b      	ldr	r3, [r3, #8]
10000b38:	f853 5027 	ldr.w	r5, [r3, r7, lsl #2]
10000b3c:	4b69      	ldr	r3, [pc, #420]	; (10000ce4 <irq_remove_handler+0x1d8>)
10000b3e:	429d      	cmp	r5, r3
10000b40:	d042      	beq.n	10000bc8 <irq_remove_handler+0xbc>
10000b42:	428d      	cmp	r5, r1
10000b44:	d04e      	beq.n	10000be4 <irq_remove_handler+0xd8>
10000b46:	4c68      	ldr	r4, [pc, #416]	; (10000ce8 <irq_remove_handler+0x1dc>)
10000b48:	1b2b      	subs	r3, r5, r4
10000b4a:	2b2f      	cmp	r3, #47	; 0x2f
10000b4c:	d83c      	bhi.n	10000bc8 <irq_remove_handler+0xbc>
10000b4e:	f04f 0a01 	mov.w	sl, #1
10000b52:	ea4f 1850 	mov.w	r8, r0, lsr #5
10000b56:	ea4f 0888 	mov.w	r8, r8, lsl #2
10000b5a:	f108 4860 	add.w	r8, r8, #3758096384	; 0xe0000000
10000b5e:	f508 4861 	add.w	r8, r8, #57600	; 0xe100
10000b62:	f8d8 3000 	ldr.w	r3, [r8]
10000b66:	f000 001f 	and.w	r0, r0, #31
10000b6a:	fa0a fa00 	lsl.w	sl, sl, r0
10000b6e:	ea0a 0303 	and.w	r3, sl, r3
10000b72:	f8c8 a080 	str.w	sl, [r8, #128]	; 0x80
10000b76:	9300      	str	r3, [sp, #0]
10000b78:	f3bf 8f5f 	dmb	sy
10000b7c:	f3ef 8305 	mrs	r3, IPSR
10000b80:	b2db      	uxtb	r3, r3
10000b82:	469b      	mov	fp, r3
10000b84:	bb83      	cbnz	r3, 10000be8 <irq_remove_handler+0xdc>
10000b86:	f025 0e01 	bic.w	lr, r5, #1
10000b8a:	f8de c008 	ldr.w	ip, [lr, #8]
10000b8e:	4561      	cmp	r1, ip
10000b90:	f000 8099 	beq.w	10000cc6 <irq_remove_handler+0x1ba>
10000b94:	460b      	mov	r3, r1
10000b96:	4661      	mov	r1, ip
10000b98:	469c      	mov	ip, r3
10000b9a:	e003      	b.n	10000ba4 <irq_remove_handler+0x98>
10000b9c:	6881      	ldr	r1, [r0, #8]
10000b9e:	458c      	cmp	ip, r1
10000ba0:	d02c      	beq.n	10000bfc <irq_remove_handler+0xf0>
10000ba2:	4696      	mov	lr, r2
10000ba4:	f99e 3006 	ldrsb.w	r3, [lr, #6]
10000ba8:	eb03 0043 	add.w	r0, r3, r3, lsl #1
10000bac:	eb04 0080 	add.w	r0, r4, r0, lsl #2
10000bb0:	2b00      	cmp	r3, #0
10000bb2:	4602      	mov	r2, r0
10000bb4:	daf2      	bge.n	10000b9c <irq_remove_handler+0x90>
10000bb6:	4663      	mov	r3, ip
10000bb8:	428b      	cmp	r3, r1
10000bba:	d059      	beq.n	10000c70 <irq_remove_handler+0x164>
10000bbc:	9b00      	ldr	r3, [sp, #0]
10000bbe:	b1d3      	cbz	r3, 10000bf6 <irq_remove_handler+0xea>
10000bc0:	f8c8 a180 	str.w	sl, [r8, #384]	; 0x180
10000bc4:	f8c8 a000 	str.w	sl, [r8]
10000bc8:	4b45      	ldr	r3, [pc, #276]	; (10000ce0 <irq_remove_handler+0x1d4>)
10000bca:	689b      	ldr	r3, [r3, #8]
10000bcc:	f843 5027 	str.w	r5, [r3, r7, lsl #2]
10000bd0:	f3bf 8f5f 	dmb	sy
10000bd4:	2300      	movs	r3, #0
10000bd6:	e8c6 3f8f 	stlb	r3, [r6]
10000bda:	f389 8810 	msr	PRIMASK, r9
10000bde:	b003      	add	sp, #12
10000be0:	e8bd 8ff0 	ldmia.w	sp!, {r4, r5, r6, r7, r8, r9, sl, fp, pc}
10000be4:	461d      	mov	r5, r3
10000be6:	e7ef      	b.n	10000bc8 <irq_remove_handler+0xbc>
10000be8:	429f      	cmp	r7, r3
10000bea:	d0cc      	beq.n	10000b86 <irq_remove_handler+0x7a>
10000bec:	9101      	str	r1, [sp, #4]
10000bee:	f000 fe9f 	bl	10001930 <hard_assertion_failure>
10000bf2:	9901      	ldr	r1, [sp, #4]
10000bf4:	e7c7      	b.n	10000b86 <irq_remove_handler+0x7a>
10000bf6:	f8c8 a080 	str.w	sl, [r8, #128]	; 0x80
10000bfa:	e7e5      	b.n	10000bc8 <irq_remove_handler+0xbc>
10000bfc:	f990 1006 	ldrsb.w	r1, [r0, #6]
10000c00:	2900      	cmp	r1, #0
10000c02:	db36      	blt.n	10000c72 <irq_remove_handler+0x166>
10000c04:	eb01 0c41 	add.w	ip, r1, r1, lsl #1
10000c08:	eb04 0c8c 	add.w	ip, r4, ip, lsl #2
10000c0c:	f8dc 3008 	ldr.w	r3, [ip, #8]
10000c10:	0048      	lsls	r0, r1, #1
10000c12:	6093      	str	r3, [r2, #8]
10000c14:	f89c 3007 	ldrb.w	r3, [ip, #7]
10000c18:	71d3      	strb	r3, [r2, #7]
10000c1a:	f99c 3006 	ldrsb.w	r3, [ip, #6]
10000c1e:	2b00      	cmp	r3, #0
10000c20:	7193      	strb	r3, [r2, #6]
10000c22:	db3e      	blt.n	10000ca2 <irq_remove_handler+0x196>
10000c24:	f8bc 3004 	ldrh.w	r3, [ip, #4]
10000c28:	055b      	lsls	r3, r3, #21
10000c2a:	d504      	bpl.n	10000c36 <irq_remove_handler+0x12a>
10000c2c:	f503 13ff 	add.w	r3, r3, #2088960	; 0x1fe000
10000c30:	f503 53ff 	add.w	r3, r3, #8160	; 0x1fe0
10000c34:	331f      	adds	r3, #31
10000c36:	155b      	asrs	r3, r3, #21
10000c38:	f103 0c02 	add.w	ip, r3, #2
10000c3c:	f04f 0e04 	mov.w	lr, #4
10000c40:	230c      	movs	r3, #12
10000c42:	fb13 e301 	smlabb	r3, r3, r1, lr
10000c46:	eb03 034c 	add.w	r3, r3, ip, lsl #1
10000c4a:	f06f 0c07 	mvn.w	ip, #7
10000c4e:	4423      	add	r3, r4
10000c50:	ebac 0c02 	sub.w	ip, ip, r2
10000c54:	4463      	add	r3, ip
10000c56:	f3c3 034a 	ubfx	r3, r3, #1, #11
10000c5a:	f443 4360 	orr.w	r3, r3, #57344	; 0xe000
10000c5e:	8093      	strh	r3, [r2, #4]
10000c60:	4b22      	ldr	r3, [pc, #136]	; (10000cec <irq_remove_handler+0x1e0>)
10000c62:	4408      	add	r0, r1
10000c64:	781a      	ldrb	r2, [r3, #0]
10000c66:	eb04 0480 	add.w	r4, r4, r0, lsl #2
10000c6a:	7019      	strb	r1, [r3, #0]
10000c6c:	71a2      	strb	r2, [r4, #6]
10000c6e:	e7a5      	b.n	10000bbc <irq_remove_handler+0xb0>
10000c70:	4672      	mov	r2, lr
10000c72:	f1bb 0f00 	cmp.w	fp, #0
10000c76:	d117      	bne.n	10000ca8 <irq_remove_handler+0x19c>
10000c78:	23ff      	movs	r3, #255	; 0xff
10000c7a:	f88e 3006 	strb.w	r3, [lr, #6]
10000c7e:	f64b 5301 	movw	r3, #48385	; 0xbd01
10000c82:	f8ae 3004 	strh.w	r3, [lr, #4]
10000c86:	4819      	ldr	r0, [pc, #100]	; (10000cec <irq_remove_handler+0x1e0>)
10000c88:	f64a 23aa 	movw	r3, #43690	; 0xaaaa
10000c8c:	f890 c000 	ldrb.w	ip, [r0]
10000c90:	4611      	mov	r1, r2
10000c92:	1b09      	subs	r1, r1, r4
10000c94:	4149      	adcs	r1, r1
10000c96:	434b      	muls	r3, r1
10000c98:	0d1b      	lsrs	r3, r3, #20
10000c9a:	f882 c006 	strb.w	ip, [r2, #6]
10000c9e:	7003      	strb	r3, [r0, #0]
10000ca0:	e78c      	b.n	10000bbc <irq_remove_handler+0xb0>
10000ca2:	f64b 5301 	movw	r3, #48385	; 0xbd01
10000ca6:	e7da      	b.n	10000c5e <irq_remove_handler+0x152>
10000ca8:	4b11      	ldr	r3, [pc, #68]	; (10000cf0 <irq_remove_handler+0x1e4>)
10000caa:	4812      	ldr	r0, [pc, #72]	; (10000cf4 <irq_remove_handler+0x1e8>)
10000cac:	1a9b      	subs	r3, r3, r2
10000cae:	3b08      	subs	r3, #8
10000cb0:	f3c3 310a 	ubfx	r1, r3, #12, #11
10000cb4:	ea6f 5101 	mvn.w	r1, r1, lsl #20
10000cb8:	ea6f 5111 	mvn.w	r1, r1, lsr #20
10000cbc:	ea40 0353 	orr.w	r3, r0, r3, lsr #1
10000cc0:	80d3      	strh	r3, [r2, #6]
10000cc2:	8091      	strh	r1, [r2, #4]
10000cc4:	e77a      	b.n	10000bbc <irq_remove_handler+0xb0>
10000cc6:	f99e 1006 	ldrsb.w	r1, [lr, #6]
10000cca:	4672      	mov	r2, lr
10000ccc:	2900      	cmp	r1, #0
10000cce:	da99      	bge.n	10000c04 <irq_remove_handler+0xf8>
10000cd0:	f1bb 0f00 	cmp.w	fp, #0
10000cd4:	d1e8      	bne.n	10000ca8 <irq_remove_handler+0x19c>
10000cd6:	4d03      	ldr	r5, [pc, #12]	; (10000ce4 <irq_remove_handler+0x1d8>)
10000cd8:	e7d5      	b.n	10000c86 <irq_remove_handler+0x17a>
10000cda:	bf00      	nop
10000cdc:	20001611 	.word	0x20001611
10000ce0:	e000ed00 	.word	0xe000ed00
10000ce4:	1000011d 	.word	0x1000011d
10000ce8:	200011d4 	.word	0x200011d4
10000cec:	2002229f 	.word	0x2002229f
10000cf0:	2000120e 	.word	0x2000120e
10000cf4:	fffff800 	.word	0xfffff800

10000cf8 <irq_set_priority>:
10000cf8:	f04f 0cff 	mov.w	ip, #255	; 0xff
10000cfc:	f020 0303 	bic.w	r3, r0, #3
10000d00:	f103 4360 	add.w	r3, r3, #3758096384	; 0xe0000000
10000d04:	f503 4364 	add.w	r3, r3, #58368	; 0xe400
10000d08:	f000 0003 	and.w	r0, r0, #3
10000d0c:	681a      	ldr	r2, [r3, #0]
10000d0e:	00c0      	lsls	r0, r0, #3
10000d10:	fa0c fc00 	lsl.w	ip, ip, r0
10000d14:	ea22 020c 	bic.w	r2, r2, ip
10000d18:	4081      	lsls	r1, r0
10000d1a:	430a      	orrs	r2, r1
10000d1c:	601a      	str	r2, [r3, #0]
10000d1e:	4770      	bx	lr

10000d20 <irq_add_tail_to_free_list>:
10000d20:	b5f0      	push	{r4, r5, r6, r7, lr}
10000d22:	f3ef 8505 	mrs	r5, IPSR
10000d26:	b2ed      	uxtb	r5, r5
10000d28:	f3ef 8c10 	mrs	ip, PRIMASK
10000d2c:	b672      	cpsid	i
10000d2e:	4926      	ldr	r1, [pc, #152]	; (10000dc8 <irq_add_tail_to_free_list+0xa8>)
10000d30:	e8d1 2fcf 	ldaexb	r2, [r1]
10000d34:	2301      	movs	r3, #1
10000d36:	2a00      	cmp	r2, #0
10000d38:	d1fa      	bne.n	10000d30 <irq_add_tail_to_free_list+0x10>
10000d3a:	e8c1 3f42 	strexb	r2, r3, [r1]
10000d3e:	2a00      	cmp	r2, #0
10000d40:	d1f6      	bne.n	10000d30 <irq_add_tail_to_free_list+0x10>
10000d42:	f3bf 8f5f 	dmb	sy
10000d46:	4e21      	ldr	r6, [pc, #132]	; (10000dcc <irq_add_tail_to_free_list+0xac>)
10000d48:	f040 0e01 	orr.w	lr, r0, #1
10000d4c:	68b4      	ldr	r4, [r6, #8]
10000d4e:	f64a 23aa 	movw	r3, #43690	; 0xaaaa
10000d52:	f854 7025 	ldr.w	r7, [r4, r5, lsl #2]
10000d56:	4a1e      	ldr	r2, [pc, #120]	; (10000dd0 <irq_add_tail_to_free_list+0xb0>)
10000d58:	4604      	mov	r4, r0
10000d5a:	1aa4      	subs	r4, r4, r2
10000d5c:	4164      	adcs	r4, r4
10000d5e:	4363      	muls	r3, r4
10000d60:	0d1b      	lsrs	r3, r3, #20
10000d62:	4577      	cmp	r7, lr
10000d64:	b25b      	sxtb	r3, r3
10000d66:	d01b      	beq.n	10000da0 <irq_add_tail_to_free_list+0x80>
10000d68:	f992 4006 	ldrsb.w	r4, [r2, #6]
10000d6c:	429c      	cmp	r4, r3
10000d6e:	d01c      	beq.n	10000daa <irq_add_tail_to_free_list+0x8a>
10000d70:	f992 4012 	ldrsb.w	r4, [r2, #18]
10000d74:	429c      	cmp	r4, r3
10000d76:	d023      	beq.n	10000dc0 <irq_add_tail_to_free_list+0xa0>
10000d78:	f992 401e 	ldrsb.w	r4, [r2, #30]
10000d7c:	429c      	cmp	r4, r3
10000d7e:	d021      	beq.n	10000dc4 <irq_add_tail_to_free_list+0xa4>
10000d80:	f992 402a 	ldrsb.w	r4, [r2, #42]	; 0x2a
10000d84:	429c      	cmp	r4, r3
10000d86:	bf08      	it	eq
10000d88:	2403      	moveq	r4, #3
10000d8a:	d00f      	beq.n	10000dac <irq_add_tail_to_free_list+0x8c>
10000d8c:	4a11      	ldr	r2, [pc, #68]	; (10000dd4 <irq_add_tail_to_free_list+0xb4>)
10000d8e:	2400      	movs	r4, #0
10000d90:	7815      	ldrb	r5, [r2, #0]
10000d92:	7013      	strb	r3, [r2, #0]
10000d94:	7185      	strb	r5, [r0, #6]
10000d96:	e8c1 4f8f 	stlb	r4, [r1]
10000d9a:	f38c 8810 	msr	PRIMASK, ip
10000d9e:	bdf0      	pop	{r4, r5, r6, r7, pc}
10000da0:	68b2      	ldr	r2, [r6, #8]
10000da2:	4c0d      	ldr	r4, [pc, #52]	; (10000dd8 <irq_add_tail_to_free_list+0xb8>)
10000da4:	f842 4025 	str.w	r4, [r2, r5, lsl #2]
10000da8:	e7f0      	b.n	10000d8c <irq_add_tail_to_free_list+0x6c>
10000daa:	2400      	movs	r4, #0
10000dac:	eb04 0444 	add.w	r4, r4, r4, lsl #1
10000db0:	eb02 0284 	add.w	r2, r2, r4, lsl #2
10000db4:	24ff      	movs	r4, #255	; 0xff
10000db6:	7194      	strb	r4, [r2, #6]
10000db8:	f64b 5401 	movw	r4, #48385	; 0xbd01
10000dbc:	8094      	strh	r4, [r2, #4]
10000dbe:	e7e5      	b.n	10000d8c <irq_add_tail_to_free_list+0x6c>
10000dc0:	2401      	movs	r4, #1
10000dc2:	e7f3      	b.n	10000dac <irq_add_tail_to_free_list+0x8c>
10000dc4:	2402      	movs	r4, #2
10000dc6:	e7f1      	b.n	10000dac <irq_add_tail_to_free_list+0x8c>
10000dc8:	20001611 	.word	0x20001611
10000dcc:	e000ed00 	.word	0xe000ed00
10000dd0:	200011d4 	.word	0x200011d4
10000dd4:	2002229f 	.word	0x2002229f
10000dd8:	1000011d 	.word	0x1000011d

10000ddc <user_irq_claim_unused>:
10000ddc:	b510      	push	{r4, lr}
10000dde:	4c07      	ldr	r4, [pc, #28]	; (10000dfc <user_irq_claim_unused+0x20>)
10000de0:	b082      	sub	sp, #8
10000de2:	4601      	mov	r1, r0
10000de4:	2305      	movs	r3, #5
10000de6:	2200      	movs	r2, #0
10000de8:	9400      	str	r4, [sp, #0]
10000dea:	4805      	ldr	r0, [pc, #20]	; (10000e00 <user_irq_claim_unused+0x24>)
10000dec:	f7ff fc7e 	bl	100006ec <hw_claim_unused_from_range>
10000df0:	2800      	cmp	r0, #0
10000df2:	bfa8      	it	ge
10000df4:	f1c0 0033 	rsbge	r0, r0, #51	; 0x33
10000df8:	b002      	add	sp, #8
10000dfa:	bd10      	pop	{r4, pc}
10000dfc:	10007e38 	.word	0x10007e38
10000e00:	200222a3 	.word	0x200222a3

10000e04 <lock_init>:
10000e04:	4b01      	ldr	r3, [pc, #4]	; (10000e0c <lock_init+0x8>)
10000e06:	4419      	add	r1, r3
10000e08:	6001      	str	r1, [r0, #0]
10000e0a:	4770      	bx	lr
10000e0c:	20001608 	.word	0x20001608

10000e10 <runtime_init_mutex>:
10000e10:	e92d 41f0 	stmdb	sp!, {r4, r5, r6, r7, r8, lr}
10000e14:	4d15      	ldr	r5, [pc, #84]	; (10000e6c <runtime_init_mutex+0x5c>)
10000e16:	4e16      	ldr	r6, [pc, #88]	; (10000e70 <runtime_init_mutex+0x60>)
10000e18:	42b5      	cmp	r5, r6
10000e1a:	d224      	bcs.n	10000e66 <runtime_init_mutex+0x56>
10000e1c:	462c      	mov	r4, r5
10000e1e:	6823      	ldr	r3, [r4, #0]
10000e20:	f04f 37ff 	mov.w	r7, #4294967295	; 0xffffffff
10000e24:	f04f 0800 	mov.w	r8, #0
10000e28:	b18b      	cbz	r3, 10000e4e <runtime_init_mutex+0x3e>
10000e2a:	f7ff fcad 	bl	10000788 <next_striped_spin_lock_num>
10000e2e:	4601      	mov	r1, r0
10000e30:	4628      	mov	r0, r5
10000e32:	f7ff ffe7 	bl	10000e04 <lock_init>
10000e36:	6067      	str	r7, [r4, #4]
10000e38:	f884 8008 	strb.w	r8, [r4, #8]
10000e3c:	f3bf 8f5f 	dmb	sy
10000e40:	340c      	adds	r4, #12
10000e42:	42b4      	cmp	r4, r6
10000e44:	d20f      	bcs.n	10000e66 <runtime_init_mutex+0x56>
10000e46:	6823      	ldr	r3, [r4, #0]
10000e48:	4625      	mov	r5, r4
10000e4a:	2b00      	cmp	r3, #0
10000e4c:	d1ed      	bne.n	10000e2a <runtime_init_mutex+0x1a>
10000e4e:	f7ff fc9b 	bl	10000788 <next_striped_spin_lock_num>
10000e52:	4601      	mov	r1, r0
10000e54:	4628      	mov	r0, r5
10000e56:	f7ff ffd5 	bl	10000e04 <lock_init>
10000e5a:	6067      	str	r7, [r4, #4]
10000e5c:	f3bf 8f5f 	dmb	sy
10000e60:	3408      	adds	r4, #8
10000e62:	42b4      	cmp	r4, r6
10000e64:	d3ef      	bcc.n	10000e46 <runtime_init_mutex+0x36>
10000e66:	e8bd 81f0 	ldmia.w	sp!, {r4, r5, r6, r7, r8, pc}
10000e6a:	bf00      	nop
10000e6c:	20001270 	.word	0x20001270
10000e70:	20001280 	.word	0x20001280

10000e74 <mutex_init>:
10000e74:	b510      	push	{r4, lr}
10000e76:	4604      	mov	r4, r0
10000e78:	f7ff fc86 	bl	10000788 <next_striped_spin_lock_num>
10000e7c:	4601      	mov	r1, r0
10000e7e:	4620      	mov	r0, r4
10000e80:	f7ff ffc0 	bl	10000e04 <lock_init>
10000e84:	f04f 33ff 	mov.w	r3, #4294967295	; 0xffffffff
10000e88:	6063      	str	r3, [r4, #4]
10000e8a:	f3bf 8f5f 	dmb	sy
10000e8e:	bd10      	pop	{r4, pc}

10000e90 <critical_section_init>:
10000e90:	b510      	push	{r4, lr}
10000e92:	4604      	mov	r4, r0
10000e94:	2001      	movs	r0, #1
10000e96:	f7ff fc8d 	bl	100007b4 <spin_lock_claim_unused>
10000e9a:	4b03      	ldr	r3, [pc, #12]	; (10000ea8 <critical_section_init+0x18>)
10000e9c:	4418      	add	r0, r3
10000e9e:	6020      	str	r0, [r4, #0]
10000ea0:	f3bf 8f5f 	dmb	sy
10000ea4:	bd10      	pop	{r4, pc}
10000ea6:	bf00      	nop
10000ea8:	20001608 	.word	0x20001608

10000eac <critical_section_init_with_lock_num>:
10000eac:	4b02      	ldr	r3, [pc, #8]	; (10000eb8 <critical_section_init_with_lock_num+0xc>)
10000eae:	4419      	add	r1, r3
10000eb0:	6001      	str	r1, [r0, #0]
10000eb2:	f3bf 8f5f 	dmb	sy
10000eb6:	4770      	bx	lr
10000eb8:	20001608 	.word	0x20001608
10000ebc:	00000000 	.word	0x00000000

10000ec0 <alarm_pool_irq_handler>:
10000ec0:	e92d 4ff0 	stmdb	sp!, {r4, r5, r6, r7, r8, r9, sl, fp, lr}
10000ec4:	ed2d 8b02 	vpush	{d8}
10000ec8:	b085      	sub	sp, #20
10000eca:	f3ef 8305 	mrs	r3, IPSR
10000ece:	b2db      	uxtb	r3, r3
10000ed0:	3b10      	subs	r3, #16
10000ed2:	089a      	lsrs	r2, r3, #2
10000ed4:	bf18      	it	ne
10000ed6:	2201      	movne	r2, #1
10000ed8:	f04f 0101 	mov.w	r1, #1
10000edc:	f003 0003 	and.w	r0, r3, #3
10000ee0:	4bad      	ldr	r3, [pc, #692]	; (10001198 <alarm_pool_irq_handler+0x2d8>)
10000ee2:	eb00 0282 	add.w	r2, r0, r2, lsl #2
10000ee6:	bf0c      	ite	eq
10000ee8:	4fac      	ldreq	r7, [pc, #688]	; (1000119c <alarm_pool_irq_handler+0x2dc>)
10000eea:	4fad      	ldrne	r7, [pc, #692]	; (100011a0 <alarm_pool_irq_handler+0x2e0>)
10000eec:	f853 6022 	ldr.w	r6, [r3, r2, lsl #2]
10000ef0:	fa01 f200 	lsl.w	r2, r1, r0
10000ef4:	f507 5341 	add.w	r3, r7, #12352	; 0x3040
10000ef8:	ed9f 8ba5 	vldr	d8, [pc, #660]	; 10001190 <alarm_pool_irq_handler+0x2d0>
10000efc:	46b0      	mov	r8, r6
10000efe:	9001      	str	r0, [sp, #4]
10000f00:	9200      	str	r2, [sp, #0]
10000f02:	605a      	str	r2, [r3, #4]
10000f04:	e035      	b.n	10000f72 <alarm_pool_irq_handler+0xb2>
10000f06:	f8b8 3004 	ldrh.w	r3, [r8, #4]
10000f0a:	041b      	lsls	r3, r3, #16
10000f0c:	f140 8092 	bpl.w	10001034 <alarm_pool_irq_handler+0x174>
10000f10:	f898 3006 	ldrb.w	r3, [r8, #6]
10000f14:	2b00      	cmp	r3, #0
10000f16:	f040 80df 	bne.w	100010d8 <alarm_pool_irq_handler+0x218>
10000f1a:	f9b8 2008 	ldrsh.w	r2, [r8, #8]
10000f1e:	2a00      	cmp	r2, #0
10000f20:	f2c0 8125 	blt.w	1000116e <alarm_pool_irq_handler+0x2ae>
10000f24:	f8d8 3014 	ldr.w	r3, [r8, #20]
10000f28:	eb02 0242 	add.w	r2, r2, r2, lsl #1
10000f2c:	eb03 02c2 	add.w	r2, r3, r2, lsl #3
10000f30:	e9d2 4502 	ldrd	r4, r5, [r2, #8]
10000f34:	f1b5 3fff 	cmp.w	r5, #4294967295	; 0xffffffff
10000f38:	bf08      	it	eq
10000f3a:	f1b4 3fff 	cmpeq.w	r4, #4294967295	; 0xffffffff
10000f3e:	d00d      	beq.n	10000f5c <alarm_pool_irq_handler+0x9c>
10000f40:	9b01      	ldr	r3, [sp, #4]
10000f42:	eb07 0183 	add.w	r1, r7, r3, lsl #2
10000f46:	6abb      	ldr	r3, [r7, #40]	; 0x28
10000f48:	690a      	ldr	r2, [r1, #16]
10000f4a:	1ad2      	subs	r2, r2, r3
10000f4c:	1ae3      	subs	r3, r4, r3
10000f4e:	4293      	cmp	r3, r2
10000f50:	d303      	bcc.n	10000f5a <alarm_pool_irq_handler+0x9a>
10000f52:	6a3b      	ldr	r3, [r7, #32]
10000f54:	9a00      	ldr	r2, [sp, #0]
10000f56:	4213      	tst	r3, r2
10000f58:	d100      	bne.n	10000f5c <alarm_pool_irq_handler+0x9c>
10000f5a:	610c      	str	r4, [r1, #16]
10000f5c:	4638      	mov	r0, r7
10000f5e:	f000 fb5f 	bl	10001620 <timer_time_us_64>
10000f62:	1a20      	subs	r0, r4, r0
10000f64:	eb65 0501 	sbc.w	r5, r5, r1
10000f68:	2801      	cmp	r0, #1
10000f6a:	f175 0300 	sbcs.w	r3, r5, #0
10000f6e:	f280 80fe 	bge.w	1000116e <alarm_pool_irq_handler+0x2ae>
10000f72:	f9b8 4008 	ldrsh.w	r4, [r8, #8]
10000f76:	9b00      	ldr	r3, [sp, #0]
10000f78:	2c00      	cmp	r4, #0
10000f7a:	63fb      	str	r3, [r7, #60]	; 0x3c
10000f7c:	dbc3      	blt.n	10000f06 <alarm_pool_irq_handler+0x46>
10000f7e:	f8d8 a014 	ldr.w	sl, [r8, #20]
10000f82:	eb04 0b44 	add.w	fp, r4, r4, lsl #1
10000f86:	4638      	mov	r0, r7
10000f88:	eb0a 05cb 	add.w	r5, sl, fp, lsl #3
10000f8c:	e9d5 9602 	ldrd	r9, r6, [r5, #8]
10000f90:	f000 fb46 	bl	10001620 <timer_time_us_64>
10000f94:	4548      	cmp	r0, r9
10000f96:	eb61 0106 	sbc.w	r1, r1, r6
10000f9a:	2900      	cmp	r1, #0
10000f9c:	dbb3      	blt.n	10000f06 <alarm_pool_irq_handler+0x46>
10000f9e:	2e00      	cmp	r6, #0
10000fa0:	f2c0 80c3 	blt.w	1000112a <alarm_pool_irq_handler+0x26a>
10000fa4:	692b      	ldr	r3, [r5, #16]
10000fa6:	4a7f      	ldr	r2, [pc, #508]	; (100011a4 <alarm_pool_irq_handler+0x2e4>)
10000fa8:	4293      	cmp	r3, r2
10000faa:	f000 80fd 	beq.w	100011a8 <alarm_pool_irq_handler+0x2e8>
10000fae:	886a      	ldrh	r2, [r5, #2]
10000fb0:	f9b8 0008 	ldrsh.w	r0, [r8, #8]
10000fb4:	b292      	uxth	r2, r2
10000fb6:	ea42 4000 	orr.w	r0, r2, r0, lsl #16
10000fba:	6969      	ldr	r1, [r5, #20]
10000fbc:	4798      	blx	r3
10000fbe:	4602      	mov	r2, r0
10000fc0:	460b      	mov	r3, r1
10000fc2:	ea52 0103 	orrs.w	r1, r2, r3
10000fc6:	f000 80b0 	beq.w	1000112a <alarm_pool_irq_handler+0x26a>
10000fca:	2b00      	cmp	r3, #0
10000fcc:	f280 80d5 	bge.w	1000117a <alarm_pool_irq_handler+0x2ba>
10000fd0:	ebb9 0002 	subs.w	r0, r9, r2
10000fd4:	eb66 0303 	sbc.w	r3, r6, r3
10000fd8:	e9c5 0302 	strd	r0, r3, [r5, #8]
10000fdc:	f93a 503b 	ldrsh.w	r5, [sl, fp, lsl #3]
10000fe0:	2d00      	cmp	r5, #0
10000fe2:	db90      	blt.n	10000f06 <alarm_pool_irq_handler+0x46>
10000fe4:	f8d8 c014 	ldr.w	ip, [r8, #20]
10000fe8:	eb05 0145 	add.w	r1, r5, r5, lsl #1
10000fec:	eb0c 01c1 	add.w	r1, ip, r1, lsl #3
10000ff0:	688a      	ldr	r2, [r1, #8]
10000ff2:	1a82      	subs	r2, r0, r2
10000ff4:	68ca      	ldr	r2, [r1, #12]
10000ff6:	eb63 0202 	sbc.w	r2, r3, r2
10000ffa:	2a00      	cmp	r2, #0
10000ffc:	db83      	blt.n	10000f06 <alarm_pool_irq_handler+0x46>
10000ffe:	f8a8 5008 	strh.w	r5, [r8, #8]
10001002:	e007      	b.n	10001014 <alarm_pool_irq_handler+0x154>
10001004:	6895      	ldr	r5, [r2, #8]
10001006:	1b45      	subs	r5, r0, r5
10001008:	68d5      	ldr	r5, [r2, #12]
1000100a:	eb63 0505 	sbc.w	r5, r3, r5
1000100e:	2d00      	cmp	r5, #0
10001010:	db08      	blt.n	10001024 <alarm_pool_irq_handler+0x164>
10001012:	4611      	mov	r1, r2
10001014:	f9b1 6000 	ldrsh.w	r6, [r1]
10001018:	eb06 0246 	add.w	r2, r6, r6, lsl #1
1000101c:	2e00      	cmp	r6, #0
1000101e:	eb0c 02c2 	add.w	r2, ip, r2, lsl #3
10001022:	daef      	bge.n	10001004 <alarm_pool_irq_handler+0x144>
10001024:	f82a 603b 	strh.w	r6, [sl, fp, lsl #3]
10001028:	800c      	strh	r4, [r1, #0]
1000102a:	f8b8 3004 	ldrh.w	r3, [r8, #4]
1000102e:	041b      	lsls	r3, r3, #16
10001030:	f53f af6e 	bmi.w	10000f10 <alarm_pool_irq_handler+0x50>
10001034:	f8d8 3010 	ldr.w	r3, [r8, #16]
10001038:	f3ef 8210 	mrs	r2, PRIMASK
1000103c:	b672      	cpsid	i
1000103e:	e8d3 0fcf 	ldaexb	r0, [r3]
10001042:	2101      	movs	r1, #1
10001044:	2800      	cmp	r0, #0
10001046:	d1fa      	bne.n	1000103e <alarm_pool_irq_handler+0x17e>
10001048:	e8c3 1f40 	strexb	r0, r1, [r3]
1000104c:	2800      	cmp	r0, #0
1000104e:	d1f6      	bne.n	1000103e <alarm_pool_irq_handler+0x17e>
10001050:	f3bf 8f5f 	dmb	sy
10001054:	f64f 70ff 	movw	r0, #65535	; 0xffff
10001058:	f8b8 9004 	ldrh.w	r9, [r8, #4]
1000105c:	2300      	movs	r3, #0
1000105e:	f8d8 1010 	ldr.w	r1, [r8, #16]
10001062:	fa0f f989 	sxth.w	r9, r9
10001066:	f8a8 0004 	strh.w	r0, [r8, #4]
1000106a:	e8c1 3f8f 	stlb	r3, [r1]
1000106e:	f382 8810 	msr	PRIMASK, r2
10001072:	4599      	cmp	r9, r3
10001074:	f6ff af4c 	blt.w	10000f10 <alarm_pool_irq_handler+0x50>
10001078:	46ba      	mov	sl, r7
1000107a:	f8d8 5014 	ldr.w	r5, [r8, #20]
1000107e:	f108 0b08 	add.w	fp, r8, #8
10001082:	eb09 0e49 	add.w	lr, r9, r9, lsl #1
10001086:	eb05 03ce 	add.w	r3, r5, lr, lsl #3
1000108a:	e9d3 6702 	ldrd	r6, r7, [r3, #8]
1000108e:	f9b8 3008 	ldrsh.w	r3, [r8, #8]
10001092:	46dc      	mov	ip, fp
10001094:	2b00      	cmp	r3, #0
10001096:	da05      	bge.n	100010a4 <alarm_pool_irq_handler+0x1e4>
10001098:	e00f      	b.n	100010ba <alarm_pool_irq_handler+0x1fa>
1000109a:	f935 3034 	ldrsh.w	r3, [r5, r4, lsl #3]
1000109e:	4684      	mov	ip, r0
100010a0:	2b00      	cmp	r3, #0
100010a2:	db0a      	blt.n	100010ba <alarm_pool_irq_handler+0x1fa>
100010a4:	eb03 0443 	add.w	r4, r3, r3, lsl #1
100010a8:	eb05 00c4 	add.w	r0, r5, r4, lsl #3
100010ac:	e9d0 1202 	ldrd	r1, r2, [r0, #8]
100010b0:	1a71      	subs	r1, r6, r1
100010b2:	eb67 0202 	sbc.w	r2, r7, r2
100010b6:	2a00      	cmp	r2, #0
100010b8:	daef      	bge.n	1000109a <alarm_pool_irq_handler+0x1da>
100010ba:	f8ac 9000 	strh.w	r9, [ip]
100010be:	f935 903e 	ldrsh.w	r9, [r5, lr, lsl #3]
100010c2:	f825 303e 	strh.w	r3, [r5, lr, lsl #3]
100010c6:	f1b9 0f00 	cmp.w	r9, #0
100010ca:	dada      	bge.n	10001082 <alarm_pool_irq_handler+0x1c2>
100010cc:	f898 3006 	ldrb.w	r3, [r8, #6]
100010d0:	4657      	mov	r7, sl
100010d2:	2b00      	cmp	r3, #0
100010d4:	f43f af21 	beq.w	10000f1a <alarm_pool_irq_handler+0x5a>
100010d8:	2300      	movs	r3, #0
100010da:	f888 3006 	strb.w	r3, [r8, #6]
100010de:	f9b8 3008 	ldrsh.w	r3, [r8, #8]
100010e2:	f108 0c08 	add.w	ip, r8, #8
100010e6:	1c5e      	adds	r6, r3, #1
100010e8:	d041      	beq.n	1000116e <alarm_pool_irq_handler+0x2ae>
100010ea:	461a      	mov	r2, r3
100010ec:	f8d8 4014 	ldr.w	r4, [r8, #20]
100010f0:	e003      	b.n	100010fa <alarm_pool_irq_handler+0x23a>
100010f2:	4684      	mov	ip, r0
100010f4:	1c59      	adds	r1, r3, #1
100010f6:	f43f af12 	beq.w	10000f1e <alarm_pool_irq_handler+0x5e>
100010fa:	eb03 0143 	add.w	r1, r3, r3, lsl #1
100010fe:	eb04 00c1 	add.w	r0, r4, r1, lsl #3
10001102:	8845      	ldrh	r5, [r0, #2]
10001104:	461e      	mov	r6, r3
10001106:	042d      	lsls	r5, r5, #16
10001108:	f934 3031 	ldrsh.w	r3, [r4, r1, lsl #3]
1000110c:	d5f1      	bpl.n	100010f2 <alarm_pool_irq_handler+0x232>
1000110e:	4296      	cmp	r6, r2
10001110:	ed80 8b02 	vstr	d8, [r0, #8]
10001114:	d0ee      	beq.n	100010f4 <alarm_pool_irq_handler+0x234>
10001116:	f8ac 3000 	strh.w	r3, [ip]
1000111a:	f8b8 2008 	ldrh.w	r2, [r8, #8]
1000111e:	f824 2031 	strh.w	r2, [r4, r1, lsl #3]
10001122:	4632      	mov	r2, r6
10001124:	f8a8 6008 	strh.w	r6, [r8, #8]
10001128:	e7e4      	b.n	100010f4 <alarm_pool_irq_handler+0x234>
1000112a:	f83a 303b 	ldrh.w	r3, [sl, fp, lsl #3]
1000112e:	f8a8 3008 	strh.w	r3, [r8, #8]
10001132:	f8d8 3010 	ldr.w	r3, [r8, #16]
10001136:	f3ef 8210 	mrs	r2, PRIMASK
1000113a:	b672      	cpsid	i
1000113c:	e8d3 0fcf 	ldaexb	r0, [r3]
10001140:	2101      	movs	r1, #1
10001142:	2800      	cmp	r0, #0
10001144:	d1fa      	bne.n	1000113c <alarm_pool_irq_handler+0x27c>
10001146:	e8c3 1f40 	strexb	r0, r1, [r3]
1000114a:	2800      	cmp	r0, #0
1000114c:	d1f6      	bne.n	1000113c <alarm_pool_irq_handler+0x27c>
1000114e:	f3bf 8f5f 	dmb	sy
10001152:	f8b8 3002 	ldrh.w	r3, [r8, #2]
10001156:	f8d8 1010 	ldr.w	r1, [r8, #16]
1000115a:	f82a 303b 	strh.w	r3, [sl, fp, lsl #3]
1000115e:	2300      	movs	r3, #0
10001160:	f8a8 4002 	strh.w	r4, [r8, #2]
10001164:	e8c1 3f8f 	stlb	r3, [r1]
10001168:	f382 8810 	msr	PRIMASK, r2
1000116c:	e6cb      	b.n	10000f06 <alarm_pool_irq_handler+0x46>
1000116e:	bf40      	sev
10001170:	b005      	add	sp, #20
10001172:	ecbd 8b02 	vpop	{d8}
10001176:	e8bd 8ff0 	ldmia.w	sp!, {r4, r5, r6, r7, r8, r9, sl, fp, pc}
1000117a:	4638      	mov	r0, r7
1000117c:	e9cd 2302 	strd	r2, r3, [sp, #8]
10001180:	f000 fa4e 	bl	10001620 <timer_time_us_64>
10001184:	9a02      	ldr	r2, [sp, #8]
10001186:	9b03      	ldr	r3, [sp, #12]
10001188:	1880      	adds	r0, r0, r2
1000118a:	eb43 0301 	adc.w	r3, r3, r1
1000118e:	e723      	b.n	10000fd8 <alarm_pool_irq_handler+0x118>
10001190:	ffffffff 	.word	0xffffffff
10001194:	ffffffff 	.word	0xffffffff
10001198:	20001ea8 	.word	0x20001ea8
1000119c:	400b0000 	.word	0x400b0000
100011a0:	400b8000 	.word	0x400b8000
100011a4:	10000ec1 	.word	0x10000ec1
100011a8:	696b      	ldr	r3, [r5, #20]
100011aa:	4618      	mov	r0, r3
100011ac:	691a      	ldr	r2, [r3, #16]
100011ae:	9302      	str	r3, [sp, #8]
100011b0:	4790      	blx	r2
100011b2:	2800      	cmp	r0, #0
100011b4:	d0b9      	beq.n	1000112a <alarm_pool_irq_handler+0x26a>
100011b6:	9b02      	ldr	r3, [sp, #8]
100011b8:	e9d3 2300 	ldrd	r2, r3, [r3]
100011bc:	e701      	b.n	10000fc2 <alarm_pool_irq_handler+0x102>
100011be:	bf00      	nop

100011c0 <sleep_until_callback>:
100011c0:	480b      	ldr	r0, [pc, #44]	; (100011f0 <sleep_until_callback+0x30>)
100011c2:	b508      	push	{r3, lr}
100011c4:	6803      	ldr	r3, [r0, #0]
100011c6:	f3ef 8110 	mrs	r1, PRIMASK
100011ca:	b672      	cpsid	i
100011cc:	e8d3 cfcf 	ldaexb	ip, [r3]
100011d0:	2201      	movs	r2, #1
100011d2:	f1bc 0f00 	cmp.w	ip, #0
100011d6:	d1f9      	bne.n	100011cc <sleep_until_callback+0xc>
100011d8:	e8c3 2f4c 	strexb	ip, r2, [r3]
100011dc:	f1bc 0f00 	cmp.w	ip, #0
100011e0:	d1f4      	bne.n	100011cc <sleep_until_callback+0xc>
100011e2:	f3bf 8f5f 	dmb	sy
100011e6:	f003 fb57 	bl	10004898 <vPortLockInternalSpinUnlockWithNotify>
100011ea:	2000      	movs	r0, #0
100011ec:	2100      	movs	r1, #0
100011ee:	bd08      	pop	{r3, pc}
100011f0:	20002174 	.word	0x20002174

100011f4 <runtime_init_default_alarm_pool>:
100011f4:	e92d 4ff8 	stmdb	sp!, {r3, r4, r5, r6, r7, r8, r9, sl, fp, lr}
100011f8:	4c36      	ldr	r4, [pc, #216]	; (100012d4 <runtime_init_default_alarm_pool+0xe0>)
100011fa:	6925      	ldr	r5, [r4, #16]
100011fc:	b12d      	cbz	r5, 1000120a <runtime_init_default_alarm_pool+0x16>
100011fe:	e8bd 4ff8 	ldmia.w	sp!, {r3, r4, r5, r6, r7, r8, r9, sl, fp, lr}
10001202:	210a      	movs	r1, #10
10001204:	4834      	ldr	r0, [pc, #208]	; (100012d8 <runtime_init_default_alarm_pool+0xe4>)
10001206:	f7ff bdfd 	b.w	10000e04 <lock_init>
1000120a:	f8df 80e4 	ldr.w	r8, [pc, #228]	; 100012f0 <runtime_init_default_alarm_pool+0xfc>
1000120e:	2603      	movs	r6, #3
10001210:	2103      	movs	r1, #3
10001212:	4640      	mov	r0, r8
10001214:	f000 f9f2 	bl	100015fc <timer_hardware_alarm_claim>
10001218:	f8c4 800c 	str.w	r8, [r4, #12]
1000121c:	f7ff fab4 	bl	10000788 <next_striped_spin_lock_num>
10001220:	f04f 4c50 	mov.w	ip, #3489660928	; 0xd0000000
10001224:	4b2d      	ldr	r3, [pc, #180]	; (100012dc <runtime_init_default_alarm_pool+0xe8>)
10001226:	7026      	strb	r6, [r4, #0]
10001228:	4418      	add	r0, r3
1000122a:	f8dc 3000 	ldr.w	r3, [ip]
1000122e:	210f      	movs	r1, #15
10001230:	7063      	strb	r3, [r4, #1]
10001232:	6963      	ldr	r3, [r4, #20]
10001234:	8061      	strh	r1, [r4, #2]
10001236:	831d      	strh	r5, [r3, #24]
10001238:	f04f 0504 	mov.w	r5, #4
1000123c:	f8a3 5078 	strh.w	r5, [r3, #120]	; 0x78
10001240:	f04f 0505 	mov.w	r5, #5
10001244:	f8a3 5090 	strh.w	r5, [r3, #144]	; 0x90
10001248:	f04f 0506 	mov.w	r5, #6
1000124c:	f8a3 50a8 	strh.w	r5, [r3, #168]	; 0xa8
10001250:	f04f 0507 	mov.w	r5, #7
10001254:	210e      	movs	r1, #14
10001256:	6120      	str	r0, [r4, #16]
10001258:	2708      	movs	r7, #8
1000125a:	f64f 72ff 	movw	r2, #65535	; 0xffff
1000125e:	f04f 0e0a 	mov.w	lr, #10
10001262:	f8a3 50c0 	strh.w	r5, [r3, #192]	; 0xc0
10001266:	f04f 0901 	mov.w	r9, #1
1000126a:	f04f 0c0c 	mov.w	ip, #12
1000126e:	f04f 0b02 	mov.w	fp, #2
10001272:	f04f 0a09 	mov.w	sl, #9
10001276:	200d      	movs	r0, #13
10001278:	f04f 050b 	mov.w	r5, #11
1000127c:	f8a3 1168 	strh.w	r1, [r3, #360]	; 0x168
10001280:	4917      	ldr	r1, [pc, #92]	; (100012e0 <runtime_init_default_alarm_pool+0xec>)
10001282:	80a2      	strh	r2, [r4, #4]
10001284:	f8a3 e108 	strh.w	lr, [r3, #264]	; 0x108
10001288:	60a1      	str	r1, [r4, #8]
1000128a:	f8a3 b048 	strh.w	fp, [r3, #72]	; 0x48
1000128e:	f8a3 a0f0 	strh.w	sl, [r3, #240]	; 0xf0
10001292:	f8a3 5120 	strh.w	r5, [r3, #288]	; 0x120
10001296:	f8a3 c138 	strh.w	ip, [r3, #312]	; 0x138
1000129a:	f8a3 0150 	strh.w	r0, [r3, #336]	; 0x150
1000129e:	f8a3 9030 	strh.w	r9, [r3, #48]	; 0x30
100012a2:	f8a3 6060 	strh.w	r6, [r3, #96]	; 0x60
100012a6:	f8a3 70d8 	strh.w	r7, [r3, #216]	; 0xd8
100012aa:	801a      	strh	r2, [r3, #0]
100012ac:	4b0d      	ldr	r3, [pc, #52]	; (100012e4 <runtime_init_default_alarm_pool+0xf0>)
100012ae:	4630      	mov	r0, r6
100012b0:	f8c8 7020 	str.w	r7, [r8, #32]
100012b4:	490c      	ldr	r1, [pc, #48]	; (100012e8 <runtime_init_default_alarm_pool+0xf4>)
100012b6:	60dc      	str	r4, [r3, #12]
100012b8:	f7ff fb04 	bl	100008c4 <irq_set_exclusive_handler>
100012bc:	4649      	mov	r1, r9
100012be:	4630      	mov	r0, r6
100012c0:	f7ff fabc 	bl	1000083c <irq_set_enabled>
100012c4:	4b09      	ldr	r3, [pc, #36]	; (100012ec <runtime_init_default_alarm_pool+0xf8>)
100012c6:	210a      	movs	r1, #10
100012c8:	601f      	str	r7, [r3, #0]
100012ca:	4803      	ldr	r0, [pc, #12]	; (100012d8 <runtime_init_default_alarm_pool+0xe4>)
100012cc:	e8bd 4ff8 	ldmia.w	sp!, {r3, r4, r5, r6, r7, r8, r9, sl, fp, lr}
100012d0:	f7ff bd98 	b.w	10000e04 <lock_init>
100012d4:	2000121c 	.word	0x2000121c
100012d8:	20002174 	.word	0x20002174
100012dc:	20001608 	.word	0x20001608
100012e0:	0010ffff 	.word	0x0010ffff
100012e4:	20001ea8 	.word	0x20001ea8
100012e8:	10000ec1 	.word	0x10000ec1
100012ec:	400b2040 	.word	0x400b2040
100012f0:	400b0000 	.word	0x400b0000

100012f4 <alarm_pool_get_default>:
100012f4:	4800      	ldr	r0, [pc, #0]	; (100012f8 <alarm_pool_get_default+0x4>)
100012f6:	4770      	bx	lr
100012f8:	2000121c 	.word	0x2000121c

100012fc <alarm_pool_add_alarm_at>:
100012fc:	e92d 41f0 	stmdb	sp!, {r4, r5, r6, r7, r8, lr}
10001300:	f89d 5020 	ldrb.w	r5, [sp, #32]
10001304:	4604      	mov	r4, r0
10001306:	4617      	mov	r7, r2
10001308:	461e      	mov	r6, r3
1000130a:	b935      	cbnz	r5, 1000131a <alarm_pool_add_alarm_at+0x1e>
1000130c:	f000 f990 	bl	10001630 <time_us_64>
10001310:	4287      	cmp	r7, r0
10001312:	eb66 0101 	sbc.w	r1, r6, r1
10001316:	2900      	cmp	r1, #0
10001318:	db57      	blt.n	100013ca <alarm_pool_add_alarm_at+0xce>
1000131a:	6921      	ldr	r1, [r4, #16]
1000131c:	f3ef 8010 	mrs	r0, PRIMASK
10001320:	b672      	cpsid	i
10001322:	e8d1 2fcf 	ldaexb	r2, [r1]
10001326:	2301      	movs	r3, #1
10001328:	2a00      	cmp	r2, #0
1000132a:	d1fa      	bne.n	10001322 <alarm_pool_add_alarm_at+0x26>
1000132c:	e8c1 3f42 	strexb	r2, r3, [r1]
10001330:	2a00      	cmp	r2, #0
10001332:	d1f6      	bne.n	10001322 <alarm_pool_add_alarm_at+0x26>
10001334:	f3bf 8f5f 	dmb	sy
10001338:	f9b4 2002 	ldrsh.w	r2, [r4, #2]
1000133c:	f8d4 c014 	ldr.w	ip, [r4, #20]
10001340:	eb02 0142 	add.w	r1, r2, r2, lsl #1
10001344:	2a00      	cmp	r2, #0
10001346:	ea4f 0ec1 	mov.w	lr, r1, lsl #3
1000134a:	eb0c 01c1 	add.w	r1, ip, r1, lsl #3
1000134e:	db02      	blt.n	10001356 <alarm_pool_add_alarm_at+0x5a>
10001350:	f83c 300e 	ldrh.w	r3, [ip, lr]
10001354:	8063      	strh	r3, [r4, #2]
10001356:	f04f 0800 	mov.w	r8, #0
1000135a:	6923      	ldr	r3, [r4, #16]
1000135c:	e8c3 8f8f 	stlb	r8, [r3]
10001360:	f380 8810 	msr	PRIMASK, r0
10001364:	4542      	cmp	r2, r8
10001366:	db33      	blt.n	100013d0 <alarm_pool_add_alarm_at+0xd4>
10001368:	8848      	ldrh	r0, [r1, #2]
1000136a:	9b06      	ldr	r3, [sp, #24]
1000136c:	3001      	adds	r0, #1
1000136e:	f3c0 000e 	ubfx	r0, r0, #0, #15
10001372:	2801      	cmp	r0, #1
10001374:	bf38      	it	cc
10001376:	2001      	movcc	r0, #1
10001378:	610b      	str	r3, [r1, #16]
1000137a:	9b07      	ldr	r3, [sp, #28]
1000137c:	8048      	strh	r0, [r1, #2]
1000137e:	614b      	str	r3, [r1, #20]
10001380:	e9c1 7602 	strd	r7, r6, [r1, #8]
10001384:	ea40 4002 	orr.w	r0, r0, r2, lsl #16
10001388:	6923      	ldr	r3, [r4, #16]
1000138a:	f3ef 8110 	mrs	r1, PRIMASK
1000138e:	b672      	cpsid	i
10001390:	e8d3 6fcf 	ldaexb	r6, [r3]
10001394:	2501      	movs	r5, #1
10001396:	2e00      	cmp	r6, #0
10001398:	d1fa      	bne.n	10001390 <alarm_pool_add_alarm_at+0x94>
1000139a:	e8c3 5f46 	strexb	r6, r5, [r3]
1000139e:	2e00      	cmp	r6, #0
100013a0:	d1f6      	bne.n	10001390 <alarm_pool_add_alarm_at+0x94>
100013a2:	f3bf 8f5f 	dmb	sy
100013a6:	88a3      	ldrh	r3, [r4, #4]
100013a8:	f82c 300e 	strh.w	r3, [ip, lr]
100013ac:	80a2      	strh	r2, [r4, #4]
100013ae:	6923      	ldr	r3, [r4, #16]
100013b0:	e8c3 8f8f 	stlb	r8, [r3]
100013b4:	f381 8810 	msr	PRIMASK, r1
100013b8:	2201      	movs	r2, #1
100013ba:	68e3      	ldr	r3, [r4, #12]
100013bc:	7821      	ldrb	r1, [r4, #0]
100013be:	f503 5301 	add.w	r3, r3, #8256	; 0x2040
100013c2:	408a      	lsls	r2, r1
100013c4:	605a      	str	r2, [r3, #4]
100013c6:	e8bd 81f0 	ldmia.w	sp!, {r4, r5, r6, r7, r8, pc}
100013ca:	4628      	mov	r0, r5
100013cc:	e8bd 81f0 	ldmia.w	sp!, {r4, r5, r6, r7, r8, pc}
100013d0:	f04f 30ff 	mov.w	r0, #4294967295	; 0xffffffff
100013d4:	e7f7      	b.n	100013c6 <alarm_pool_add_alarm_at+0xca>
100013d6:	bf00      	nop

100013d8 <alarm_pool_add_alarm_at_force_in_context>:
100013d8:	4601      	mov	r1, r0
100013da:	b5f0      	push	{r4, r5, r6, r7, lr}
100013dc:	6900      	ldr	r0, [r0, #16]
100013de:	f3ef 8710 	mrs	r7, PRIMASK
100013e2:	b672      	cpsid	i
100013e4:	e8d0 5fcf 	ldaexb	r5, [r0]
100013e8:	2401      	movs	r4, #1
100013ea:	2d00      	cmp	r5, #0
100013ec:	d1fa      	bne.n	100013e4 <alarm_pool_add_alarm_at_force_in_context+0xc>
100013ee:	e8c0 4f45 	strexb	r5, r4, [r0]
100013f2:	2d00      	cmp	r5, #0
100013f4:	d1f6      	bne.n	100013e4 <alarm_pool_add_alarm_at_force_in_context+0xc>
100013f6:	f3bf 8f5f 	dmb	sy
100013fa:	f9b1 e002 	ldrsh.w	lr, [r1, #2]
100013fe:	694c      	ldr	r4, [r1, #20]
10001400:	eb0e 0c4e 	add.w	ip, lr, lr, lsl #1
10001404:	ea4f 06cc 	mov.w	r6, ip, lsl #3
10001408:	f1be 0f00 	cmp.w	lr, #0
1000140c:	bfa8      	it	ge
1000140e:	5ba0      	ldrhge	r0, [r4, r6]
10001410:	f04f 0500 	mov.w	r5, #0
10001414:	bfa8      	it	ge
10001416:	8048      	strhge	r0, [r1, #2]
10001418:	eb04 0ccc 	add.w	ip, r4, ip, lsl #3
1000141c:	6908      	ldr	r0, [r1, #16]
1000141e:	e8c0 5f8f 	stlb	r5, [r0]
10001422:	f387 8810 	msr	PRIMASK, r7
10001426:	45ae      	cmp	lr, r5
10001428:	db35      	blt.n	10001496 <alarm_pool_add_alarm_at_force_in_context+0xbe>
1000142a:	f8bc 0002 	ldrh.w	r0, [ip, #2]
1000142e:	e9cc 2302 	strd	r2, r3, [ip, #8]
10001432:	3001      	adds	r0, #1
10001434:	f3c0 000e 	ubfx	r0, r0, #0, #15
10001438:	2801      	cmp	r0, #1
1000143a:	bf38      	it	cc
1000143c:	2001      	movcc	r0, #1
1000143e:	9b05      	ldr	r3, [sp, #20]
10001440:	f8ac 0002 	strh.w	r0, [ip, #2]
10001444:	f8cc 3010 	str.w	r3, [ip, #16]
10001448:	9b06      	ldr	r3, [sp, #24]
1000144a:	ea40 400e 	orr.w	r0, r0, lr, lsl #16
1000144e:	f8cc 3014 	str.w	r3, [ip, #20]
10001452:	690b      	ldr	r3, [r1, #16]
10001454:	f3ef 8210 	mrs	r2, PRIMASK
10001458:	b672      	cpsid	i
1000145a:	e8d3 cfcf 	ldaexb	ip, [r3]
1000145e:	2701      	movs	r7, #1
10001460:	f1bc 0f00 	cmp.w	ip, #0
10001464:	d1f9      	bne.n	1000145a <alarm_pool_add_alarm_at_force_in_context+0x82>
10001466:	e8c3 7f4c 	strexb	ip, r7, [r3]
1000146a:	f1bc 0f00 	cmp.w	ip, #0
1000146e:	d1f4      	bne.n	1000145a <alarm_pool_add_alarm_at_force_in_context+0x82>
10001470:	f3bf 8f5f 	dmb	sy
10001474:	888b      	ldrh	r3, [r1, #4]
10001476:	53a3      	strh	r3, [r4, r6]
10001478:	f8a1 e004 	strh.w	lr, [r1, #4]
1000147c:	690b      	ldr	r3, [r1, #16]
1000147e:	e8c3 5f8f 	stlb	r5, [r3]
10001482:	f382 8810 	msr	PRIMASK, r2
10001486:	2201      	movs	r2, #1
10001488:	68cb      	ldr	r3, [r1, #12]
1000148a:	7809      	ldrb	r1, [r1, #0]
1000148c:	f503 5301 	add.w	r3, r3, #8256	; 0x2040
10001490:	408a      	lsls	r2, r1
10001492:	605a      	str	r2, [r3, #4]
10001494:	bdf0      	pop	{r4, r5, r6, r7, pc}
10001496:	f04f 30ff 	mov.w	r0, #4294967295	; 0xffffffff
1000149a:	bdf0      	pop	{r4, r5, r6, r7, pc}

1000149c <alarm_pool_cancel_alarm>:
1000149c:	8942      	ldrh	r2, [r0, #10]
1000149e:	ebb2 4f21 	cmp.w	r2, r1, asr #16
100014a2:	dd38      	ble.n	10001516 <alarm_pool_cancel_alarm+0x7a>
100014a4:	6942      	ldr	r2, [r0, #20]
100014a6:	140b      	asrs	r3, r1, #16
100014a8:	eb03 0343 	add.w	r3, r3, r3, lsl #1
100014ac:	b510      	push	{r4, lr}
100014ae:	eb02 03c3 	add.w	r3, r2, r3, lsl #3
100014b2:	6904      	ldr	r4, [r0, #16]
100014b4:	f3ef 8c10 	mrs	ip, PRIMASK
100014b8:	b672      	cpsid	i
100014ba:	e8d4 efcf 	ldaexb	lr, [r4]
100014be:	2201      	movs	r2, #1
100014c0:	f1be 0f00 	cmp.w	lr, #0
100014c4:	d1f9      	bne.n	100014ba <alarm_pool_cancel_alarm+0x1e>
100014c6:	e8c4 2f4e 	strexb	lr, r2, [r4]
100014ca:	f1be 0f00 	cmp.w	lr, #0
100014ce:	d1f4      	bne.n	100014ba <alarm_pool_cancel_alarm+0x1e>
100014d0:	f3bf 8f5f 	dmb	sy
100014d4:	885a      	ldrh	r2, [r3, #2]
100014d6:	b289      	uxth	r1, r1
100014d8:	b292      	uxth	r2, r2
100014da:	428a      	cmp	r2, r1
100014dc:	d007      	beq.n	100014ee <alarm_pool_cancel_alarm+0x52>
100014de:	2300      	movs	r3, #0
100014e0:	6902      	ldr	r2, [r0, #16]
100014e2:	e8c2 3f8f 	stlb	r3, [r2]
100014e6:	f38c 8810 	msr	PRIMASK, ip
100014ea:	4618      	mov	r0, r3
100014ec:	bd10      	pop	{r4, pc}
100014ee:	f442 4200 	orr.w	r2, r2, #32768	; 0x8000
100014f2:	805a      	strh	r2, [r3, #2]
100014f4:	2301      	movs	r3, #1
100014f6:	2200      	movs	r2, #0
100014f8:	6901      	ldr	r1, [r0, #16]
100014fa:	7183      	strb	r3, [r0, #6]
100014fc:	e8c1 2f8f 	stlb	r2, [r1]
10001500:	f38c 8810 	msr	PRIMASK, ip
10001504:	68c2      	ldr	r2, [r0, #12]
10001506:	7801      	ldrb	r1, [r0, #0]
10001508:	f502 5201 	add.w	r2, r2, #8256	; 0x2040
1000150c:	fa03 f101 	lsl.w	r1, r3, r1
10001510:	4618      	mov	r0, r3
10001512:	6051      	str	r1, [r2, #4]
10001514:	bd10      	pop	{r4, pc}
10001516:	2000      	movs	r0, #0
10001518:	4770      	bx	lr
1000151a:	bf00      	nop

1000151c <alarm_pool_core_num>:
1000151c:	7840      	ldrb	r0, [r0, #1]
1000151e:	4770      	bx	lr

10001520 <best_effort_wfe_or_timeout>:
10001520:	e92d 43f0 	stmdb	sp!, {r4, r5, r6, r7, r8, r9, lr}
10001524:	4607      	mov	r7, r0
10001526:	460e      	mov	r6, r1
10001528:	b083      	sub	sp, #12
1000152a:	f3ef 8405 	mrs	r4, IPSR
1000152e:	b2e4      	uxtb	r4, r4
10001530:	b174      	cbz	r4, 10001550 <best_effort_wfe_or_timeout+0x30>
10001532:	4b2f      	ldr	r3, [pc, #188]	; (100015f0 <best_effort_wfe_or_timeout+0xd0>)
10001534:	6a58      	ldr	r0, [r3, #36]	; 0x24
10001536:	4288      	cmp	r0, r1
10001538:	d203      	bcs.n	10001542 <best_effort_wfe_or_timeout+0x22>
1000153a:	2000      	movs	r0, #0
1000153c:	b003      	add	sp, #12
1000153e:	e8bd 83f0 	ldmia.w	sp!, {r4, r5, r6, r7, r8, r9, pc}
10001542:	6a9b      	ldr	r3, [r3, #40]	; 0x28
10001544:	42bb      	cmp	r3, r7
10001546:	d348      	bcc.n	100015da <best_effort_wfe_or_timeout+0xba>
10001548:	2001      	movs	r0, #1
1000154a:	b003      	add	sp, #12
1000154c:	e8bd 83f0 	ldmia.w	sp!, {r4, r5, r6, r7, r8, r9, pc}
10001550:	4d28      	ldr	r5, [pc, #160]	; (100015f4 <best_effort_wfe_or_timeout+0xd4>)
10001552:	f8d5 900c 	ldr.w	r9, [r5, #12]
10001556:	f895 8000 	ldrb.w	r8, [r5]
1000155a:	4648      	mov	r0, r9
1000155c:	f000 f860 	bl	10001620 <timer_time_us_64>
10001560:	f108 0804 	add.w	r8, r8, #4
10001564:	f859 3028 	ldr.w	r3, [r9, r8, lsl #2]
10001568:	1a1b      	subs	r3, r3, r0
1000156a:	1a38      	subs	r0, r7, r0
1000156c:	eb66 0101 	sbc.w	r1, r6, r1
10001570:	4298      	cmp	r0, r3
10001572:	f171 0300 	sbcs.w	r3, r1, #0
10001576:	db0d      	blt.n	10001594 <best_effort_wfe_or_timeout+0x74>
10001578:	bf20      	wfe
1000157a:	4b1d      	ldr	r3, [pc, #116]	; (100015f0 <best_effort_wfe_or_timeout+0xd0>)
1000157c:	6a58      	ldr	r0, [r3, #36]	; 0x24
1000157e:	4286      	cmp	r6, r0
10001580:	d8db      	bhi.n	1000153a <best_effort_wfe_or_timeout+0x1a>
10001582:	6a9b      	ldr	r3, [r3, #40]	; 0x28
10001584:	42bb      	cmp	r3, r7
10001586:	d2df      	bcs.n	10001548 <best_effort_wfe_or_timeout+0x28>
10001588:	1a30      	subs	r0, r6, r0
1000158a:	bf18      	it	ne
1000158c:	2001      	movne	r0, #1
1000158e:	b003      	add	sp, #12
10001590:	e8bd 83f0 	ldmia.w	sp!, {r4, r5, r6, r7, r8, r9, pc}
10001594:	f000 f84c 	bl	10001630 <time_us_64>
10001598:	4287      	cmp	r7, r0
1000159a:	eb66 0101 	sbc.w	r1, r6, r1
1000159e:	2900      	cmp	r1, #0
100015a0:	db13      	blt.n	100015ca <best_effort_wfe_or_timeout+0xaa>
100015a2:	4b15      	ldr	r3, [pc, #84]	; (100015f8 <best_effort_wfe_or_timeout+0xd8>)
100015a4:	4628      	mov	r0, r5
100015a6:	e9cd 3400 	strd	r3, r4, [sp]
100015aa:	463a      	mov	r2, r7
100015ac:	4633      	mov	r3, r6
100015ae:	f7ff ff13 	bl	100013d8 <alarm_pool_add_alarm_at_force_in_context>
100015b2:	1e01      	subs	r1, r0, #0
100015b4:	dd09      	ble.n	100015ca <best_effort_wfe_or_timeout+0xaa>
100015b6:	4b0e      	ldr	r3, [pc, #56]	; (100015f0 <best_effort_wfe_or_timeout+0xd0>)
100015b8:	6a5a      	ldr	r2, [r3, #36]	; 0x24
100015ba:	4296      	cmp	r6, r2
100015bc:	d815      	bhi.n	100015ea <best_effort_wfe_or_timeout+0xca>
100015be:	6a9b      	ldr	r3, [r3, #40]	; 0x28
100015c0:	42bb      	cmp	r3, r7
100015c2:	d310      	bcc.n	100015e6 <best_effort_wfe_or_timeout+0xc6>
100015c4:	480b      	ldr	r0, [pc, #44]	; (100015f4 <best_effort_wfe_or_timeout+0xd4>)
100015c6:	f7ff ff69 	bl	1000149c <alarm_pool_cancel_alarm>
100015ca:	4b09      	ldr	r3, [pc, #36]	; (100015f0 <best_effort_wfe_or_timeout+0xd0>)
100015cc:	6a58      	ldr	r0, [r3, #36]	; 0x24
100015ce:	4286      	cmp	r6, r0
100015d0:	d8b3      	bhi.n	1000153a <best_effort_wfe_or_timeout+0x1a>
100015d2:	6a9b      	ldr	r3, [r3, #40]	; 0x28
100015d4:	42bb      	cmp	r3, r7
100015d6:	d2b7      	bcs.n	10001548 <best_effort_wfe_or_timeout+0x28>
100015d8:	e7d6      	b.n	10001588 <best_effort_wfe_or_timeout+0x68>
100015da:	1a40      	subs	r0, r0, r1
100015dc:	bf18      	it	ne
100015de:	2001      	movne	r0, #1
100015e0:	b003      	add	sp, #12
100015e2:	e8bd 83f0 	ldmia.w	sp!, {r4, r5, r6, r7, r8, r9, pc}
100015e6:	4296      	cmp	r6, r2
100015e8:	d1ec      	bne.n	100015c4 <best_effort_wfe_or_timeout+0xa4>
100015ea:	bf20      	wfe
100015ec:	e7ea      	b.n	100015c4 <best_effort_wfe_or_timeout+0xa4>
100015ee:	bf00      	nop
100015f0:	400b0000 	.word	0x400b0000
100015f4:	2000121c 	.word	0x2000121c
100015f8:	100011c1 	.word	0x100011c1

100015fc <timer_hardware_alarm_claim>:
100015fc:	b410      	push	{r4}
100015fe:	4b05      	ldr	r3, [pc, #20]	; (10001614 <timer_hardware_alarm_claim+0x18>)
10001600:	4c05      	ldr	r4, [pc, #20]	; (10001618 <timer_hardware_alarm_claim+0x1c>)
10001602:	4a06      	ldr	r2, [pc, #24]	; (1000161c <timer_hardware_alarm_claim+0x20>)
10001604:	42a0      	cmp	r0, r4
10001606:	bf14      	ite	ne
10001608:	4618      	movne	r0, r3
1000160a:	1c58      	addeq	r0, r3, #1
1000160c:	f85d 4b04 	ldr.w	r4, [sp], #4
10001610:	f7ff b83e 	b.w	10000690 <hw_claim_or_assert>
10001614:	20001a30 	.word	0x20001a30
10001618:	400b8000 	.word	0x400b8000
1000161c:	10007e54 	.word	0x10007e54

10001620 <timer_time_us_64>:
10001620:	6a41      	ldr	r1, [r0, #36]	; 0x24
10001622:	460b      	mov	r3, r1
10001624:	6a82      	ldr	r2, [r0, #40]	; 0x28
10001626:	6a41      	ldr	r1, [r0, #36]	; 0x24
10001628:	428b      	cmp	r3, r1
1000162a:	d1fa      	bne.n	10001622 <timer_time_us_64+0x2>
1000162c:	4610      	mov	r0, r2
1000162e:	4770      	bx	lr

10001630 <time_us_64>:
10001630:	4b03      	ldr	r3, [pc, #12]	; (10001640 <time_us_64+0x10>)
10001632:	6a59      	ldr	r1, [r3, #36]	; 0x24
10001634:	460a      	mov	r2, r1
10001636:	6a98      	ldr	r0, [r3, #40]	; 0x28
10001638:	6a59      	ldr	r1, [r3, #36]	; 0x24
1000163a:	4291      	cmp	r1, r2
1000163c:	d1fa      	bne.n	10001634 <time_us_64+0x4>
1000163e:	4770      	bx	lr
10001640:	400b0000 	.word	0x400b0000

10001644 <clock_configure_undivided>:
10001644:	eb00 0c40 	add.w	ip, r0, r0, lsl #1
10001648:	ea4f 0c8c 	mov.w	ip, ip, lsl #2
1000164c:	f10c 4c80 	add.w	ip, ip, #1073741824	; 0x40000000
10001650:	f50c 3c80 	add.w	ip, ip, #65536	; 0x10000
10001654:	b570      	push	{r4, r5, r6, lr}
10001656:	f8dc 4004 	ldr.w	r4, [ip, #4]
1000165a:	f1a0 0e04 	sub.w	lr, r0, #4
1000165e:	f5b4 3f80 	cmp.w	r4, #65536	; 0x10000
10001662:	bf38      	it	cc
10001664:	f44f 3480 	movcc.w	r4, #65536	; 0x10000
10001668:	fa5f fe8e 	uxtb.w	lr, lr
1000166c:	bf38      	it	cc
1000166e:	f8cc 4004 	strcc.w	r4, [ip, #4]
10001672:	f1be 0f01 	cmp.w	lr, #1
10001676:	d929      	bls.n	100016cc <clock_configure_undivided+0x88>
10001678:	f44f 6600 	mov.w	r6, #2048	; 0x800
1000167c:	4d24      	ldr	r5, [pc, #144]	; (10001710 <clock_configure_undivided+0xcc>)
1000167e:	f50c 5440 	add.w	r4, ip, #12288	; 0x3000
10001682:	6026      	str	r6, [r4, #0]
10001684:	f855 6020 	ldr.w	r6, [r5, r0, lsl #2]
10001688:	b9be      	cbnz	r6, 100016ba <clock_configure_undivided+0x76>
1000168a:	f8dc 4000 	ldr.w	r4, [ip]
1000168e:	f50c 5680 	add.w	r6, ip, #4096	; 0x1000
10001692:	ea84 1242 	eor.w	r2, r4, r2, lsl #5
10001696:	f002 02e0 	and.w	r2, r2, #224	; 0xe0
1000169a:	f1be 0f01 	cmp.w	lr, #1
1000169e:	6032      	str	r2, [r6, #0]
100016a0:	d928      	bls.n	100016f4 <clock_configure_undivided+0xb0>
100016a2:	f44f 6100 	mov.w	r1, #2048	; 0x800
100016a6:	f845 3020 	str.w	r3, [r5, r0, lsl #2]
100016aa:	f44f 3380 	mov.w	r3, #65536	; 0x10000
100016ae:	f50c 5200 	add.w	r2, ip, #8192	; 0x2000
100016b2:	6011      	str	r1, [r2, #0]
100016b4:	f8cc 3004 	str.w	r3, [ip, #4]
100016b8:	bd70      	pop	{r4, r5, r6, pc}
100016ba:	696c      	ldr	r4, [r5, #20]
100016bc:	fbb4 f4f6 	udiv	r4, r4, r6
100016c0:	3401      	adds	r4, #1
100016c2:	eb04 0444 	add.w	r4, r4, r4, lsl #1
100016c6:	3c03      	subs	r4, #3
100016c8:	d2fd      	bcs.n	100016c6 <clock_configure_undivided+0x82>
100016ca:	e7de      	b.n	1000168a <clock_configure_undivided+0x46>
100016cc:	2901      	cmp	r1, #1
100016ce:	d1d3      	bne.n	10001678 <clock_configure_undivided+0x34>
100016d0:	2503      	movs	r5, #3
100016d2:	f50c 5440 	add.w	r4, ip, #12288	; 0x3000
100016d6:	6025      	str	r5, [r4, #0]
100016d8:	f8dc 4008 	ldr.w	r4, [ip, #8]
100016dc:	07e4      	lsls	r4, r4, #31
100016de:	d5fb      	bpl.n	100016d8 <clock_configure_undivided+0x94>
100016e0:	f8dc 4000 	ldr.w	r4, [ip]
100016e4:	f50c 5680 	add.w	r6, ip, #4096	; 0x1000
100016e8:	ea84 1242 	eor.w	r2, r4, r2, lsl #5
100016ec:	f002 02e0 	and.w	r2, r2, #224	; 0xe0
100016f0:	4d07      	ldr	r5, [pc, #28]	; (10001710 <clock_configure_undivided+0xcc>)
100016f2:	6032      	str	r2, [r6, #0]
100016f4:	2201      	movs	r2, #1
100016f6:	f8dc 4000 	ldr.w	r4, [ip]
100016fa:	404c      	eors	r4, r1
100016fc:	f004 0403 	and.w	r4, r4, #3
10001700:	6034      	str	r4, [r6, #0]
10001702:	fa02 f101 	lsl.w	r1, r2, r1
10001706:	f8dc 2008 	ldr.w	r2, [ip, #8]
1000170a:	420a      	tst	r2, r1
1000170c:	d0fb      	beq.n	10001706 <clock_configure_undivided+0xc2>
1000170e:	e7c8      	b.n	100016a2 <clock_configure_undivided+0x5e>
10001710:	20001a34 	.word	0x20001a34

10001714 <clock_get_hz>:
10001714:	4b01      	ldr	r3, [pc, #4]	; (1000171c <clock_get_hz+0x8>)
10001716:	f853 0020 	ldr.w	r0, [r3, r0, lsl #2]
1000171a:	4770      	bx	lr
1000171c:	20001a34 	.word	0x20001a34

10001720 <pll_init>:
10001720:	b470      	push	{r4, r5, r6}
10001722:	9c03      	ldr	r4, [sp, #12]
10001724:	6805      	ldr	r5, [r0, #0]
10001726:	0324      	lsls	r4, r4, #12
10001728:	ea44 4303 	orr.w	r3, r4, r3, lsl #16
1000172c:	4c1b      	ldr	r4, [pc, #108]	; (1000179c <pll_init+0x7c>)
1000172e:	2d00      	cmp	r5, #0
10001730:	fbb4 f4f1 	udiv	r4, r4, r1
10001734:	fbb2 f2f4 	udiv	r2, r2, r4
10001738:	db1f      	blt.n	1000177a <pll_init+0x5a>
1000173a:	4d19      	ldr	r5, [pc, #100]	; (100017a0 <pll_init+0x80>)
1000173c:	4c19      	ldr	r4, [pc, #100]	; (100017a4 <pll_init+0x84>)
1000173e:	42a8      	cmp	r0, r5
10001740:	bf0c      	ite	eq
10001742:	f44f 4500 	moveq.w	r5, #32768	; 0x8000
10001746:	f44f 4580 	movne.w	r5, #16384	; 0x4000
1000174a:	4e17      	ldr	r6, [pc, #92]	; (100017a8 <pll_init+0x88>)
1000174c:	6025      	str	r5, [r4, #0]
1000174e:	f504 5480 	add.w	r4, r4, #4096	; 0x1000
10001752:	6025      	str	r5, [r4, #0]
10001754:	68b4      	ldr	r4, [r6, #8]
10001756:	ea35 0404 	bics.w	r4, r5, r4
1000175a:	d1fb      	bne.n	10001754 <pll_init+0x34>
1000175c:	2521      	movs	r5, #33	; 0x21
1000175e:	f500 5440 	add.w	r4, r0, #12288	; 0x3000
10001762:	3404      	adds	r4, #4
10001764:	6001      	str	r1, [r0, #0]
10001766:	6082      	str	r2, [r0, #8]
10001768:	6025      	str	r5, [r4, #0]
1000176a:	6802      	ldr	r2, [r0, #0]
1000176c:	2a00      	cmp	r2, #0
1000176e:	dafc      	bge.n	1000176a <pll_init+0x4a>
10001770:	2208      	movs	r2, #8
10001772:	60c3      	str	r3, [r0, #12]
10001774:	6022      	str	r2, [r4, #0]
10001776:	bc70      	pop	{r4, r5, r6}
10001778:	4770      	bx	lr
1000177a:	6804      	ldr	r4, [r0, #0]
1000177c:	f004 043f 	and.w	r4, r4, #63	; 0x3f
10001780:	428c      	cmp	r4, r1
10001782:	d1da      	bne.n	1000173a <pll_init+0x1a>
10001784:	6884      	ldr	r4, [r0, #8]
10001786:	f3c4 040b 	ubfx	r4, r4, #0, #12
1000178a:	4294      	cmp	r4, r2
1000178c:	d1d5      	bne.n	1000173a <pll_init+0x1a>
1000178e:	68c4      	ldr	r4, [r0, #12]
10001790:	f404 24ee 	and.w	r4, r4, #487424	; 0x77000
10001794:	429c      	cmp	r4, r3
10001796:	d1d0      	bne.n	1000173a <pll_init+0x1a>
10001798:	e7ed      	b.n	10001776 <pll_init+0x56>
1000179a:	bf00      	nop
1000179c:	00b71b00 	.word	0x00b71b00
100017a0:	40058000 	.word	0x40058000
100017a4:	40022000 	.word	0x40022000
100017a8:	40020000 	.word	0x40020000

100017ac <watchdog_reboot>:
100017ac:	b430      	push	{r4, r5}
100017ae:	f04f 4480 	mov.w	r4, #1073741824	; 0x40000000
100017b2:	4b1d      	ldr	r3, [pc, #116]	; (10001828 <watchdog_reboot+0x7c>)
100017b4:	601c      	str	r4, [r3, #0]
100017b6:	b1e0      	cbz	r0, 100017f2 <watchdog_reboot+0x46>
100017b8:	4c1c      	ldr	r4, [pc, #112]	; (1000182c <watchdog_reboot+0x80>)
100017ba:	f5a3 5340 	sub.w	r3, r3, #12288	; 0x3000
100017be:	61dc      	str	r4, [r3, #28]
100017c0:	4c1b      	ldr	r4, [pc, #108]	; (10001830 <watchdog_reboot+0x84>)
100017c2:	f040 0001 	orr.w	r0, r0, #1
100017c6:	4044      	eors	r4, r0
100017c8:	621c      	str	r4, [r3, #32]
100017ca:	6259      	str	r1, [r3, #36]	; 0x24
100017cc:	6298      	str	r0, [r3, #40]	; 0x28
100017ce:	f04f 4580 	mov.w	r5, #1073741824	; 0x40000000
100017d2:	f04f 61e0 	mov.w	r1, #117440512	; 0x7000000
100017d6:	4b14      	ldr	r3, [pc, #80]	; (10001828 <watchdog_reboot+0x7c>)
100017d8:	4816      	ldr	r0, [pc, #88]	; (10001834 <watchdog_reboot+0x88>)
100017da:	4c17      	ldr	r4, [pc, #92]	; (10001838 <watchdog_reboot+0x8c>)
100017dc:	601d      	str	r5, [r3, #0]
100017de:	6084      	str	r4, [r0, #8]
100017e0:	6019      	str	r1, [r3, #0]
100017e2:	b94a      	cbnz	r2, 100017f8 <watchdog_reboot+0x4c>
100017e4:	bc30      	pop	{r4, r5}
100017e6:	f04f 4200 	mov.w	r2, #2147483648	; 0x80000000
100017ea:	f5a3 5380 	sub.w	r3, r3, #4096	; 0x1000
100017ee:	601a      	str	r2, [r3, #0]
100017f0:	4770      	bx	lr
100017f2:	4b12      	ldr	r3, [pc, #72]	; (1000183c <watchdog_reboot+0x90>)
100017f4:	61d8      	str	r0, [r3, #28]
100017f6:	e7ea      	b.n	100017ce <watchdog_reboot+0x22>
100017f8:	f44f 737a 	mov.w	r3, #1000	; 0x3e8
100017fc:	fb03 f202 	mul.w	r2, r3, r2
10001800:	f1b2 7f80 	cmp.w	r2, #16777216	; 0x1000000
10001804:	d209      	bcs.n	1000181a <watchdog_reboot+0x6e>
10001806:	4b0e      	ldr	r3, [pc, #56]	; (10001840 <watchdog_reboot+0x94>)
10001808:	601a      	str	r2, [r3, #0]
1000180a:	f04f 4180 	mov.w	r1, #1073741824	; 0x40000000
1000180e:	bc30      	pop	{r4, r5}
10001810:	480a      	ldr	r0, [pc, #40]	; (1000183c <watchdog_reboot+0x90>)
10001812:	4b0c      	ldr	r3, [pc, #48]	; (10001844 <watchdog_reboot+0x98>)
10001814:	6042      	str	r2, [r0, #4]
10001816:	6019      	str	r1, [r3, #0]
10001818:	4770      	bx	lr
1000181a:	f06f 437f 	mvn.w	r3, #4278190080	; 0xff000000
1000181e:	4908      	ldr	r1, [pc, #32]	; (10001840 <watchdog_reboot+0x94>)
10001820:	461a      	mov	r2, r3
10001822:	600b      	str	r3, [r1, #0]
10001824:	e7f1      	b.n	1000180a <watchdog_reboot+0x5e>
10001826:	bf00      	nop
10001828:	400db000 	.word	0x400db000
1000182c:	b007c0d3 	.word	0xb007c0d3
10001830:	4ff83f2d 	.word	0x4ff83f2d
10001834:	4001a000 	.word	0x4001a000
10001838:	01fffff3 	.word	0x01fffff3
1000183c:	400d8000 	.word	0x400d8000
10001840:	20001e98 	.word	0x20001e98
10001844:	400da000 	.word	0x400da000

10001848 <tick_start>:
10001848:	2301      	movs	r3, #1
1000184a:	eb00 0040 	add.w	r0, r0, r0, lsl #1
1000184e:	0080      	lsls	r0, r0, #2
10001850:	f100 4080 	add.w	r0, r0, #1073741824	; 0x40000000
10001854:	f500 1084 	add.w	r0, r0, #1081344	; 0x108000
10001858:	6041      	str	r1, [r0, #4]
1000185a:	6003      	str	r3, [r0, #0]
1000185c:	4770      	bx	lr
1000185e:	bf00      	nop

10001860 <rom_reboot.constprop.0.isra.0>:
10001860:	b510      	push	{r4, lr}
10001862:	2400      	movs	r4, #0
10001864:	b082      	sub	sp, #8
10001866:	460b      	mov	r3, r1
10001868:	8ae4      	ldrh	r4, [r4, #22]
1000186a:	2100      	movs	r1, #0
1000186c:	e841 f100 	tt	r1, r1
10001870:	e9cd 0300 	strd	r0, r3, [sp]
10001874:	024b      	lsls	r3, r1, #9
10001876:	bf54      	ite	pl
10001878:	2110      	movpl	r1, #16
1000187a:	2104      	movmi	r1, #4
1000187c:	f244 2052 	movw	r0, #16978	; 0x4252
10001880:	47a0      	blx	r4
10001882:	e9dd 2300 	ldrd	r2, r3, [sp]
10001886:	4686      	mov	lr, r0
10001888:	210a      	movs	r1, #10
1000188a:	f44f 7081 	mov.w	r0, #258	; 0x102
1000188e:	46f4      	mov	ip, lr
10001890:	b002      	add	sp, #8
10001892:	e8bd 4010 	ldmia.w	sp!, {r4, lr}
10001896:	4760      	bx	ip

10001898 <rom_func_lookup>:
10001898:	2300      	movs	r3, #0
1000189a:	8adb      	ldrh	r3, [r3, #22]
1000189c:	2200      	movs	r2, #0
1000189e:	e842 f200 	tt	r2, r2
100018a2:	0252      	lsls	r2, r2, #9
100018a4:	d401      	bmi.n	100018aa <rom_func_lookup+0x12>
100018a6:	2110      	movs	r1, #16
100018a8:	4718      	bx	r3
100018aa:	2104      	movs	r1, #4
100018ac:	4718      	bx	r3
100018ae:	bf00      	nop

100018b0 <rom_reset_usb_boot_extra>:
100018b0:	b508      	push	{r3, lr}
100018b2:	460b      	mov	r3, r1
100018b4:	1e01      	subs	r1, r0, #0
100018b6:	db02      	blt.n	100018be <rom_reset_usb_boot_extra+0xe>
100018b8:	b122      	cbz	r2, 100018c4 <rom_reset_usb_boot_extra+0x14>
100018ba:	f043 0330 	orr.w	r3, r3, #48	; 0x30
100018be:	4618      	mov	r0, r3
100018c0:	f7ff ffce 	bl	10001860 <rom_reboot.constprop.0.isra.0>
100018c4:	f043 0320 	orr.w	r3, r3, #32
100018c8:	e7f9      	b.n	100018be <rom_reset_usb_boot_extra+0xe>
100018ca:	bf00      	nop

100018cc <runtime_init_bootrom_locking_enable>:
100018cc:	4a03      	ldr	r2, [pc, #12]	; (100018dc <runtime_init_bootrom_locking_enable+0x10>)
100018ce:	f8d2 3828 	ldr.w	r3, [r2, #2088]	; 0x828
100018d2:	2b00      	cmp	r3, #0
100018d4:	d0fb      	beq.n	100018ce <runtime_init_bootrom_locking_enable+0x2>
100018d6:	f3bf 8f5f 	dmb	sy
100018da:	4770      	bx	lr
100018dc:	400e0000 	.word	0x400e0000

100018e0 <runtime_init_boot_locks_reset>:
100018e0:	2100      	movs	r1, #0
100018e2:	4b04      	ldr	r3, [pc, #16]	; (100018f4 <runtime_init_boot_locks_reset+0x14>)
100018e4:	4a04      	ldr	r2, [pc, #16]	; (100018f8 <runtime_init_boot_locks_reset+0x18>)
100018e6:	f3bf 8f5f 	dmb	sy
100018ea:	f843 1b04 	str.w	r1, [r3], #4
100018ee:	4293      	cmp	r3, r2
100018f0:	d1f9      	bne.n	100018e6 <runtime_init_boot_locks_reset+0x6>
100018f2:	4770      	bx	lr
100018f4:	400e080c 	.word	0x400e080c
100018f8:	400e082c 	.word	0x400e082c

100018fc <xosc_init>:
100018fc:	b410      	push	{r4}
100018fe:	f44f 708d 	mov.w	r0, #282	; 0x11a
10001902:	f44f 642a 	mov.w	r4, #2720	; 0xaa0
10001906:	4a06      	ldr	r2, [pc, #24]	; (10001920 <xosc_init+0x24>)
10001908:	4b06      	ldr	r3, [pc, #24]	; (10001924 <xosc_init+0x28>)
1000190a:	4907      	ldr	r1, [pc, #28]	; (10001928 <xosc_init+0x2c>)
1000190c:	6014      	str	r4, [r2, #0]
1000190e:	60d0      	str	r0, [r2, #12]
10001910:	6019      	str	r1, [r3, #0]
10001912:	6853      	ldr	r3, [r2, #4]
10001914:	2b00      	cmp	r3, #0
10001916:	dafc      	bge.n	10001912 <xosc_init+0x16>
10001918:	f85d 4b04 	ldr.w	r4, [sp], #4
1000191c:	4770      	bx	lr
1000191e:	bf00      	nop
10001920:	40048000 	.word	0x40048000
10001924:	4004a000 	.word	0x4004a000
10001928:	00fab000 	.word	0x00fab000

1000192c <first_per_core_initializer>:
1000192c:	4770      	bx	lr
1000192e:	bf00      	nop

10001930 <hard_assertion_failure>:
10001930:	b508      	push	{r3, lr}
10001932:	4801      	ldr	r0, [pc, #4]	; (10001938 <hard_assertion_failure+0x8>)
10001934:	f7fe fe78 	bl	10000628 <panic>
10001938:	10007e78 	.word	0x10007e78

1000193c <runtime_run_initializers>:
1000193c:	b538      	push	{r3, r4, r5, lr}
1000193e:	4c05      	ldr	r4, [pc, #20]	; (10001954 <runtime_run_initializers+0x18>)
10001940:	4d05      	ldr	r5, [pc, #20]	; (10001958 <runtime_run_initializers+0x1c>)
10001942:	42ac      	cmp	r4, r5
10001944:	d204      	bcs.n	10001950 <runtime_run_initializers+0x14>
10001946:	f854 3b04 	ldr.w	r3, [r4], #4
1000194a:	4798      	blx	r3
1000194c:	42ac      	cmp	r4, r5
1000194e:	d3fa      	bcc.n	10001946 <runtime_run_initializers+0xa>
10001950:	bd38      	pop	{r3, r4, r5, pc}
10001952:	bf00      	nop
10001954:	10007d90 	.word	0x10007d90
10001958:	10007dd0 	.word	0x10007dd0

1000195c <runtime_run_per_core_initializers>:
1000195c:	b538      	push	{r3, r4, r5, lr}
1000195e:	4c05      	ldr	r4, [pc, #20]	; (10001974 <runtime_run_per_core_initializers+0x18>)
10001960:	4d05      	ldr	r5, [pc, #20]	; (10001978 <runtime_run_per_core_initializers+0x1c>)
10001962:	42ac      	cmp	r4, r5
10001964:	d204      	bcs.n	10001970 <runtime_run_per_core_initializers+0x14>
10001966:	f854 3b04 	ldr.w	r3, [r4], #4
1000196a:	4798      	blx	r3
1000196c:	42ac      	cmp	r4, r5
1000196e:	d3fa      	bcc.n	10001966 <runtime_run_per_core_initializers+0xa>
10001970:	bd38      	pop	{r3, r4, r5, pc}
10001972:	bf00      	nop
10001974:	10007dbc 	.word	0x10007dbc
10001978:	10007dd0 	.word	0x10007dd0

1000197c <runtime_init_early_resets>:
1000197c:	b410      	push	{r4}
1000197e:	4807      	ldr	r0, [pc, #28]	; (1000199c <runtime_init_early_resets+0x20>)
10001980:	4c07      	ldr	r4, [pc, #28]	; (100019a0 <runtime_init_early_resets+0x24>)
10001982:	4b08      	ldr	r3, [pc, #32]	; (100019a4 <runtime_init_early_resets+0x28>)
10001984:	4a08      	ldr	r2, [pc, #32]	; (100019a8 <runtime_init_early_resets+0x2c>)
10001986:	4909      	ldr	r1, [pc, #36]	; (100019ac <runtime_init_early_resets+0x30>)
10001988:	6004      	str	r4, [r0, #0]
1000198a:	601a      	str	r2, [r3, #0]
1000198c:	688b      	ldr	r3, [r1, #8]
1000198e:	ea32 0303 	bics.w	r3, r2, r3
10001992:	d1fb      	bne.n	1000198c <runtime_init_early_resets+0x10>
10001994:	f85d 4b04 	ldr.w	r4, [sp], #4
10001998:	4770      	bx	lr
1000199a:	bf00      	nop
1000199c:	40022000 	.word	0x40022000
100019a0:	efef3b7f 	.word	0xefef3b7f
100019a4:	40023000 	.word	0x40023000
100019a8:	03f3fff6 	.word	0x03f3fff6
100019ac:	40020000 	.word	0x40020000

100019b0 <runtime_init_usb_power_down>:
100019b0:	4b04      	ldr	r3, [pc, #16]	; (100019c4 <runtime_init_usb_power_down+0x14>)
100019b2:	6cdb      	ldr	r3, [r3, #76]	; 0x4c
100019b4:	f5b3 4f00 	cmp.w	r3, #32768	; 0x8000
100019b8:	d103      	bne.n	100019c2 <runtime_init_usb_power_down+0x12>
100019ba:	f44f 2280 	mov.w	r2, #262144	; 0x40000
100019be:	4b02      	ldr	r3, [pc, #8]	; (100019c8 <runtime_init_usb_power_down+0x18>)
100019c0:	64da      	str	r2, [r3, #76]	; 0x4c
100019c2:	4770      	bx	lr
100019c4:	50110000 	.word	0x50110000
100019c8:	50112000 	.word	0x50112000

100019cc <runtime_init_per_core_enable_coprocessors>:
100019cc:	f04f 22e0 	mov.w	r2, #3758153728	; 0xe000e000
100019d0:	4b04      	ldr	r3, [pc, #16]	; (100019e4 <runtime_init_per_core_enable_coprocessors+0x18>)
100019d2:	f8d2 1d88 	ldr.w	r1, [r2, #3464]	; 0xd88
100019d6:	430b      	orrs	r3, r1
100019d8:	f8c2 3d88 	str.w	r3, [r2, #3464]	; 0xd88
100019dc:	ee10 0430 	dcp_rcmp r0
100019e0:	4770      	bx	lr
100019e2:	bf00      	nop
100019e4:	00300303 	.word	0x00300303

100019e8 <runtime_init_post_clock_resets>:
100019e8:	f06f 4160 	mvn.w	r1, #3758096384	; 0xe0000000
100019ec:	4b04      	ldr	r3, [pc, #16]	; (10001a00 <runtime_init_post_clock_resets+0x18>)
100019ee:	4a05      	ldr	r2, [pc, #20]	; (10001a04 <runtime_init_post_clock_resets+0x1c>)
100019f0:	6019      	str	r1, [r3, #0]
100019f2:	6893      	ldr	r3, [r2, #8]
100019f4:	43db      	mvns	r3, r3
100019f6:	f033 4360 	bics.w	r3, r3, #3758096384	; 0xe0000000
100019fa:	d1fa      	bne.n	100019f2 <runtime_init_post_clock_resets+0xa>
100019fc:	4770      	bx	lr
100019fe:	bf00      	nop
10001a00:	40023000 	.word	0x40023000
10001a04:	40020000 	.word	0x40020000

10001a08 <runtime_init_bootrom_reset>:
10001a08:	b510      	push	{r4, lr}
10001a0a:	f245 2053 	movw	r0, #21075	; 0x5253
10001a0e:	f7ff ff43 	bl	10001898 <rom_func_lookup>
10001a12:	e8bd 4010 	ldmia.w	sp!, {r4, lr}
10001a16:	4603      	mov	r3, r0
10001a18:	2004      	movs	r0, #4
10001a1a:	4718      	bx	r3

10001a1c <runtime_init_per_core_bootrom_reset>:
10001a1c:	b510      	push	{r4, lr}
10001a1e:	f245 2053 	movw	r0, #21075	; 0x5253
10001a22:	f7ff ff39 	bl	10001898 <rom_func_lookup>
10001a26:	e8bd 4010 	ldmia.w	sp!, {r4, lr}
10001a2a:	4603      	mov	r3, r0
10001a2c:	2001      	movs	r0, #1
10001a2e:	4718      	bx	r3

10001a30 <runtime_init_spin_locks_reset>:
10001a30:	f7fe bed8 	b.w	100007e4 <spin_locks_reset>

10001a34 <runtime_init_install_ram_vector_table>:
10001a34:	b510      	push	{r4, lr}
10001a36:	4b05      	ldr	r3, [pc, #20]	; (10001a4c <runtime_init_install_ram_vector_table+0x18>)
10001a38:	4c05      	ldr	r4, [pc, #20]	; (10001a50 <runtime_init_install_ram_vector_table+0x1c>)
10001a3a:	f44f 7288 	mov.w	r2, #272	; 0x110
10001a3e:	4618      	mov	r0, r3
10001a40:	68a1      	ldr	r1, [r4, #8]
10001a42:	f006 f853 	bl	10007aec <memcpy>
10001a46:	60a0      	str	r0, [r4, #8]
10001a48:	bd10      	pop	{r4, pc}
10001a4a:	bf00      	nop
10001a4c:	20000000 	.word	0x20000000
10001a50:	e000ed00 	.word	0xe000ed00

10001a54 <runtime_init_clocks>:
10001a54:	2300      	movs	r3, #0
10001a56:	b5f0      	push	{r4, r5, r6, r7, lr}
10001a58:	4c2b      	ldr	r4, [pc, #172]	; (10001b08 <runtime_init_clocks+0xb4>)
10001a5a:	b083      	sub	sp, #12
10001a5c:	f8c4 3084 	str.w	r3, [r4, #132]	; 0x84
10001a60:	f7ff ff4c 	bl	100018fc <xosc_init>
10001a64:	2201      	movs	r2, #1
10001a66:	4b29      	ldr	r3, [pc, #164]	; (10001b0c <runtime_init_clocks+0xb8>)
10001a68:	63da      	str	r2, [r3, #60]	; 0x3c
10001a6a:	6c63      	ldr	r3, [r4, #68]	; 0x44
10001a6c:	2b01      	cmp	r3, #1
10001a6e:	d1fc      	bne.n	10001a6a <runtime_init_clocks+0x16>
10001a70:	2103      	movs	r1, #3
10001a72:	4a26      	ldr	r2, [pc, #152]	; (10001b0c <runtime_init_clocks+0xb8>)
10001a74:	4b24      	ldr	r3, [pc, #144]	; (10001b08 <runtime_init_clocks+0xb4>)
10001a76:	6311      	str	r1, [r2, #48]	; 0x30
10001a78:	6b9d      	ldr	r5, [r3, #56]	; 0x38
10001a7a:	2d01      	cmp	r5, #1
10001a7c:	d1fc      	bne.n	10001a78 <runtime_init_clocks+0x24>
10001a7e:	2305      	movs	r3, #5
10001a80:	2702      	movs	r7, #2
10001a82:	461e      	mov	r6, r3
10001a84:	2400      	movs	r4, #0
10001a86:	4629      	mov	r1, r5
10001a88:	4a21      	ldr	r2, [pc, #132]	; (10001b10 <runtime_init_clocks+0xbc>)
10001a8a:	4822      	ldr	r0, [pc, #136]	; (10001b14 <runtime_init_clocks+0xc0>)
10001a8c:	9700      	str	r7, [sp, #0]
10001a8e:	f7ff fe47 	bl	10001720 <pll_init>
10001a92:	4629      	mov	r1, r5
10001a94:	4633      	mov	r3, r6
10001a96:	4a20      	ldr	r2, [pc, #128]	; (10001b18 <runtime_init_clocks+0xc4>)
10001a98:	4820      	ldr	r0, [pc, #128]	; (10001b1c <runtime_init_clocks+0xc8>)
10001a9a:	9600      	str	r6, [sp, #0]
10001a9c:	f7ff fe40 	bl	10001720 <pll_init>
10001aa0:	4639      	mov	r1, r7
10001aa2:	4622      	mov	r2, r4
10001aa4:	2004      	movs	r0, #4
10001aa6:	4b1e      	ldr	r3, [pc, #120]	; (10001b20 <runtime_init_clocks+0xcc>)
10001aa8:	f7ff fdcc 	bl	10001644 <clock_configure_undivided>
10001aac:	4629      	mov	r1, r5
10001aae:	4622      	mov	r2, r4
10001ab0:	4630      	mov	r0, r6
10001ab2:	4b1c      	ldr	r3, [pc, #112]	; (10001b24 <runtime_init_clocks+0xd0>)
10001ab4:	f7ff fdc6 	bl	10001644 <clock_configure_undivided>
10001ab8:	4622      	mov	r2, r4
10001aba:	2008      	movs	r0, #8
10001abc:	4621      	mov	r1, r4
10001abe:	4b1a      	ldr	r3, [pc, #104]	; (10001b28 <runtime_init_clocks+0xd4>)
10001ac0:	f7ff fdc0 	bl	10001644 <clock_configure_undivided>
10001ac4:	4622      	mov	r2, r4
10001ac6:	2009      	movs	r0, #9
10001ac8:	4621      	mov	r1, r4
10001aca:	4b17      	ldr	r3, [pc, #92]	; (10001b28 <runtime_init_clocks+0xd4>)
10001acc:	f7ff fdba 	bl	10001644 <clock_configure_undivided>
10001ad0:	4622      	mov	r2, r4
10001ad2:	2006      	movs	r0, #6
10001ad4:	4621      	mov	r1, r4
10001ad6:	4b13      	ldr	r3, [pc, #76]	; (10001b24 <runtime_init_clocks+0xd0>)
10001ad8:	f7ff fdb4 	bl	10001644 <clock_configure_undivided>
10001adc:	4b11      	ldr	r3, [pc, #68]	; (10001b24 <runtime_init_clocks+0xd0>)
10001ade:	4622      	mov	r2, r4
10001ae0:	2007      	movs	r0, #7
10001ae2:	4621      	mov	r1, r4
10001ae4:	f7ff fdae 	bl	10001644 <clock_configure_undivided>
10001ae8:	2004      	movs	r0, #4
10001aea:	f7ff fe13 	bl	10001714 <clock_get_hz>
10001aee:	4d0f      	ldr	r5, [pc, #60]	; (10001b2c <runtime_init_clocks+0xd8>)
10001af0:	fba5 3500 	umull	r3, r5, r5, r0
10001af4:	0cad      	lsrs	r5, r5, #18
10001af6:	b2e0      	uxtb	r0, r4
10001af8:	4629      	mov	r1, r5
10001afa:	3401      	adds	r4, #1
10001afc:	f7ff fea4 	bl	10001848 <tick_start>
10001b00:	2c06      	cmp	r4, #6
10001b02:	d1f8      	bne.n	10001af6 <runtime_init_clocks+0xa2>
10001b04:	b003      	add	sp, #12
10001b06:	bdf0      	pop	{r4, r5, r6, r7, pc}
10001b08:	40010000 	.word	0x40010000
10001b0c:	40013000 	.word	0x40013000
10001b10:	59682f00 	.word	0x59682f00
10001b14:	40050000 	.word	0x40050000
10001b18:	47868c00 	.word	0x47868c00
10001b1c:	40058000 	.word	0x40058000
10001b20:	00b71b00 	.word	0x00b71b00
10001b24:	08f0d180 	.word	0x08f0d180
10001b28:	02dc6c00 	.word	0x02dc6c00
10001b2c:	431bde83 	.word	0x431bde83

10001b30 <_out_char>:
10001b30:	b900      	cbnz	r0, 10001b34 <_out_char+0x4>
10001b32:	4770      	bx	lr
10001b34:	f000 b914 	b.w	10001d60 <__wrap_putchar>

10001b38 <weak_raw_vprintf>:
10001b38:	b510      	push	{r4, lr}
10001b3a:	4b09      	ldr	r3, [pc, #36]	; (10001b60 <weak_raw_vprintf+0x28>)
10001b3c:	b084      	sub	sp, #16
10001b3e:	681c      	ldr	r4, [r3, #0]
10001b40:	b14c      	cbz	r4, 10001b56 <weak_raw_vprintf+0x1e>
10001b42:	4603      	mov	r3, r0
10001b44:	9100      	str	r1, [sp, #0]
10001b46:	f04f 32ff 	mov.w	r2, #4294967295	; 0xffffffff
10001b4a:	a903      	add	r1, sp, #12
10001b4c:	4805      	ldr	r0, [pc, #20]	; (10001b64 <weak_raw_vprintf+0x2c>)
10001b4e:	47a0      	blx	r4
10001b50:	2001      	movs	r0, #1
10001b52:	b004      	add	sp, #16
10001b54:	bd10      	pop	{r4, pc}
10001b56:	f000 f941 	bl	10001ddc <__wrap_puts>
10001b5a:	4620      	mov	r0, r4
10001b5c:	b004      	add	sp, #16
10001b5e:	bd10      	pop	{r4, pc}
10001b60:	20001e94 	.word	0x20001e94
10001b64:	10001b31 	.word	0x10001b31

10001b68 <_exit>:
10001b68:	be00      	bkpt	0x0000
10001b6a:	e7fd      	b.n	10001b68 <_exit>

10001b6c <exit>:
10001b6c:	b508      	push	{r3, lr}
10001b6e:	f7ff fffb 	bl	10001b68 <_exit>
10001b72:	bf00      	nop

10001b74 <runtime_init>:
10001b74:	b538      	push	{r3, r4, r5, lr}
10001b76:	4d06      	ldr	r5, [pc, #24]	; (10001b90 <runtime_init+0x1c>)
10001b78:	4c06      	ldr	r4, [pc, #24]	; (10001b94 <runtime_init+0x20>)
10001b7a:	f7ff fedf 	bl	1000193c <runtime_run_initializers>
10001b7e:	42ac      	cmp	r4, r5
10001b80:	d204      	bcs.n	10001b8c <runtime_init+0x18>
10001b82:	f854 3b04 	ldr.w	r3, [r4], #4
10001b86:	4798      	blx	r3
10001b88:	42ac      	cmp	r4, r5
10001b8a:	d3fa      	bcc.n	10001b82 <runtime_init+0xe>
10001b8c:	bd38      	pop	{r3, r4, r5, pc}
10001b8e:	bf00      	nop
10001b90:	10007ddc 	.word	0x10007ddc
10001b94:	10007dd0 	.word	0x10007dd0

10001b98 <stdio_out_chars_no_crlf>:
10001b98:	6803      	ldr	r3, [r0, #0]
10001b9a:	4608      	mov	r0, r1
10001b9c:	4611      	mov	r1, r2
10001b9e:	4718      	bx	r3

10001ba0 <stdio_out_chars_crlf>:
10001ba0:	7d43      	ldrb	r3, [r0, #21]
10001ba2:	e92d 47f0 	stmdb	sp!, {r4, r5, r6, r7, r8, r9, sl, lr}
10001ba6:	4682      	mov	sl, r0
10001ba8:	460f      	mov	r7, r1
10001baa:	4691      	mov	r9, r2
10001bac:	2b00      	cmp	r3, #0
10001bae:	d044      	beq.n	10001c3a <stdio_out_chars_crlf+0x9a>
10001bb0:	2a00      	cmp	r2, #0
10001bb2:	dd2a      	ble.n	10001c0a <stdio_out_chars_crlf+0x6a>
10001bb4:	2400      	movs	r4, #0
10001bb6:	2501      	movs	r5, #1
10001bb8:	4620      	mov	r0, r4
10001bba:	f8df 808c 	ldr.w	r8, [pc, #140]	; 10001c48 <stdio_out_chars_crlf+0xa8>
10001bbe:	1e4e      	subs	r6, r1, #1
10001bc0:	b32c      	cbz	r4, 10001c0e <stdio_out_chars_crlf+0x6e>
10001bc2:	7833      	ldrb	r3, [r6, #0]
10001bc4:	f816 2f01 	ldrb.w	r2, [r6, #1]!
10001bc8:	f1a3 030d 	sub.w	r3, r3, #13
10001bcc:	fab3 f383 	clz	r3, r3
10001bd0:	2a0a      	cmp	r2, #10
10001bd2:	ea4f 1353 	mov.w	r3, r3, lsr #5
10001bd6:	d020      	beq.n	10001c1a <stdio_out_chars_crlf+0x7a>
10001bd8:	462b      	mov	r3, r5
10001bda:	4599      	cmp	r9, r3
10001bdc:	f104 0401 	add.w	r4, r4, #1
10001be0:	f105 0501 	add.w	r5, r5, #1
10001be4:	dcec      	bgt.n	10001bc0 <stdio_out_chars_crlf+0x20>
10001be6:	4581      	cmp	r9, r0
10001be8:	dd05      	ble.n	10001bf6 <stdio_out_chars_crlf+0x56>
10001bea:	eba9 0100 	sub.w	r1, r9, r0
10001bee:	f8da 3000 	ldr.w	r3, [sl]
10001bf2:	4438      	add	r0, r7
10001bf4:	4798      	blx	r3
10001bf6:	444f      	add	r7, r9
10001bf8:	f817 3c01 	ldrb.w	r3, [r7, #-1]
10001bfc:	f1a3 030d 	sub.w	r3, r3, #13
10001c00:	fab3 f383 	clz	r3, r3
10001c04:	095b      	lsrs	r3, r3, #5
10001c06:	f88a 3014 	strb.w	r3, [sl, #20]
10001c0a:	e8bd 87f0 	ldmia.w	sp!, {r4, r5, r6, r7, r8, r9, sl, pc}
10001c0e:	f816 2f01 	ldrb.w	r2, [r6, #1]!
10001c12:	f89a 3014 	ldrb.w	r3, [sl, #20]
10001c16:	2a0a      	cmp	r2, #10
10001c18:	d1de      	bne.n	10001bd8 <stdio_out_chars_crlf+0x38>
10001c1a:	2b00      	cmp	r3, #0
10001c1c:	d1dc      	bne.n	10001bd8 <stdio_out_chars_crlf+0x38>
10001c1e:	42a0      	cmp	r0, r4
10001c20:	da04      	bge.n	10001c2c <stdio_out_chars_crlf+0x8c>
10001c22:	1a21      	subs	r1, r4, r0
10001c24:	f8da 3000 	ldr.w	r3, [sl]
10001c28:	4438      	add	r0, r7
10001c2a:	4798      	blx	r3
10001c2c:	4640      	mov	r0, r8
10001c2e:	2102      	movs	r1, #2
10001c30:	f8da 3000 	ldr.w	r3, [sl]
10001c34:	4798      	blx	r3
10001c36:	4628      	mov	r0, r5
10001c38:	e7ce      	b.n	10001bd8 <stdio_out_chars_crlf+0x38>
10001c3a:	4638      	mov	r0, r7
10001c3c:	f8da 3000 	ldr.w	r3, [sl]
10001c40:	4611      	mov	r1, r2
10001c42:	e8bd 47f0 	ldmia.w	sp!, {r4, r5, r6, r7, r8, r9, sl, lr}
10001c46:	4718      	bx	r3
10001c48:	10007f18 	.word	0x10007f18

10001c4c <stdio_put_string>:
10001c4c:	e92d 47f0 	stmdb	sp!, {r4, r5, r6, r7, r8, r9, sl, lr}
10001c50:	b082      	sub	sp, #8
10001c52:	460d      	mov	r5, r1
10001c54:	4692      	mov	sl, r2
10001c56:	4699      	mov	r9, r3
10001c58:	4607      	mov	r7, r0
10001c5a:	f7ff fce9 	bl	10001630 <time_us_64>
10001c5e:	4a2f      	ldr	r2, [pc, #188]	; (10001d1c <stdio_put_string+0xd0>)
10001c60:	1882      	adds	r2, r0, r2
10001c62:	f141 0300 	adc.w	r3, r1, #0
10001c66:	2b00      	cmp	r3, #0
10001c68:	bfbc      	itt	lt
10001c6a:	f04f 32ff 	movlt.w	r2, #4294967295	; 0xffffffff
10001c6e:	f06f 4300 	mvnlt.w	r3, #2147483648	; 0x80000000
10001c72:	482b      	ldr	r0, [pc, #172]	; (10001d20 <stdio_put_string+0xd4>)
10001c74:	f006 f85c 	bl	10007d30 <__mutex_try_enter_block_until_veneer>
10001c78:	1c6b      	adds	r3, r5, #1
10001c7a:	4680      	mov	r8, r0
10001c7c:	d103      	bne.n	10001c86 <stdio_put_string+0x3a>
10001c7e:	4638      	mov	r0, r7
10001c80:	f005 fffc 	bl	10007c7c <strlen>
10001c84:	4605      	mov	r5, r0
10001c86:	4b27      	ldr	r3, [pc, #156]	; (10001d24 <stdio_put_string+0xd8>)
10001c88:	4e27      	ldr	r6, [pc, #156]	; (10001d28 <stdio_put_string+0xdc>)
10001c8a:	681c      	ldr	r4, [r3, #0]
10001c8c:	4b27      	ldr	r3, [pc, #156]	; (10001d2c <stdio_put_string+0xe0>)
10001c8e:	f1b9 0f00 	cmp.w	r9, #0
10001c92:	bf08      	it	eq
10001c94:	461e      	moveq	r6, r3
10001c96:	b1b4      	cbz	r4, 10001cc6 <stdio_put_string+0x7a>
10001c98:	f1ba 0f00 	cmp.w	sl, #0
10001c9c:	d11a      	bne.n	10001cd4 <stdio_put_string+0x88>
10001c9e:	f8df 9090 	ldr.w	r9, [pc, #144]	; 10001d30 <stdio_put_string+0xe4>
10001ca2:	e001      	b.n	10001ca8 <stdio_put_string+0x5c>
10001ca4:	6924      	ldr	r4, [r4, #16]
10001ca6:	b174      	cbz	r4, 10001cc6 <stdio_put_string+0x7a>
10001ca8:	6823      	ldr	r3, [r4, #0]
10001caa:	2b00      	cmp	r3, #0
10001cac:	d0fa      	beq.n	10001ca4 <stdio_put_string+0x58>
10001cae:	f8d9 3000 	ldr.w	r3, [r9]
10001cb2:	b10b      	cbz	r3, 10001cb8 <stdio_put_string+0x6c>
10001cb4:	42a3      	cmp	r3, r4
10001cb6:	d1f5      	bne.n	10001ca4 <stdio_put_string+0x58>
10001cb8:	4620      	mov	r0, r4
10001cba:	462a      	mov	r2, r5
10001cbc:	4639      	mov	r1, r7
10001cbe:	47b0      	blx	r6
10001cc0:	6924      	ldr	r4, [r4, #16]
10001cc2:	2c00      	cmp	r4, #0
10001cc4:	d1f0      	bne.n	10001ca8 <stdio_put_string+0x5c>
10001cc6:	f1b8 0f00 	cmp.w	r8, #0
10001cca:	d11f      	bne.n	10001d0c <stdio_put_string+0xc0>
10001ccc:	4628      	mov	r0, r5
10001cce:	b002      	add	sp, #8
10001cd0:	e8bd 87f0 	ldmia.w	sp!, {r4, r5, r6, r7, r8, r9, sl, pc}
10001cd4:	f04f 0a0a 	mov.w	sl, #10
10001cd8:	f8df 9054 	ldr.w	r9, [pc, #84]	; 10001d30 <stdio_put_string+0xe4>
10001cdc:	e002      	b.n	10001ce4 <stdio_put_string+0x98>
10001cde:	6924      	ldr	r4, [r4, #16]
10001ce0:	2c00      	cmp	r4, #0
10001ce2:	d0f0      	beq.n	10001cc6 <stdio_put_string+0x7a>
10001ce4:	6823      	ldr	r3, [r4, #0]
10001ce6:	2b00      	cmp	r3, #0
10001ce8:	d0f9      	beq.n	10001cde <stdio_put_string+0x92>
10001cea:	f8d9 3000 	ldr.w	r3, [r9]
10001cee:	b10b      	cbz	r3, 10001cf4 <stdio_put_string+0xa8>
10001cf0:	42a3      	cmp	r3, r4
10001cf2:	d1f4      	bne.n	10001cde <stdio_put_string+0x92>
10001cf4:	4620      	mov	r0, r4
10001cf6:	462a      	mov	r2, r5
10001cf8:	4639      	mov	r1, r7
10001cfa:	47b0      	blx	r6
10001cfc:	4620      	mov	r0, r4
10001cfe:	2201      	movs	r2, #1
10001d00:	f10d 0107 	add.w	r1, sp, #7
10001d04:	f88d a007 	strb.w	sl, [sp, #7]
10001d08:	47b0      	blx	r6
10001d0a:	e7e8      	b.n	10001cde <stdio_put_string+0x92>
10001d0c:	4804      	ldr	r0, [pc, #16]	; (10001d20 <stdio_put_string+0xd4>)
10001d0e:	f005 ffe7 	bl	10007ce0 <__mutex_exit_veneer>
10001d12:	4628      	mov	r0, r5
10001d14:	b002      	add	sp, #8
10001d16:	e8bd 87f0 	ldmia.w	sp!, {r4, r5, r6, r7, r8, r9, sl, pc}
10001d1a:	bf00      	nop
10001d1c:	000f4240 	.word	0x000f4240
10001d20:	20001278 	.word	0x20001278
10001d24:	20001a88 	.word	0x20001a88
10001d28:	10001ba1 	.word	0x10001ba1
10001d2c:	10001b99 	.word	0x10001b99
10001d30:	20001a90 	.word	0x20001a90

10001d34 <stdio_set_driver_enabled>:
10001d34:	4a08      	ldr	r2, [pc, #32]	; (10001d58 <stdio_set_driver_enabled+0x24>)
10001d36:	6813      	ldr	r3, [r2, #0]
10001d38:	b923      	cbnz	r3, 10001d44 <stdio_set_driver_enabled+0x10>
10001d3a:	e00a      	b.n	10001d52 <stdio_set_driver_enabled+0x1e>
10001d3c:	f103 0210 	add.w	r2, r3, #16
10001d40:	691b      	ldr	r3, [r3, #16]
10001d42:	b133      	cbz	r3, 10001d52 <stdio_set_driver_enabled+0x1e>
10001d44:	4298      	cmp	r0, r3
10001d46:	d1f9      	bne.n	10001d3c <stdio_set_driver_enabled+0x8>
10001d48:	b929      	cbnz	r1, 10001d56 <stdio_set_driver_enabled+0x22>
10001d4a:	6903      	ldr	r3, [r0, #16]
10001d4c:	6013      	str	r3, [r2, #0]
10001d4e:	6101      	str	r1, [r0, #16]
10001d50:	4770      	bx	lr
10001d52:	b101      	cbz	r1, 10001d56 <stdio_set_driver_enabled+0x22>
10001d54:	6010      	str	r0, [r2, #0]
10001d56:	4770      	bx	lr
10001d58:	20001a88 	.word	0x20001a88

10001d5c <stdio_init_all>:
10001d5c:	f000 ba5c 	b.w	10002218 <stdio_usb_init>

10001d60 <__wrap_putchar>:
10001d60:	b5f0      	push	{r4, r5, r6, r7, lr}
10001d62:	b083      	sub	sp, #12
10001d64:	4606      	mov	r6, r0
10001d66:	f88d 0007 	strb.w	r0, [sp, #7]
10001d6a:	f7ff fc61 	bl	10001630 <time_us_64>
10001d6e:	4a17      	ldr	r2, [pc, #92]	; (10001dcc <__wrap_putchar+0x6c>)
10001d70:	1882      	adds	r2, r0, r2
10001d72:	f141 0300 	adc.w	r3, r1, #0
10001d76:	2b00      	cmp	r3, #0
10001d78:	bfbc      	itt	lt
10001d7a:	f06f 4300 	mvnlt.w	r3, #2147483648	; 0x80000000
10001d7e:	f04f 32ff 	movlt.w	r2, #4294967295	; 0xffffffff
10001d82:	4813      	ldr	r0, [pc, #76]	; (10001dd0 <__wrap_putchar+0x70>)
10001d84:	f005 ffd4 	bl	10007d30 <__mutex_try_enter_block_until_veneer>
10001d88:	4b12      	ldr	r3, [pc, #72]	; (10001dd4 <__wrap_putchar+0x74>)
10001d8a:	4607      	mov	r7, r0
10001d8c:	681c      	ldr	r4, [r3, #0]
10001d8e:	b19c      	cbz	r4, 10001db8 <__wrap_putchar+0x58>
10001d90:	4d11      	ldr	r5, [pc, #68]	; (10001dd8 <__wrap_putchar+0x78>)
10001d92:	e001      	b.n	10001d98 <__wrap_putchar+0x38>
10001d94:	6924      	ldr	r4, [r4, #16]
10001d96:	b17c      	cbz	r4, 10001db8 <__wrap_putchar+0x58>
10001d98:	6823      	ldr	r3, [r4, #0]
10001d9a:	2b00      	cmp	r3, #0
10001d9c:	d0fa      	beq.n	10001d94 <__wrap_putchar+0x34>
10001d9e:	682b      	ldr	r3, [r5, #0]
10001da0:	b10b      	cbz	r3, 10001da6 <__wrap_putchar+0x46>
10001da2:	42a3      	cmp	r3, r4
10001da4:	d1f6      	bne.n	10001d94 <__wrap_putchar+0x34>
10001da6:	4620      	mov	r0, r4
10001da8:	2201      	movs	r2, #1
10001daa:	f10d 0107 	add.w	r1, sp, #7
10001dae:	f7ff fef7 	bl	10001ba0 <stdio_out_chars_crlf>
10001db2:	6924      	ldr	r4, [r4, #16]
10001db4:	2c00      	cmp	r4, #0
10001db6:	d1ef      	bne.n	10001d98 <__wrap_putchar+0x38>
10001db8:	b917      	cbnz	r7, 10001dc0 <__wrap_putchar+0x60>
10001dba:	4630      	mov	r0, r6
10001dbc:	b003      	add	sp, #12
10001dbe:	bdf0      	pop	{r4, r5, r6, r7, pc}
10001dc0:	4803      	ldr	r0, [pc, #12]	; (10001dd0 <__wrap_putchar+0x70>)
10001dc2:	f005 ff8d 	bl	10007ce0 <__mutex_exit_veneer>
10001dc6:	4630      	mov	r0, r6
10001dc8:	b003      	add	sp, #12
10001dca:	bdf0      	pop	{r4, r5, r6, r7, pc}
10001dcc:	000f4240 	.word	0x000f4240
10001dd0:	20001278 	.word	0x20001278
10001dd4:	20001a88 	.word	0x20001a88
10001dd8:	20001a90 	.word	0x20001a90

10001ddc <__wrap_puts>:
10001ddc:	b538      	push	{r3, r4, r5, lr}
10001dde:	4604      	mov	r4, r0
10001de0:	f005 ff4c 	bl	10007c7c <strlen>
10001de4:	2301      	movs	r3, #1
10001de6:	4605      	mov	r5, r0
10001de8:	461a      	mov	r2, r3
10001dea:	4620      	mov	r0, r4
10001dec:	4629      	mov	r1, r5
10001dee:	f7ff ff2d 	bl	10001c4c <stdio_put_string>
10001df2:	4b08      	ldr	r3, [pc, #32]	; (10001e14 <__wrap_puts+0x38>)
10001df4:	681c      	ldr	r4, [r3, #0]
10001df6:	b12c      	cbz	r4, 10001e04 <__wrap_puts+0x28>
10001df8:	6863      	ldr	r3, [r4, #4]
10001dfa:	b12b      	cbz	r3, 10001e08 <__wrap_puts+0x2c>
10001dfc:	4798      	blx	r3
10001dfe:	6924      	ldr	r4, [r4, #16]
10001e00:	2c00      	cmp	r4, #0
10001e02:	d1f9      	bne.n	10001df8 <__wrap_puts+0x1c>
10001e04:	4628      	mov	r0, r5
10001e06:	bd38      	pop	{r3, r4, r5, pc}
10001e08:	6924      	ldr	r4, [r4, #16]
10001e0a:	2c00      	cmp	r4, #0
10001e0c:	d1f4      	bne.n	10001df8 <__wrap_puts+0x1c>
10001e0e:	4628      	mov	r0, r5
10001e10:	bd38      	pop	{r3, r4, r5, pc}
10001e12:	bf00      	nop
10001e14:	20001a88 	.word	0x20001a88

10001e18 <resetd_init>:
10001e18:	4770      	bx	lr
10001e1a:	bf00      	nop

10001e1c <resetd_reset>:
10001e1c:	2200      	movs	r2, #0
10001e1e:	4b01      	ldr	r3, [pc, #4]	; (10001e24 <resetd_reset+0x8>)
10001e20:	701a      	strb	r2, [r3, #0]
10001e22:	4770      	bx	lr
10001e24:	200222a0 	.word	0x200222a0

10001e28 <resetd_open>:
10001e28:	794b      	ldrb	r3, [r1, #5]
10001e2a:	2bff      	cmp	r3, #255	; 0xff
10001e2c:	d10b      	bne.n	10001e46 <resetd_open+0x1e>
10001e2e:	7988      	ldrb	r0, [r1, #6]
10001e30:	b948      	cbnz	r0, 10001e46 <resetd_open+0x1e>
10001e32:	79cb      	ldrb	r3, [r1, #7]
10001e34:	2b01      	cmp	r3, #1
10001e36:	d107      	bne.n	10001e48 <resetd_open+0x20>
10001e38:	2a08      	cmp	r2, #8
10001e3a:	d905      	bls.n	10001e48 <resetd_open+0x20>
10001e3c:	4b03      	ldr	r3, [pc, #12]	; (10001e4c <resetd_open+0x24>)
10001e3e:	788a      	ldrb	r2, [r1, #2]
10001e40:	2009      	movs	r0, #9
10001e42:	701a      	strb	r2, [r3, #0]
10001e44:	4770      	bx	lr
10001e46:	2000      	movs	r0, #0
10001e48:	4770      	bx	lr
10001e4a:	bf00      	nop
10001e4c:	200222a0 	.word	0x200222a0

10001e50 <resetd_xfer_cb>:
10001e50:	2001      	movs	r0, #1
10001e52:	4770      	bx	lr

10001e54 <resetd_control_xfer_cb>:
10001e54:	2901      	cmp	r1, #1
10001e56:	d108      	bne.n	10001e6a <resetd_control_xfer_cb+0x16>
10001e58:	b510      	push	{r4, lr}
10001e5a:	4b12      	ldr	r3, [pc, #72]	; (10001ea4 <resetd_control_xfer_cb+0x50>)
10001e5c:	460c      	mov	r4, r1
10001e5e:	781b      	ldrb	r3, [r3, #0]
10001e60:	8891      	ldrh	r1, [r2, #4]
10001e62:	4299      	cmp	r1, r3
10001e64:	d003      	beq.n	10001e6e <resetd_control_xfer_cb+0x1a>
10001e66:	2000      	movs	r0, #0
10001e68:	bd10      	pop	{r4, pc}
10001e6a:	2001      	movs	r0, #1
10001e6c:	4770      	bx	lr
10001e6e:	7853      	ldrb	r3, [r2, #1]
10001e70:	2b01      	cmp	r3, #1
10001e72:	d008      	beq.n	10001e86 <resetd_control_xfer_cb+0x32>
10001e74:	2b02      	cmp	r3, #2
10001e76:	d1f6      	bne.n	10001e66 <resetd_control_xfer_cb+0x12>
10001e78:	2100      	movs	r1, #0
10001e7a:	2264      	movs	r2, #100	; 0x64
10001e7c:	4608      	mov	r0, r1
10001e7e:	f7ff fc95 	bl	100017ac <watchdog_reboot>
10001e82:	4620      	mov	r0, r4
10001e84:	bd10      	pop	{r4, pc}
10001e86:	8851      	ldrh	r1, [r2, #2]
10001e88:	05cb      	lsls	r3, r1, #23
10001e8a:	bf4b      	itete	mi
10001e8c:	0a4a      	lsrmi	r2, r1, #9
10001e8e:	0a4a      	lsrpl	r2, r1, #9
10001e90:	4610      	movmi	r0, r2
10001e92:	f04f 30ff 	movpl.w	r0, #4294967295	; 0xffffffff
10001e96:	f002 0201 	and.w	r2, r2, #1
10001e9a:	f001 017f 	and.w	r1, r1, #127	; 0x7f
10001e9e:	f7ff fd07 	bl	100018b0 <rom_reset_usb_boot_extra>
10001ea2:	bf00      	nop
10001ea4:	200222a0 	.word	0x200222a0

10001ea8 <tud_descriptor_bos_cb>:
10001ea8:	4800      	ldr	r0, [pc, #0]	; (10001eac <tud_descriptor_bos_cb+0x4>)
10001eaa:	4770      	bx	lr
10001eac:	10007f3c 	.word	0x10007f3c

10001eb0 <tud_vendor_control_xfer_cb>:
10001eb0:	2901      	cmp	r1, #1
10001eb2:	d107      	bne.n	10001ec4 <tud_vendor_control_xfer_cb+0x14>
10001eb4:	7853      	ldrb	r3, [r2, #1]
10001eb6:	2b01      	cmp	r3, #1
10001eb8:	d102      	bne.n	10001ec0 <tud_vendor_control_xfer_cb+0x10>
10001eba:	8893      	ldrh	r3, [r2, #4]
10001ebc:	2b07      	cmp	r3, #7
10001ebe:	d003      	beq.n	10001ec8 <tud_vendor_control_xfer_cb+0x18>
10001ec0:	2000      	movs	r0, #0
10001ec2:	4770      	bx	lr
10001ec4:	2001      	movs	r0, #1
10001ec6:	4770      	bx	lr
10001ec8:	4611      	mov	r1, r2
10001eca:	23a6      	movs	r3, #166	; 0xa6
10001ecc:	4a01      	ldr	r2, [pc, #4]	; (10001ed4 <tud_vendor_control_xfer_cb+0x24>)
10001ece:	f001 ba57 	b.w	10003380 <tud_control_xfer>
10001ed2:	bf00      	nop
10001ed4:	10007f60 	.word	0x10007f60

10001ed8 <usbd_app_driver_get_cb>:
10001ed8:	4603      	mov	r3, r0
10001eda:	2201      	movs	r2, #1
10001edc:	4801      	ldr	r0, [pc, #4]	; (10001ee4 <usbd_app_driver_get_cb+0xc>)
10001ede:	701a      	strb	r2, [r3, #0]
10001ee0:	4770      	bx	lr
10001ee2:	bf00      	nop
10001ee4:	10007f1c 	.word	0x10007f1c

10001ee8 <tud_cdc_line_coding_cb>:
10001ee8:	b508      	push	{r3, lr}
10001eea:	680b      	ldr	r3, [r1, #0]
10001eec:	f5b3 6f96 	cmp.w	r3, #1200	; 0x4b0
10001ef0:	d000      	beq.n	10001ef4 <tud_cdc_line_coding_cb+0xc>
10001ef2:	bd08      	pop	{r3, pc}
10001ef4:	2200      	movs	r2, #0
10001ef6:	f04f 30ff 	mov.w	r0, #4294967295	; 0xffffffff
10001efa:	4611      	mov	r1, r2
10001efc:	f7ff fcd8 	bl	100018b0 <rom_reset_usb_boot_extra>

10001f00 <stdio_usb_set_chars_available_callback>:
10001f00:	4a02      	ldr	r2, [pc, #8]	; (10001f0c <stdio_usb_set_chars_available_callback+0xc>)
10001f02:	4b03      	ldr	r3, [pc, #12]	; (10001f10 <stdio_usb_set_chars_available_callback+0x10>)
10001f04:	6010      	str	r0, [r2, #0]
10001f06:	6019      	str	r1, [r3, #0]
10001f08:	4770      	bx	lr
10001f0a:	bf00      	nop
10001f0c:	20001a24 	.word	0x20001a24
10001f10:	20001a28 	.word	0x20001a28

10001f14 <timer_task>:
10001f14:	4b18      	ldr	r3, [pc, #96]	; (10001f78 <timer_task+0x64>)
10001f16:	b570      	push	{r4, r5, r6, lr}
10001f18:	681a      	ldr	r2, [r3, #0]
10001f1a:	2a00      	cmp	r2, #0
10001f1c:	d028      	beq.n	10001f70 <timer_task+0x5c>
10001f1e:	f3ef 8110 	mrs	r1, PRIMASK
10001f22:	b672      	cpsid	i
10001f24:	e8d2 4fcf 	ldaexb	r4, [r2]
10001f28:	2001      	movs	r0, #1
10001f2a:	2c00      	cmp	r4, #0
10001f2c:	d1fa      	bne.n	10001f24 <timer_task+0x10>
10001f2e:	e8c2 0f44 	strexb	r4, r0, [r2]
10001f32:	2c00      	cmp	r4, #0
10001f34:	d1f6      	bne.n	10001f24 <timer_task+0x10>
10001f36:	f3bf 8f5f 	dmb	sy
10001f3a:	2200      	movs	r2, #0
10001f3c:	4c0f      	ldr	r4, [pc, #60]	; (10001f7c <timer_task+0x68>)
10001f3e:	6818      	ldr	r0, [r3, #0]
10001f40:	6059      	str	r1, [r3, #4]
10001f42:	7022      	strb	r2, [r4, #0]
10001f44:	e8c0 2f8f 	stlb	r2, [r0]
10001f48:	f381 8810 	msr	PRIMASK, r1
10001f4c:	2400      	movs	r4, #0
10001f4e:	2500      	movs	r5, #0
10001f50:	4e0b      	ldr	r6, [pc, #44]	; (10001f80 <timer_task+0x6c>)
10001f52:	7830      	ldrb	r0, [r6, #0]
10001f54:	f7fe fc88 	bl	10000868 <irq_is_enabled>
10001f58:	b920      	cbnz	r0, 10001f64 <timer_task+0x50>
10001f5a:	2400      	movs	r4, #0
10001f5c:	2500      	movs	r5, #0
10001f5e:	4620      	mov	r0, r4
10001f60:	4629      	mov	r1, r5
10001f62:	bd70      	pop	{r4, r5, r6, pc}
10001f64:	7830      	ldrb	r0, [r6, #0]
10001f66:	f7fe fc8f 	bl	10000888 <irq_set_pending>
10001f6a:	4620      	mov	r0, r4
10001f6c:	4629      	mov	r1, r5
10001f6e:	bd70      	pop	{r4, r5, r6, pc}
10001f70:	f44f 747a 	mov.w	r4, #1000	; 0x3e8
10001f74:	2500      	movs	r5, #0
10001f76:	e7eb      	b.n	10001f50 <timer_task+0x3c>
10001f78:	20001ea0 	.word	0x20001ea0
10001f7c:	200222a2 	.word	0x200222a2
10001f80:	200222a1 	.word	0x200222a1

10001f84 <usb_irq>:
10001f84:	4b01      	ldr	r3, [pc, #4]	; (10001f8c <usb_irq+0x8>)
10001f86:	7818      	ldrb	r0, [r3, #0]
10001f88:	f7fe bc7e 	b.w	10000888 <irq_set_pending>
10001f8c:	200222a1 	.word	0x200222a1

10001f90 <stdio_usb_in_chars>:
10001f90:	b538      	push	{r3, r4, r5, lr}
10001f92:	4604      	mov	r4, r0
10001f94:	2000      	movs	r0, #0
10001f96:	460d      	mov	r5, r1
10001f98:	f001 fb3a 	bl	10003610 <tud_cdc_n_connected>
10001f9c:	b390      	cbz	r0, 10002004 <stdio_usb_in_chars+0x74>
10001f9e:	2000      	movs	r0, #0
10001fa0:	f001 fb4c 	bl	1000363c <tud_cdc_n_available>
10001fa4:	b370      	cbz	r0, 10002004 <stdio_usb_in_chars+0x74>
10001fa6:	f7ff fb43 	bl	10001630 <time_us_64>
10001faa:	4a18      	ldr	r2, [pc, #96]	; (1000200c <stdio_usb_in_chars+0x7c>)
10001fac:	1882      	adds	r2, r0, r2
10001fae:	f141 0300 	adc.w	r3, r1, #0
10001fb2:	2b00      	cmp	r3, #0
10001fb4:	bfbc      	itt	lt
10001fb6:	f04f 32ff 	movlt.w	r2, #4294967295	; 0xffffffff
10001fba:	f06f 4300 	mvnlt.w	r3, #2147483648	; 0x80000000
10001fbe:	4814      	ldr	r0, [pc, #80]	; (10002010 <stdio_usb_in_chars+0x80>)
10001fc0:	f005 feb6 	bl	10007d30 <__mutex_try_enter_block_until_veneer>
10001fc4:	b1f0      	cbz	r0, 10002004 <stdio_usb_in_chars+0x74>
10001fc6:	2000      	movs	r0, #0
10001fc8:	f001 fb22 	bl	10003610 <tud_cdc_n_connected>
10001fcc:	b958      	cbnz	r0, 10001fe6 <stdio_usb_in_chars+0x56>
10001fce:	2100      	movs	r1, #0
10001fd0:	f04f 30ff 	mov.w	r0, #4294967295	; 0xffffffff
10001fd4:	f000 fd1c 	bl	10002a10 <tud_task_ext>
10001fd8:	f06f 0402 	mvn.w	r4, #2
10001fdc:	480c      	ldr	r0, [pc, #48]	; (10002010 <stdio_usb_in_chars+0x80>)
10001fde:	f005 fe7f 	bl	10007ce0 <__mutex_exit_veneer>
10001fe2:	4620      	mov	r0, r4
10001fe4:	bd38      	pop	{r3, r4, r5, pc}
10001fe6:	2000      	movs	r0, #0
10001fe8:	f001 fb28 	bl	1000363c <tud_cdc_n_available>
10001fec:	2800      	cmp	r0, #0
10001fee:	d0ee      	beq.n	10001fce <stdio_usb_in_chars+0x3e>
10001ff0:	4621      	mov	r1, r4
10001ff2:	462a      	mov	r2, r5
10001ff4:	2000      	movs	r0, #0
10001ff6:	f001 fb2d 	bl	10003654 <tud_cdc_n_read>
10001ffa:	1e04      	subs	r4, r0, #0
10001ffc:	bf08      	it	eq
10001ffe:	f06f 0402 	mvneq.w	r4, #2
10002002:	e7eb      	b.n	10001fdc <stdio_usb_in_chars+0x4c>
10002004:	f06f 0402 	mvn.w	r4, #2
10002008:	e7eb      	b.n	10001fe2 <stdio_usb_in_chars+0x52>
1000200a:	bf00      	nop
1000200c:	000f4240 	.word	0x000f4240
10002010:	20002178 	.word	0x20002178

10002014 <stdio_usb_out_flush>:
10002014:	b508      	push	{r3, lr}
10002016:	f7ff fb0b 	bl	10001630 <time_us_64>
1000201a:	4a0f      	ldr	r2, [pc, #60]	; (10002058 <stdio_usb_out_flush+0x44>)
1000201c:	1882      	adds	r2, r0, r2
1000201e:	f141 0300 	adc.w	r3, r1, #0
10002022:	2b00      	cmp	r3, #0
10002024:	bfbc      	itt	lt
10002026:	f04f 32ff 	movlt.w	r2, #4294967295	; 0xffffffff
1000202a:	f06f 4300 	mvnlt.w	r3, #2147483648	; 0x80000000
1000202e:	480b      	ldr	r0, [pc, #44]	; (1000205c <stdio_usb_out_flush+0x48>)
10002030:	f005 fe7e 	bl	10007d30 <__mutex_try_enter_block_until_veneer>
10002034:	b170      	cbz	r0, 10002054 <stdio_usb_out_flush+0x40>
10002036:	f04f 30ff 	mov.w	r0, #4294967295	; 0xffffffff
1000203a:	2100      	movs	r1, #0
1000203c:	f000 fce8 	bl	10002a10 <tud_task_ext>
10002040:	2000      	movs	r0, #0
10002042:	f001 fb4f 	bl	100036e4 <tud_cdc_n_write_flush>
10002046:	2800      	cmp	r0, #0
10002048:	d1f5      	bne.n	10002036 <stdio_usb_out_flush+0x22>
1000204a:	e8bd 4008 	ldmia.w	sp!, {r3, lr}
1000204e:	4803      	ldr	r0, [pc, #12]	; (1000205c <stdio_usb_out_flush+0x48>)
10002050:	f005 be46 	b.w	10007ce0 <__mutex_exit_veneer>
10002054:	bd08      	pop	{r3, pc}
10002056:	bf00      	nop
10002058:	000f4240 	.word	0x000f4240
1000205c:	20002178 	.word	0x20002178

10002060 <stdio_usb_out_chars>:
10002060:	e92d 43f8 	stmdb	sp!, {r3, r4, r5, r6, r7, r8, r9, lr}
10002064:	4607      	mov	r7, r0
10002066:	460e      	mov	r6, r1
10002068:	f7ff fae2 	bl	10001630 <time_us_64>
1000206c:	4a34      	ldr	r2, [pc, #208]	; (10002140 <stdio_usb_out_chars+0xe0>)
1000206e:	1882      	adds	r2, r0, r2
10002070:	f141 0300 	adc.w	r3, r1, #0
10002074:	2b00      	cmp	r3, #0
10002076:	bfbc      	itt	lt
10002078:	f04f 32ff 	movlt.w	r2, #4294967295	; 0xffffffff
1000207c:	f06f 4300 	mvnlt.w	r3, #2147483648	; 0x80000000
10002080:	4830      	ldr	r0, [pc, #192]	; (10002144 <stdio_usb_out_chars+0xe4>)
10002082:	f005 fe55 	bl	10007d30 <__mutex_try_enter_block_until_veneer>
10002086:	b908      	cbnz	r0, 1000208c <stdio_usb_out_chars+0x2c>
10002088:	e8bd 83f8 	ldmia.w	sp!, {r3, r4, r5, r6, r7, r8, r9, pc}
1000208c:	2000      	movs	r0, #0
1000208e:	f001 fabf 	bl	10003610 <tud_cdc_n_connected>
10002092:	2800      	cmp	r0, #0
10002094:	d049      	beq.n	1000212a <stdio_usb_out_chars+0xca>
10002096:	2e00      	cmp	r6, #0
10002098:	dd42      	ble.n	10002120 <stdio_usb_out_chars+0xc0>
1000209a:	2500      	movs	r5, #0
1000209c:	f8df 80a8 	ldr.w	r8, [pc, #168]	; 10002148 <stdio_usb_out_chars+0xe8>
100020a0:	f8df 90a8 	ldr.w	r9, [pc, #168]	; 1000214c <stdio_usb_out_chars+0xec>
100020a4:	e013      	b.n	100020ce <stdio_usb_out_chars+0x6e>
100020a6:	4622      	mov	r2, r4
100020a8:	2000      	movs	r0, #0
100020aa:	f001 fb5f 	bl	1000376c <tud_cdc_n_write>
100020ae:	2100      	movs	r1, #0
100020b0:	4604      	mov	r4, r0
100020b2:	f04f 30ff 	mov.w	r0, #4294967295	; 0xffffffff
100020b6:	f000 fcab 	bl	10002a10 <tud_task_ext>
100020ba:	2000      	movs	r0, #0
100020bc:	f001 fb12 	bl	100036e4 <tud_cdc_n_write_flush>
100020c0:	f7ff fab6 	bl	10001630 <time_us_64>
100020c4:	e9c8 0100 	strd	r0, r1, [r8]
100020c8:	4425      	add	r5, r4
100020ca:	42ae      	cmp	r6, r5
100020cc:	dd28      	ble.n	10002120 <stdio_usb_out_chars+0xc0>
100020ce:	2000      	movs	r0, #0
100020d0:	f001 fb70 	bl	100037b4 <tud_cdc_n_write_available>
100020d4:	1b74      	subs	r4, r6, r5
100020d6:	4284      	cmp	r4, r0
100020d8:	bfa8      	it	ge
100020da:	4604      	movge	r4, r0
100020dc:	1979      	adds	r1, r7, r5
100020de:	2c00      	cmp	r4, #0
100020e0:	d1e1      	bne.n	100020a6 <stdio_usb_out_chars+0x46>
100020e2:	4621      	mov	r1, r4
100020e4:	f04f 30ff 	mov.w	r0, #4294967295	; 0xffffffff
100020e8:	f000 fc92 	bl	10002a10 <tud_task_ext>
100020ec:	4620      	mov	r0, r4
100020ee:	f001 faf9 	bl	100036e4 <tud_cdc_n_write_flush>
100020f2:	4620      	mov	r0, r4
100020f4:	f001 fa8c 	bl	10003610 <tud_cdc_n_connected>
100020f8:	b190      	cbz	r0, 10002120 <stdio_usb_out_chars+0xc0>
100020fa:	4620      	mov	r0, r4
100020fc:	f001 fb5a 	bl	100037b4 <tud_cdc_n_write_available>
10002100:	2800      	cmp	r0, #0
10002102:	d1e2      	bne.n	100020ca <stdio_usb_out_chars+0x6a>
10002104:	f7ff fa94 	bl	10001630 <time_us_64>
10002108:	f8d8 3000 	ldr.w	r3, [r8]
1000210c:	f8d8 2004 	ldr.w	r2, [r8, #4]
10002110:	eb13 0309 	adds.w	r3, r3, r9
10002114:	f142 0200 	adc.w	r2, r2, #0
10002118:	4283      	cmp	r3, r0
1000211a:	eb72 0301 	sbcs.w	r3, r2, r1
1000211e:	d2d4      	bcs.n	100020ca <stdio_usb_out_chars+0x6a>
10002120:	4808      	ldr	r0, [pc, #32]	; (10002144 <stdio_usb_out_chars+0xe4>)
10002122:	e8bd 43f8 	ldmia.w	sp!, {r3, r4, r5, r6, r7, r8, r9, lr}
10002126:	f005 bddb 	b.w	10007ce0 <__mutex_exit_veneer>
1000212a:	2000      	movs	r0, #0
1000212c:	2100      	movs	r1, #0
1000212e:	4b06      	ldr	r3, [pc, #24]	; (10002148 <stdio_usb_out_chars+0xe8>)
10002130:	e9c3 0100 	strd	r0, r1, [r3]
10002134:	e8bd 43f8 	ldmia.w	sp!, {r3, r4, r5, r6, r7, r8, r9, lr}
10002138:	4802      	ldr	r0, [pc, #8]	; (10002144 <stdio_usb_out_chars+0xe4>)
1000213a:	f005 bdd1 	b.w	10007ce0 <__mutex_exit_veneer>
1000213e:	bf00      	nop
10002140:	000f4240 	.word	0x000f4240
10002144:	20002178 	.word	0x20002178
10002148:	20001400 	.word	0x20001400
1000214c:	0007a120 	.word	0x0007a120

10002150 <low_priority_worker_irq>:
10002150:	b530      	push	{r4, r5, lr}
10002152:	2100      	movs	r1, #0
10002154:	b085      	sub	sp, #20
10002156:	482a      	ldr	r0, [pc, #168]	; (10002200 <low_priority_worker_irq+0xb0>)
10002158:	f005 fdd2 	bl	10007d00 <__mutex_try_enter_veneer>
1000215c:	b9f0      	cbnz	r0, 1000219c <low_priority_worker_irq+0x4c>
1000215e:	4b29      	ldr	r3, [pc, #164]	; (10002204 <low_priority_worker_irq+0xb4>)
10002160:	681a      	ldr	r2, [r3, #0]
10002162:	b1ca      	cbz	r2, 10002198 <low_priority_worker_irq+0x48>
10002164:	f3ef 8110 	mrs	r1, PRIMASK
10002168:	b672      	cpsid	i
1000216a:	e8d2 5fcf 	ldaexb	r5, [r2]
1000216e:	2401      	movs	r4, #1
10002170:	2d00      	cmp	r5, #0
10002172:	d1fa      	bne.n	1000216a <low_priority_worker_irq+0x1a>
10002174:	e8c2 4f45 	strexb	r5, r4, [r2]
10002178:	2d00      	cmp	r5, #0
1000217a:	d1f6      	bne.n	1000216a <low_priority_worker_irq+0x1a>
1000217c:	f3bf 8f5f 	dmb	sy
10002180:	4c21      	ldr	r4, [pc, #132]	; (10002208 <low_priority_worker_irq+0xb8>)
10002182:	681d      	ldr	r5, [r3, #0]
10002184:	7822      	ldrb	r2, [r4, #0]
10002186:	6059      	str	r1, [r3, #4]
10002188:	b2d3      	uxtb	r3, r2
1000218a:	2201      	movs	r2, #1
1000218c:	7022      	strb	r2, [r4, #0]
1000218e:	e8c5 0f8f 	stlb	r0, [r5]
10002192:	f381 8810 	msr	PRIMASK, r1
10002196:	b1cb      	cbz	r3, 100021cc <low_priority_worker_irq+0x7c>
10002198:	b005      	add	sp, #20
1000219a:	bd30      	pop	{r4, r5, pc}
1000219c:	2100      	movs	r1, #0
1000219e:	f04f 30ff 	mov.w	r0, #4294967295	; 0xffffffff
100021a2:	f000 fc35 	bl	10002a10 <tud_task_ext>
100021a6:	2000      	movs	r0, #0
100021a8:	f001 fa48 	bl	1000363c <tud_cdc_n_available>
100021ac:	4604      	mov	r4, r0
100021ae:	4814      	ldr	r0, [pc, #80]	; (10002200 <low_priority_worker_irq+0xb0>)
100021b0:	f005 fd96 	bl	10007ce0 <__mutex_exit_veneer>
100021b4:	2c00      	cmp	r4, #0
100021b6:	d0ef      	beq.n	10002198 <low_priority_worker_irq+0x48>
100021b8:	4b14      	ldr	r3, [pc, #80]	; (1000220c <low_priority_worker_irq+0xbc>)
100021ba:	681b      	ldr	r3, [r3, #0]
100021bc:	2b00      	cmp	r3, #0
100021be:	d0eb      	beq.n	10002198 <low_priority_worker_irq+0x48>
100021c0:	4a13      	ldr	r2, [pc, #76]	; (10002210 <low_priority_worker_irq+0xc0>)
100021c2:	6810      	ldr	r0, [r2, #0]
100021c4:	b005      	add	sp, #20
100021c6:	e8bd 4030 	ldmia.w	sp!, {r4, r5, lr}
100021ca:	4718      	bx	r3
100021cc:	f7ff f892 	bl	100012f4 <alarm_pool_get_default>
100021d0:	4604      	mov	r4, r0
100021d2:	f7ff fa2d 	bl	10001630 <time_us_64>
100021d6:	f510 727a 	adds.w	r2, r0, #1000	; 0x3e8
100021da:	f141 0300 	adc.w	r3, r1, #0
100021de:	2501      	movs	r5, #1
100021e0:	2100      	movs	r1, #0
100021e2:	4620      	mov	r0, r4
100021e4:	4c0b      	ldr	r4, [pc, #44]	; (10002214 <low_priority_worker_irq+0xc4>)
100021e6:	2b00      	cmp	r3, #0
100021e8:	bfbc      	itt	lt
100021ea:	f04f 32ff 	movlt.w	r2, #4294967295	; 0xffffffff
100021ee:	f06f 4300 	mvnlt.w	r3, #2147483648	; 0x80000000
100021f2:	e9cd 1501 	strd	r1, r5, [sp, #4]
100021f6:	9400      	str	r4, [sp, #0]
100021f8:	f7ff f880 	bl	100012fc <alarm_pool_add_alarm_at>
100021fc:	b005      	add	sp, #20
100021fe:	bd30      	pop	{r4, r5, pc}
10002200:	20002178 	.word	0x20002178
10002204:	20001ea0 	.word	0x20001ea0
10002208:	200222a2 	.word	0x200222a2
1000220c:	20001a24 	.word	0x20001a24
10002210:	20001a28 	.word	0x20001a28
10002214:	10001f15 	.word	0x10001f15

10002218 <stdio_usb_init>:
10002218:	f04f 4350 	mov.w	r3, #3489660928	; 0xd0000000
1000221c:	b530      	push	{r4, r5, lr}
1000221e:	b085      	sub	sp, #20
10002220:	681c      	ldr	r4, [r3, #0]
10002222:	f7ff f867 	bl	100012f4 <alarm_pool_get_default>
10002226:	f7ff f979 	bl	1000151c <alarm_pool_core_num>
1000222a:	42a0      	cmp	r0, r4
1000222c:	d002      	beq.n	10002234 <stdio_usb_init+0x1c>
1000222e:	2000      	movs	r0, #0
10002230:	b005      	add	sp, #20
10002232:	bd30      	pop	{r4, r5, pc}
10002234:	2100      	movs	r1, #0
10002236:	4b27      	ldr	r3, [pc, #156]	; (100022d4 <stdio_usb_init+0xbc>)
10002238:	4608      	mov	r0, r1
1000223a:	781b      	ldrb	r3, [r3, #0]
1000223c:	f001 fd88 	bl	10003d50 <tusb_rhport_init>
10002240:	4825      	ldr	r0, [pc, #148]	; (100022d8 <stdio_usb_init+0xc0>)
10002242:	6803      	ldr	r3, [r0, #0]
10002244:	2b00      	cmp	r3, #0
10002246:	d042      	beq.n	100022ce <stdio_usb_init+0xb6>
10002248:	2001      	movs	r0, #1
1000224a:	f7fe fdc7 	bl	10000ddc <user_irq_claim_unused>
1000224e:	4603      	mov	r3, r0
10002250:	4c22      	ldr	r4, [pc, #136]	; (100022dc <stdio_usb_init+0xc4>)
10002252:	4923      	ldr	r1, [pc, #140]	; (100022e0 <stdio_usb_init+0xc8>)
10002254:	b2c0      	uxtb	r0, r0
10002256:	7023      	strb	r3, [r4, #0]
10002258:	f7fe fb34 	bl	100008c4 <irq_set_exclusive_handler>
1000225c:	7820      	ldrb	r0, [r4, #0]
1000225e:	2101      	movs	r1, #1
10002260:	f7fe faec 	bl	1000083c <irq_set_enabled>
10002264:	200e      	movs	r0, #14
10002266:	f7fe fb1d 	bl	100008a4 <irq_has_shared_handler>
1000226a:	bb18      	cbnz	r0, 100022b4 <stdio_usb_init+0x9c>
1000226c:	4b1d      	ldr	r3, [pc, #116]	; (100022e4 <stdio_usb_init+0xcc>)
1000226e:	2501      	movs	r5, #1
10002270:	e9c3 0000 	strd	r0, r0, [r3]
10002274:	f7ff f83e 	bl	100012f4 <alarm_pool_get_default>
10002278:	4604      	mov	r4, r0
1000227a:	f7ff f9d9 	bl	10001630 <time_us_64>
1000227e:	f510 727a 	adds.w	r2, r0, #1000	; 0x3e8
10002282:	f141 0300 	adc.w	r3, r1, #0
10002286:	2100      	movs	r1, #0
10002288:	4620      	mov	r0, r4
1000228a:	4c17      	ldr	r4, [pc, #92]	; (100022e8 <stdio_usb_init+0xd0>)
1000228c:	2b00      	cmp	r3, #0
1000228e:	bfbc      	itt	lt
10002290:	f04f 32ff 	movlt.w	r2, #4294967295	; 0xffffffff
10002294:	f06f 4300 	mvnlt.w	r3, #2147483648	; 0x80000000
10002298:	e9cd 1501 	strd	r1, r5, [sp, #4]
1000229c:	9400      	str	r4, [sp, #0]
1000229e:	f7ff f82d 	bl	100012fc <alarm_pool_add_alarm_at>
100022a2:	2800      	cmp	r0, #0
100022a4:	dbc3      	blt.n	1000222e <stdio_usb_init+0x16>
100022a6:	2101      	movs	r1, #1
100022a8:	4810      	ldr	r0, [pc, #64]	; (100022ec <stdio_usb_init+0xd4>)
100022aa:	f7ff fd43 	bl	10001d34 <stdio_set_driver_enabled>
100022ae:	2001      	movs	r0, #1
100022b0:	b005      	add	sp, #20
100022b2:	bd30      	pop	{r4, r5, pc}
100022b4:	2001      	movs	r0, #1
100022b6:	f7fe fa7d 	bl	100007b4 <spin_lock_claim_unused>
100022ba:	4601      	mov	r1, r0
100022bc:	4809      	ldr	r0, [pc, #36]	; (100022e4 <stdio_usb_init+0xcc>)
100022be:	f7fe fdf5 	bl	10000eac <critical_section_init_with_lock_num>
100022c2:	2200      	movs	r2, #0
100022c4:	200e      	movs	r0, #14
100022c6:	490a      	ldr	r1, [pc, #40]	; (100022f0 <stdio_usb_init+0xd8>)
100022c8:	f7fe fb2c 	bl	10000924 <irq_add_shared_handler>
100022cc:	e7eb      	b.n	100022a6 <stdio_usb_init+0x8e>
100022ce:	f7fe fdd1 	bl	10000e74 <mutex_init>
100022d2:	e7b9      	b.n	10002248 <stdio_usb_init+0x30>
100022d4:	100081b8 	.word	0x100081b8
100022d8:	20002178 	.word	0x20002178
100022dc:	200222a1 	.word	0x200222a1
100022e0:	10002151 	.word	0x10002151
100022e4:	20001ea0 	.word	0x20001ea0
100022e8:	10001f15 	.word	0x10001f15
100022ec:	20001234 	.word	0x20001234
100022f0:	10001f85 	.word	0x10001f85

100022f4 <tud_descriptor_device_cb>:
100022f4:	4800      	ldr	r0, [pc, #0]	; (100022f8 <tud_descriptor_device_cb+0x4>)
100022f6:	4770      	bx	lr
100022f8:	100080a8 	.word	0x100080a8

100022fc <tud_descriptor_configuration_cb>:
100022fc:	4800      	ldr	r0, [pc, #0]	; (10002300 <tud_descriptor_configuration_cb+0x4>)
100022fe:	4770      	bx	lr
10002300:	10008054 	.word	0x10008054

10002304 <tud_descriptor_string_cb>:
10002304:	b538      	push	{r3, r4, r5, lr}
10002306:	4b1a      	ldr	r3, [pc, #104]	; (10002370 <tud_descriptor_string_cb+0x6c>)
10002308:	4604      	mov	r4, r0
1000230a:	781a      	ldrb	r2, [r3, #0]
1000230c:	b32a      	cbz	r2, 1000235a <tud_descriptor_string_cb+0x56>
1000230e:	b944      	cbnz	r4, 10002322 <tud_descriptor_string_cb+0x1e>
10002310:	f240 4209 	movw	r2, #1033	; 0x409
10002314:	f44f 7341 	mov.w	r3, #772	; 0x304
10002318:	4d16      	ldr	r5, [pc, #88]	; (10002374 <tud_descriptor_string_cb+0x70>)
1000231a:	806a      	strh	r2, [r5, #2]
1000231c:	4815      	ldr	r0, [pc, #84]	; (10002374 <tud_descriptor_string_cb+0x70>)
1000231e:	802b      	strh	r3, [r5, #0]
10002320:	bd38      	pop	{r3, r4, r5, pc}
10002322:	2c05      	cmp	r4, #5
10002324:	d821      	bhi.n	1000236a <tud_descriptor_string_cb+0x66>
10002326:	4b14      	ldr	r3, [pc, #80]	; (10002378 <tud_descriptor_string_cb+0x74>)
10002328:	4d12      	ldr	r5, [pc, #72]	; (10002374 <tud_descriptor_string_cb+0x70>)
1000232a:	f853 1024 	ldr.w	r1, [r3, r4, lsl #2]
1000232e:	4628      	mov	r0, r5
10002330:	2300      	movs	r3, #0
10002332:	3901      	subs	r1, #1
10002334:	e003      	b.n	1000233e <tud_descriptor_string_cb+0x3a>
10002336:	2b13      	cmp	r3, #19
10002338:	f820 2f02 	strh.w	r2, [r0, #2]!
1000233c:	d012      	beq.n	10002364 <tud_descriptor_string_cb+0x60>
1000233e:	f811 2f01 	ldrb.w	r2, [r1, #1]!
10002342:	fa5f fc83 	uxtb.w	ip, r3
10002346:	3301      	adds	r3, #1
10002348:	2a00      	cmp	r2, #0
1000234a:	d1f4      	bne.n	10002336 <tud_descriptor_string_cb+0x32>
1000234c:	f10c 0301 	add.w	r3, ip, #1
10002350:	b2db      	uxtb	r3, r3
10002352:	005b      	lsls	r3, r3, #1
10002354:	f443 7340 	orr.w	r3, r3, #768	; 0x300
10002358:	e7e0      	b.n	1000231c <tud_descriptor_string_cb+0x18>
1000235a:	2111      	movs	r1, #17
1000235c:	4618      	mov	r0, r3
1000235e:	f000 f825 	bl	100023ac <pico_get_unique_board_id_string>
10002362:	e7d4      	b.n	1000230e <tud_descriptor_string_cb+0xa>
10002364:	f44f 734a 	mov.w	r3, #808	; 0x328
10002368:	e7d8      	b.n	1000231c <tud_descriptor_string_cb+0x18>
1000236a:	2000      	movs	r0, #0
1000236c:	bd38      	pop	{r3, r4, r5, pc}
1000236e:	bf00      	nop
10002370:	20022194 	.word	0x20022194
10002374:	20001a5c 	.word	0x20001a5c
10002378:	100080bc 	.word	0x100080bc

1000237c <_retrieve_unique_id_on_boot>:
1000237c:	b500      	push	{lr}
1000237e:	f245 3047 	movw	r0, #21319	; 0x5347
10002382:	b08b      	sub	sp, #44	; 0x2c
10002384:	f7ff fa88 	bl	10001898 <rom_func_lookup>
10002388:	2201      	movs	r2, #1
1000238a:	4603      	mov	r3, r0
1000238c:	2109      	movs	r1, #9
1000238e:	a801      	add	r0, sp, #4
10002390:	4798      	blx	r3
10002392:	e9dd 3203 	ldrd	r3, r2, [sp, #12]
10002396:	4904      	ldr	r1, [pc, #16]	; (100023a8 <_retrieve_unique_id_on_boot+0x2c>)
10002398:	ba12      	rev	r2, r2
1000239a:	ba1b      	rev	r3, r3
1000239c:	e9c1 2300 	strd	r2, r3, [r1]
100023a0:	b00b      	add	sp, #44	; 0x2c
100023a2:	f85d fb04 	ldr.w	pc, [sp], #4
100023a6:	bf00      	nop
100023a8:	2000216c 	.word	0x2000216c

100023ac <pico_get_unique_board_id_string>:
100023ac:	3901      	subs	r1, #1
100023ae:	f000 80b3 	beq.w	10002518 <pico_get_unique_board_id_string+0x16c>
100023b2:	4a5d      	ldr	r2, [pc, #372]	; (10002528 <pico_get_unique_board_id_string+0x17c>)
100023b4:	7813      	ldrb	r3, [r2, #0]
100023b6:	ea4f 1c23 	mov.w	ip, r3, asr #4
100023ba:	2b9f      	cmp	r3, #159	; 0x9f
100023bc:	bf8c      	ite	hi
100023be:	f10c 0c37 	addhi.w	ip, ip, #55	; 0x37
100023c2:	f10c 0c30 	addls.w	ip, ip, #48	; 0x30
100023c6:	2901      	cmp	r1, #1
100023c8:	f880 c000 	strb.w	ip, [r0]
100023cc:	f000 80a7 	beq.w	1000251e <pico_get_unique_board_id_string+0x172>
100023d0:	f003 030f 	and.w	r3, r3, #15
100023d4:	2b09      	cmp	r3, #9
100023d6:	bfcc      	ite	gt
100023d8:	3337      	addgt	r3, #55	; 0x37
100023da:	3330      	addle	r3, #48	; 0x30
100023dc:	2902      	cmp	r1, #2
100023de:	7043      	strb	r3, [r0, #1]
100023e0:	f000 809d 	beq.w	1000251e <pico_get_unique_board_id_string+0x172>
100023e4:	7853      	ldrb	r3, [r2, #1]
100023e6:	ea4f 1c23 	mov.w	ip, r3, asr #4
100023ea:	2b9f      	cmp	r3, #159	; 0x9f
100023ec:	bf8c      	ite	hi
100023ee:	f10c 0c37 	addhi.w	ip, ip, #55	; 0x37
100023f2:	f10c 0c30 	addls.w	ip, ip, #48	; 0x30
100023f6:	2903      	cmp	r1, #3
100023f8:	f880 c002 	strb.w	ip, [r0, #2]
100023fc:	f000 808f 	beq.w	1000251e <pico_get_unique_board_id_string+0x172>
10002400:	f003 030f 	and.w	r3, r3, #15
10002404:	2b09      	cmp	r3, #9
10002406:	bfcc      	ite	gt
10002408:	3337      	addgt	r3, #55	; 0x37
1000240a:	3330      	addle	r3, #48	; 0x30
1000240c:	2904      	cmp	r1, #4
1000240e:	70c3      	strb	r3, [r0, #3]
10002410:	f000 8085 	beq.w	1000251e <pico_get_unique_board_id_string+0x172>
10002414:	7893      	ldrb	r3, [r2, #2]
10002416:	ea4f 1c23 	mov.w	ip, r3, asr #4
1000241a:	2b9f      	cmp	r3, #159	; 0x9f
1000241c:	bf8c      	ite	hi
1000241e:	f10c 0c37 	addhi.w	ip, ip, #55	; 0x37
10002422:	f10c 0c30 	addls.w	ip, ip, #48	; 0x30
10002426:	2905      	cmp	r1, #5
10002428:	f880 c004 	strb.w	ip, [r0, #4]
1000242c:	d077      	beq.n	1000251e <pico_get_unique_board_id_string+0x172>
1000242e:	f003 030f 	and.w	r3, r3, #15
10002432:	2b09      	cmp	r3, #9
10002434:	bfcc      	ite	gt
10002436:	3337      	addgt	r3, #55	; 0x37
10002438:	3330      	addle	r3, #48	; 0x30
1000243a:	2906      	cmp	r1, #6
1000243c:	7143      	strb	r3, [r0, #5]
1000243e:	d06e      	beq.n	1000251e <pico_get_unique_board_id_string+0x172>
10002440:	78d3      	ldrb	r3, [r2, #3]
10002442:	ea4f 1c23 	mov.w	ip, r3, asr #4
10002446:	2b9f      	cmp	r3, #159	; 0x9f
10002448:	bf8c      	ite	hi
1000244a:	f10c 0c37 	addhi.w	ip, ip, #55	; 0x37
1000244e:	f10c 0c30 	addls.w	ip, ip, #48	; 0x30
10002452:	2907      	cmp	r1, #7
10002454:	f880 c006 	strb.w	ip, [r0, #6]
10002458:	d061      	beq.n	1000251e <pico_get_unique_board_id_string+0x172>
1000245a:	f003 030f 	and.w	r3, r3, #15
1000245e:	2b09      	cmp	r3, #9
10002460:	bfcc      	ite	gt
10002462:	3337      	addgt	r3, #55	; 0x37
10002464:	3330      	addle	r3, #48	; 0x30
10002466:	2908      	cmp	r1, #8
10002468:	71c3      	strb	r3, [r0, #7]
1000246a:	d058      	beq.n	1000251e <pico_get_unique_board_id_string+0x172>
1000246c:	7913      	ldrb	r3, [r2, #4]
1000246e:	ea4f 1c23 	mov.w	ip, r3, asr #4
10002472:	2b9f      	cmp	r3, #159	; 0x9f
10002474:	bf8c      	ite	hi
10002476:	f10c 0c37 	addhi.w	ip, ip, #55	; 0x37
1000247a:	f10c 0c30 	addls.w	ip, ip, #48	; 0x30
1000247e:	2909      	cmp	r1, #9
10002480:	f880 c008 	strb.w	ip, [r0, #8]
10002484:	d04b      	beq.n	1000251e <pico_get_unique_board_id_string+0x172>
10002486:	f003 030f 	and.w	r3, r3, #15
1000248a:	2b09      	cmp	r3, #9
1000248c:	bfcc      	ite	gt
1000248e:	3337      	addgt	r3, #55	; 0x37
10002490:	3330      	addle	r3, #48	; 0x30
10002492:	290a      	cmp	r1, #10
10002494:	7243      	strb	r3, [r0, #9]
10002496:	d042      	beq.n	1000251e <pico_get_unique_board_id_string+0x172>
10002498:	7953      	ldrb	r3, [r2, #5]
1000249a:	ea4f 1c23 	mov.w	ip, r3, asr #4
1000249e:	2b9f      	cmp	r3, #159	; 0x9f
100024a0:	bf8c      	ite	hi
100024a2:	f10c 0c37 	addhi.w	ip, ip, #55	; 0x37
100024a6:	f10c 0c30 	addls.w	ip, ip, #48	; 0x30
100024aa:	290b      	cmp	r1, #11
100024ac:	f880 c00a 	strb.w	ip, [r0, #10]
100024b0:	d035      	beq.n	1000251e <pico_get_unique_board_id_string+0x172>
100024b2:	f003 030f 	and.w	r3, r3, #15
100024b6:	2b09      	cmp	r3, #9
100024b8:	bfcc      	ite	gt
100024ba:	3337      	addgt	r3, #55	; 0x37
100024bc:	3330      	addle	r3, #48	; 0x30
100024be:	290c      	cmp	r1, #12
100024c0:	72c3      	strb	r3, [r0, #11]
100024c2:	d02c      	beq.n	1000251e <pico_get_unique_board_id_string+0x172>
100024c4:	7993      	ldrb	r3, [r2, #6]
100024c6:	ea4f 1c23 	mov.w	ip, r3, asr #4
100024ca:	2b9f      	cmp	r3, #159	; 0x9f
100024cc:	bf8c      	ite	hi
100024ce:	f10c 0c37 	addhi.w	ip, ip, #55	; 0x37
100024d2:	f10c 0c30 	addls.w	ip, ip, #48	; 0x30
100024d6:	290d      	cmp	r1, #13
100024d8:	f880 c00c 	strb.w	ip, [r0, #12]
100024dc:	d01f      	beq.n	1000251e <pico_get_unique_board_id_string+0x172>
100024de:	f003 030f 	and.w	r3, r3, #15
100024e2:	2b09      	cmp	r3, #9
100024e4:	bfcc      	ite	gt
100024e6:	3337      	addgt	r3, #55	; 0x37
100024e8:	3330      	addle	r3, #48	; 0x30
100024ea:	290e      	cmp	r1, #14
100024ec:	7343      	strb	r3, [r0, #13]
100024ee:	d016      	beq.n	1000251e <pico_get_unique_board_id_string+0x172>
100024f0:	79d3      	ldrb	r3, [r2, #7]
100024f2:	111a      	asrs	r2, r3, #4
100024f4:	2b9f      	cmp	r3, #159	; 0x9f
100024f6:	bf8c      	ite	hi
100024f8:	3237      	addhi	r2, #55	; 0x37
100024fa:	3230      	addls	r2, #48	; 0x30
100024fc:	290f      	cmp	r1, #15
100024fe:	7382      	strb	r2, [r0, #14]
10002500:	d00d      	beq.n	1000251e <pico_get_unique_board_id_string+0x172>
10002502:	f003 030f 	and.w	r3, r3, #15
10002506:	2b09      	cmp	r3, #9
10002508:	bfd4      	ite	le
1000250a:	3330      	addle	r3, #48	; 0x30
1000250c:	3337      	addgt	r3, #55	; 0x37
1000250e:	2910      	cmp	r1, #16
10002510:	73c3      	strb	r3, [r0, #15]
10002512:	bf18      	it	ne
10002514:	3010      	addne	r0, #16
10002516:	d002      	beq.n	1000251e <pico_get_unique_board_id_string+0x172>
10002518:	2300      	movs	r3, #0
1000251a:	7003      	strb	r3, [r0, #0]
1000251c:	4770      	bx	lr
1000251e:	2300      	movs	r3, #0
10002520:	4408      	add	r0, r1
10002522:	7003      	strb	r3, [r0, #0]
10002524:	4770      	bx	lr
10002526:	bf00      	nop
10002528:	2000216c 	.word	0x2000216c

1000252c <dcd_init>:
1000252c:	b5f8      	push	{r3, r4, r5, r6, r7, lr}
1000252e:	f000 f93b 	bl	100027a8 <rp2040_usb_init>
10002532:	230c      	movs	r3, #12
10002534:	2740      	movs	r7, #64	; 0x40
10002536:	4d1a      	ldr	r5, [pc, #104]	; (100025a0 <dcd_init+0x74>)
10002538:	4c1a      	ldr	r4, [pc, #104]	; (100025a4 <dcd_init+0x78>)
1000253a:	67ab      	str	r3, [r5, #120]	; 0x78
1000253c:	22ff      	movs	r2, #255	; 0xff
1000253e:	200e      	movs	r0, #14
10002540:	4919      	ldr	r1, [pc, #100]	; (100025a8 <dcd_init+0x7c>)
10002542:	f7fe f9ef 	bl	10000924 <irq_add_shared_handler>
10002546:	463a      	mov	r2, r7
10002548:	2100      	movs	r1, #0
1000254a:	4620      	mov	r0, r4
1000254c:	f005 fb44 	bl	10007bd8 <memset>
10002550:	4b16      	ldr	r3, [pc, #88]	; (100025ac <dcd_init+0x80>)
10002552:	2601      	movs	r6, #1
10002554:	62a3      	str	r3, [r4, #40]	; 0x28
10002556:	2180      	movs	r1, #128	; 0x80
10002558:	2300      	movs	r3, #0
1000255a:	4a15      	ldr	r2, [pc, #84]	; (100025b0 <dcd_init+0x84>)
1000255c:	7066      	strb	r6, [r4, #1]
1000255e:	60a2      	str	r2, [r4, #8]
10002560:	3a84      	subs	r2, #132	; 0x84
10002562:	8327      	strh	r7, [r4, #24]
10002564:	8727      	strh	r7, [r4, #56]	; 0x38
10002566:	8461      	strh	r1, [r4, #34]	; 0x22
10002568:	f8c2 3084 	str.w	r3, [r2, #132]	; 0x84
1000256c:	f8c2 3080 	str.w	r3, [r2, #128]	; 0x80
10002570:	6063      	str	r3, [r4, #4]
10002572:	f884 3021 	strb.w	r3, [r4, #33]	; 0x21
10002576:	f884 303b 	strb.w	r3, [r4, #59]	; 0x3b
1000257a:	6263      	str	r3, [r4, #36]	; 0x24
1000257c:	4b0d      	ldr	r3, [pc, #52]	; (100025b4 <dcd_init+0x88>)
1000257e:	60e3      	str	r3, [r4, #12]
10002580:	62e3      	str	r3, [r4, #44]	; 0x2c
10002582:	f005 fbed 	bl	10007d60 <__reset_non_control_endpoints_veneer>
10002586:	f04f 5400 	mov.w	r4, #536870912	; 0x20000000
1000258a:	f44f 3280 	mov.w	r2, #65536	; 0x10000
1000258e:	490a      	ldr	r1, [pc, #40]	; (100025b8 <dcd_init+0x8c>)
10002590:	4b0a      	ldr	r3, [pc, #40]	; (100025bc <dcd_init+0x90>)
10002592:	642e      	str	r6, [r5, #64]	; 0x40
10002594:	4630      	mov	r0, r6
10002596:	64ec      	str	r4, [r5, #76]	; 0x4c
10002598:	f8c5 1090 	str.w	r1, [r5, #144]	; 0x90
1000259c:	64da      	str	r2, [r3, #76]	; 0x4c
1000259e:	bdf8      	pop	{r3, r4, r5, r6, r7, pc}
100025a0:	50110000 	.word	0x50110000
100025a4:	20001a94 	.word	0x20001a94
100025a8:	200003bd 	.word	0x200003bd
100025ac:	50100080 	.word	0x50100080
100025b0:	50100084 	.word	0x50100084
100025b4:	50100100 	.word	0x50100100
100025b8:	0001d010 	.word	0x0001d010
100025bc:	50112000 	.word	0x50112000

100025c0 <dcd_int_enable>:
100025c0:	2101      	movs	r1, #1
100025c2:	200e      	movs	r0, #14
100025c4:	f7fe b93a 	b.w	1000083c <irq_set_enabled>

100025c8 <dcd_set_address>:
100025c8:	2200      	movs	r2, #0
100025ca:	4802      	ldr	r0, [pc, #8]	; (100025d4 <dcd_set_address+0xc>)
100025cc:	4611      	mov	r1, r2
100025ce:	f000 b90b 	b.w	100027e8 <hw_endpoint_xfer_start>
100025d2:	bf00      	nop
100025d4:	20001ab4 	.word	0x20001ab4

100025d8 <dcd_sof_enable>:
100025d8:	4b04      	ldr	r3, [pc, #16]	; (100025ec <dcd_sof_enable+0x14>)
100025da:	7019      	strb	r1, [r3, #0]
100025dc:	b121      	cbz	r1, 100025e8 <dcd_sof_enable+0x10>
100025de:	f44f 3200 	mov.w	r2, #131072	; 0x20000
100025e2:	4b03      	ldr	r3, [pc, #12]	; (100025f0 <dcd_sof_enable+0x18>)
100025e4:	f8c3 2090 	str.w	r2, [r3, #144]	; 0x90
100025e8:	4770      	bx	lr
100025ea:	bf00      	nop
100025ec:	2002229d 	.word	0x2002229d
100025f0:	50112000 	.word	0x50112000

100025f4 <dcd_edpt0_status_complete>:
100025f4:	780b      	ldrb	r3, [r1, #0]
100025f6:	065b      	lsls	r3, r3, #25
100025f8:	d102      	bne.n	10002600 <dcd_edpt0_status_complete+0xc>
100025fa:	784b      	ldrb	r3, [r1, #1]
100025fc:	2b05      	cmp	r3, #5
100025fe:	d000      	beq.n	10002602 <dcd_edpt0_status_complete+0xe>
10002600:	4770      	bx	lr
10002602:	884b      	ldrh	r3, [r1, #2]
10002604:	4a01      	ldr	r2, [pc, #4]	; (1000260c <dcd_edpt0_status_complete+0x18>)
10002606:	b2db      	uxtb	r3, r3
10002608:	6013      	str	r3, [r2, #0]
1000260a:	4770      	bx	lr
1000260c:	50110000 	.word	0x50110000

10002610 <dcd_edpt_open>:
10002610:	78cb      	ldrb	r3, [r1, #3]
10002612:	e92d 41f0 	stmdb	sp!, {r4, r5, r6, r7, r8, lr}
10002616:	f003 0e03 	and.w	lr, r3, #3
1000261a:	f1be 0f01 	cmp.w	lr, #1
1000261e:	f3c3 0001 	ubfx	r0, r3, #0, #2
10002622:	d05f      	beq.n	100026e4 <dcd_edpt_open+0xd4>
10002624:	2700      	movs	r7, #0
10002626:	f891 c002 	ldrb.w	ip, [r1, #2]
1000262a:	4d37      	ldr	r5, [pc, #220]	; (10002708 <dcd_edpt_open+0xf8>)
1000262c:	f00c 027f 	and.w	r2, ip, #127	; 0x7f
10002630:	0056      	lsls	r6, r2, #1
10002632:	8889      	ldrh	r1, [r1, #4]
10002634:	eb06 13dc 	add.w	r3, r6, ip, lsr #7
10002638:	eb05 1343 	add.w	r3, r5, r3, lsl #5
1000263c:	ea4f 14dc 	mov.w	r4, ip, lsr #7
10002640:	f3c1 010a 	ubfx	r1, r1, #0, #11
10002644:	76d8      	strb	r0, [r3, #27]
10002646:	f084 0001 	eor.w	r0, r4, #1
1000264a:	f883 c002 	strb.w	ip, [r3, #2]
1000264e:	8319      	strh	r1, [r3, #24]
10002650:	7058      	strb	r0, [r3, #1]
10002652:	70df      	strb	r7, [r3, #3]
10002654:	bb94      	cbnz	r4, 100026bc <dcd_edpt_open+0xac>
10002656:	2304      	movs	r3, #4
10002658:	482c      	ldr	r0, [pc, #176]	; (1000270c <dcd_edpt_open+0xfc>)
1000265a:	eb03 03c2 	add.w	r3, r3, r2, lsl #3
1000265e:	eb05 1c82 	add.w	ip, r5, r2, lsl #6
10002662:	eb03 0800 	add.w	r8, r3, r0
10002666:	f8cc 8008 	str.w	r8, [ip, #8]
1000266a:	501f      	str	r7, [r3, r0]
1000266c:	b38a      	cbz	r2, 100026d2 <dcd_edpt_open+0xc2>
1000266e:	4b28      	ldr	r3, [pc, #160]	; (10002710 <dcd_edpt_open+0x100>)
10002670:	00d2      	lsls	r2, r2, #3
10002672:	4413      	add	r3, r2
10002674:	f8cc 3004 	str.w	r3, [ip, #4]
10002678:	313f      	adds	r1, #63	; 0x3f
1000267a:	f1be 0f02 	cmp.w	lr, #2
1000267e:	f021 013f 	bic.w	r1, r1, #63	; 0x3f
10002682:	d03a      	beq.n	100026fa <dcd_edpt_open+0xea>
10002684:	4a23      	ldr	r2, [pc, #140]	; (10002714 <dcd_edpt_open+0x104>)
10002686:	1937      	adds	r7, r6, r4
10002688:	6813      	ldr	r3, [r2, #0]
1000268a:	eb05 1747 	add.w	r7, r5, r7, lsl #5
1000268e:	4419      	add	r1, r3
10002690:	6011      	str	r1, [r2, #0]
10002692:	4a21      	ldr	r2, [pc, #132]	; (10002718 <dcd_edpt_open+0x108>)
10002694:	60fb      	str	r3, [r7, #12]
10002696:	4291      	cmp	r1, r2
10002698:	d831      	bhi.n	100026fe <dcd_edpt_open+0xee>
1000269a:	4434      	add	r4, r6
1000269c:	eb05 1544 	add.w	r5, r5, r4, lsl #5
100026a0:	7ee9      	ldrb	r1, [r5, #27]
100026a2:	f083 43a0 	eor.w	r3, r3, #1342177280	; 0x50000000
100026a6:	f483 1380 	eor.w	r3, r3, #1048576	; 0x100000
100026aa:	686a      	ldr	r2, [r5, #4]
100026ac:	ea43 6381 	orr.w	r3, r3, r1, lsl #26
100026b0:	f043 4300 	orr.w	r3, r3, #2147483648	; 0x80000000
100026b4:	2001      	movs	r0, #1
100026b6:	6013      	str	r3, [r2, #0]
100026b8:	e8bd 81f0 	ldmia.w	sp!, {r4, r5, r6, r7, r8, pc}
100026bc:	4813      	ldr	r0, [pc, #76]	; (1000270c <dcd_edpt_open+0xfc>)
100026be:	b213      	sxth	r3, r2
100026c0:	eb00 08c2 	add.w	r8, r0, r2, lsl #3
100026c4:	eb05 1c82 	add.w	ip, r5, r2, lsl #6
100026c8:	f8cc 8028 	str.w	r8, [ip, #40]	; 0x28
100026cc:	f840 7033 	str.w	r7, [r0, r3, lsl #3]
100026d0:	b95a      	cbnz	r2, 100026ea <dcd_edpt_open+0xda>
100026d2:	2300      	movs	r3, #0
100026d4:	4a11      	ldr	r2, [pc, #68]	; (1000271c <dcd_edpt_open+0x10c>)
100026d6:	eb05 1444 	add.w	r4, r5, r4, lsl #5
100026da:	2001      	movs	r0, #1
100026dc:	60e2      	str	r2, [r4, #12]
100026de:	6063      	str	r3, [r4, #4]
100026e0:	e8bd 81f0 	ldmia.w	sp!, {r4, r5, r6, r7, r8, pc}
100026e4:	2000      	movs	r0, #0
100026e6:	e8bd 81f0 	ldmia.w	sp!, {r4, r5, r6, r7, r8, pc}
100026ea:	00d2      	lsls	r2, r2, #3
100026ec:	f102 42a0 	add.w	r2, r2, #1342177280	; 0x50000000
100026f0:	f502 1280 	add.w	r2, r2, #1048576	; 0x100000
100026f4:	f8cc 2024 	str.w	r2, [ip, #36]	; 0x24
100026f8:	e7be      	b.n	10002678 <dcd_edpt_open+0x68>
100026fa:	0049      	lsls	r1, r1, #1
100026fc:	e7c2      	b.n	10002684 <dcd_edpt_open+0x74>
100026fe:	f7ff f917 	bl	10001930 <hard_assertion_failure>
10002702:	68fb      	ldr	r3, [r7, #12]
10002704:	e7c9      	b.n	1000269a <dcd_edpt_open+0x8a>
10002706:	bf00      	nop
10002708:	20001a94 	.word	0x20001a94
1000270c:	50100080 	.word	0x50100080
10002710:	50100004 	.word	0x50100004
10002714:	20001e9c 	.word	0x20001e9c
10002718:	50100fff 	.word	0x50100fff
1000271c:	50100100 	.word	0x50100100

10002720 <dcd_edpt_close_all>:
10002720:	f005 bb1e 	b.w	10007d60 <__reset_non_control_endpoints_veneer>

10002724 <dcd_edpt_xfer>:
10002724:	468c      	mov	ip, r1
10002726:	b508      	push	{r3, lr}
10002728:	4611      	mov	r1, r2
1000272a:	4807      	ldr	r0, [pc, #28]	; (10002748 <dcd_edpt_xfer+0x24>)
1000272c:	461a      	mov	r2, r3
1000272e:	f00c 037f 	and.w	r3, ip, #127	; 0x7f
10002732:	ea4f 1cdc 	mov.w	ip, ip, lsr #7
10002736:	eb0c 0c43 	add.w	ip, ip, r3, lsl #1
1000273a:	eb00 104c 	add.w	r0, r0, ip, lsl #5
1000273e:	f000 f853 	bl	100027e8 <hw_endpoint_xfer_start>
10002742:	2001      	movs	r0, #1
10002744:	bd08      	pop	{r3, pc}
10002746:	bf00      	nop
10002748:	20001a94 	.word	0x20001a94

1000274c <dcd_edpt_stall>:
1000274c:	f011 007f 	ands.w	r0, r1, #127	; 0x7f
10002750:	d00a      	beq.n	10002768 <dcd_edpt_stall+0x1c>
10002752:	09c9      	lsrs	r1, r1, #7
10002754:	4b07      	ldr	r3, [pc, #28]	; (10002774 <dcd_edpt_stall+0x28>)
10002756:	eb01 0040 	add.w	r0, r1, r0, lsl #1
1000275a:	f44f 6200 	mov.w	r2, #2048	; 0x800
1000275e:	2100      	movs	r1, #0
10002760:	eb03 1040 	add.w	r0, r3, r0, lsl #5
10002764:	f005 bb04 	b.w	10007d70 <___hw_endpoint_buffer_control_update32_veneer>
10002768:	4b03      	ldr	r3, [pc, #12]	; (10002778 <dcd_edpt_stall+0x2c>)
1000276a:	09c9      	lsrs	r1, r1, #7
1000276c:	f1c1 0202 	rsb	r2, r1, #2
10002770:	669a      	str	r2, [r3, #104]	; 0x68
10002772:	e7ef      	b.n	10002754 <dcd_edpt_stall+0x8>
10002774:	20001a94 	.word	0x20001a94
10002778:	50112000 	.word	0x50112000

1000277c <dcd_edpt_clear_stall>:
1000277c:	f011 037f 	ands.w	r3, r1, #127	; 0x7f
10002780:	d100      	bne.n	10002784 <dcd_edpt_clear_stall+0x8>
10002782:	4770      	bx	lr
10002784:	2200      	movs	r2, #0
10002786:	b410      	push	{r4}
10002788:	09c8      	lsrs	r0, r1, #7
1000278a:	4c06      	ldr	r4, [pc, #24]	; (100027a4 <dcd_edpt_clear_stall+0x28>)
1000278c:	eb00 0043 	add.w	r0, r0, r3, lsl #1
10002790:	eb04 1340 	add.w	r3, r4, r0, lsl #5
10002794:	f46f 6100 	mvn.w	r1, #2048	; 0x800
10002798:	4618      	mov	r0, r3
1000279a:	f85d 4b04 	ldr.w	r4, [sp], #4
1000279e:	70da      	strb	r2, [r3, #3]
100027a0:	f005 bae6 	b.w	10007d70 <___hw_endpoint_buffer_control_update32_veneer>
100027a4:	20001a94 	.word	0x20001a94

100027a8 <rp2040_usb_init>:
100027a8:	f04f 5280 	mov.w	r2, #268435456	; 0x10000000
100027ac:	4809      	ldr	r0, [pc, #36]	; (100027d4 <rp2040_usb_init+0x2c>)
100027ae:	490a      	ldr	r1, [pc, #40]	; (100027d8 <rp2040_usb_init+0x30>)
100027b0:	b508      	push	{r3, lr}
100027b2:	4b0a      	ldr	r3, [pc, #40]	; (100027dc <rp2040_usb_init+0x34>)
100027b4:	6002      	str	r2, [r0, #0]
100027b6:	600a      	str	r2, [r1, #0]
100027b8:	6899      	ldr	r1, [r3, #8]
100027ba:	43c9      	mvns	r1, r1
100027bc:	f011 5180 	ands.w	r1, r1, #268435456	; 0x10000000
100027c0:	d1fa      	bne.n	100027b8 <rp2040_usb_init+0x10>
100027c2:	f44f 5280 	mov.w	r2, #4096	; 0x1000
100027c6:	4806      	ldr	r0, [pc, #24]	; (100027e0 <rp2040_usb_init+0x38>)
100027c8:	f005 fa06 	bl	10007bd8 <memset>
100027cc:	2209      	movs	r2, #9
100027ce:	4b05      	ldr	r3, [pc, #20]	; (100027e4 <rp2040_usb_init+0x3c>)
100027d0:	675a      	str	r2, [r3, #116]	; 0x74
100027d2:	bd08      	pop	{r3, pc}
100027d4:	40022000 	.word	0x40022000
100027d8:	40023000 	.word	0x40023000
100027dc:	40020000 	.word	0x40020000
100027e0:	50100000 	.word	0x50100000
100027e4:	50110000 	.word	0x50110000

100027e8 <hw_endpoint_xfer_start>:
100027e8:	7e83      	ldrb	r3, [r0, #26]
100027ea:	b510      	push	{r4, lr}
100027ec:	4604      	mov	r4, r0
100027ee:	b9bb      	cbnz	r3, 10002820 <hw_endpoint_xfer_start+0x38>
100027f0:	f04f 0c00 	mov.w	ip, #0
100027f4:	2301      	movs	r3, #1
100027f6:	4620      	mov	r0, r4
100027f8:	82a2      	strh	r2, [r4, #20]
100027fa:	6121      	str	r1, [r4, #16]
100027fc:	f8a4 c016 	strh.w	ip, [r4, #22]
10002800:	76a3      	strb	r3, [r4, #26]
10002802:	f005 fa75 	bl	10007cf0 <__e15_is_bulkin_ep_veneer>
10002806:	b120      	cbz	r0, 10002812 <hw_endpoint_xfer_start+0x2a>
10002808:	f44f 3200 	mov.w	r2, #131072	; 0x20000
1000280c:	4b08      	ldr	r3, [pc, #32]	; (10002830 <hw_endpoint_xfer_start+0x48>)
1000280e:	f8c3 2090 	str.w	r2, [r3, #144]	; 0x90
10002812:	4620      	mov	r0, r4
10002814:	f005 fab4 	bl	10007d80 <__e15_is_critical_frame_period_veneer>
10002818:	b128      	cbz	r0, 10002826 <hw_endpoint_xfer_start+0x3e>
1000281a:	2301      	movs	r3, #1
1000281c:	7723      	strb	r3, [r4, #28]
1000281e:	bd10      	pop	{r4, pc}
10002820:	f005 fa96 	bl	10007d50 <__hw_endpoint_reset_transfer_veneer>
10002824:	e7e4      	b.n	100027f0 <hw_endpoint_xfer_start+0x8>
10002826:	4620      	mov	r0, r4
10002828:	e8bd 4010 	ldmia.w	sp!, {r4, lr}
1000282c:	f005 ba88 	b.w	10007d40 <__hw_endpoint_start_next_buffer_veneer>
10002830:	50112000 	.word	0x50112000

10002834 <configuration_reset>:
10002834:	e92d 41f0 	stmdb	sp!, {r4, r5, r6, r7, r8, lr}
10002838:	2400      	movs	r4, #0
1000283a:	4d1d      	ldr	r5, [pc, #116]	; (100028b0 <configuration_reset+0x7c>)
1000283c:	4680      	mov	r8, r0
1000283e:	4623      	mov	r3, r4
10002840:	782a      	ldrb	r2, [r5, #0]
10002842:	4f1c      	ldr	r7, [pc, #112]	; (100028b4 <configuration_reset+0x80>)
10002844:	4e1c      	ldr	r6, [pc, #112]	; (100028b8 <configuration_reset+0x84>)
10002846:	e00d      	b.n	10002864 <configuration_reset+0x30>
10002848:	6833      	ldr	r3, [r6, #0]
1000284a:	eb13 1344 	adds.w	r3, r3, r4, lsl #5
1000284e:	d025      	beq.n	1000289c <configuration_reset+0x68>
10002850:	68db      	ldr	r3, [r3, #12]
10002852:	4640      	mov	r0, r8
10002854:	4798      	blx	r3
10002856:	782a      	ldrb	r2, [r5, #0]
10002858:	3401      	adds	r4, #1
1000285a:	b2e4      	uxtb	r4, r4
1000285c:	1c51      	adds	r1, r2, #1
1000285e:	42a1      	cmp	r1, r4
10002860:	4623      	mov	r3, r4
10002862:	db06      	blt.n	10002872 <configuration_reset+0x3e>
10002864:	42a2      	cmp	r2, r4
10002866:	eba3 0302 	sub.w	r3, r3, r2
1000286a:	d8ed      	bhi.n	10002848 <configuration_reset+0x14>
1000286c:	eb07 1343 	add.w	r3, r7, r3, lsl #5
10002870:	e7ee      	b.n	10002850 <configuration_reset+0x1c>
10002872:	4c12      	ldr	r4, [pc, #72]	; (100028bc <configuration_reset+0x88>)
10002874:	2254      	movs	r2, #84	; 0x54
10002876:	2100      	movs	r1, #0
10002878:	4620      	mov	r0, r4
1000287a:	f005 f9ad 	bl	10007bd8 <memset>
1000287e:	f04f 33ff 	mov.w	r3, #4294967295	; 0xffffffff
10002882:	1d25      	adds	r5, r4, #4
10002884:	6063      	str	r3, [r4, #4]
10002886:	e9c5 3301 	strd	r3, r3, [r5, #4]
1000288a:	60eb      	str	r3, [r5, #12]
1000288c:	f104 0014 	add.w	r0, r4, #20
10002890:	2220      	movs	r2, #32
10002892:	e8bd 41f0 	ldmia.w	sp!, {r4, r5, r6, r7, r8, lr}
10002896:	21ff      	movs	r1, #255	; 0xff
10002898:	f005 b99e 	b.w	10007bd8 <memset>
1000289c:	f04f 23e0 	mov.w	r3, #3758153728	; 0xe000e000
100028a0:	f8d3 3df0 	ldr.w	r3, [r3, #3568]	; 0xdf0
100028a4:	07db      	lsls	r3, r3, #31
100028a6:	d500      	bpl.n	100028aa <configuration_reset+0x76>
100028a8:	be00      	bkpt	0x0000
100028aa:	e8bd 81f0 	ldmia.w	sp!, {r4, r5, r6, r7, r8, pc}
100028ae:	bf00      	nop
100028b0:	2002229c 	.word	0x2002229c
100028b4:	10008130 	.word	0x10008130
100028b8:	20001464 	.word	0x20001464
100028bc:	20001634 	.word	0x20001634

100028c0 <tud_event_hook_cb>:
100028c0:	4770      	bx	lr
100028c2:	bf00      	nop

100028c4 <tud_sof_cb>:
100028c4:	4770      	bx	lr
100028c6:	bf00      	nop

100028c8 <tud_descriptor_device_qualifier_cb>:
100028c8:	2000      	movs	r0, #0
100028ca:	4770      	bx	lr

100028cc <tud_descriptor_other_speed_configuration_cb>:
100028cc:	2000      	movs	r0, #0
100028ce:	4770      	bx	lr

100028d0 <tud_mount_cb>:
100028d0:	4770      	bx	lr
100028d2:	bf00      	nop

100028d4 <tud_umount_cb>:
100028d4:	4770      	bx	lr
100028d6:	bf00      	nop

100028d8 <tud_suspend_cb>:
100028d8:	4770      	bx	lr
100028da:	bf00      	nop

100028dc <tud_resume_cb>:
100028dc:	4770      	bx	lr
100028de:	bf00      	nop

100028e0 <tud_mounted>:
100028e0:	4b02      	ldr	r3, [pc, #8]	; (100028ec <tud_mounted+0xc>)
100028e2:	7858      	ldrb	r0, [r3, #1]
100028e4:	3800      	subs	r0, #0
100028e6:	bf18      	it	ne
100028e8:	2001      	movne	r0, #1
100028ea:	4770      	bx	lr
100028ec:	20001634 	.word	0x20001634

100028f0 <tud_suspended>:
100028f0:	4b02      	ldr	r3, [pc, #8]	; (100028fc <tud_suspended+0xc>)
100028f2:	7818      	ldrb	r0, [r3, #0]
100028f4:	f3c0 0080 	ubfx	r0, r0, #2, #1
100028f8:	4770      	bx	lr
100028fa:	bf00      	nop
100028fc:	20001634 	.word	0x20001634

10002900 <tud_rhport_init>:
10002900:	e92d 47f0 	stmdb	sp!, {r4, r5, r6, r7, r8, r9, sl, lr}
10002904:	f8df 8100 	ldr.w	r8, [pc, #256]	; 10002a08 <tud_rhport_init+0x108>
10002908:	f898 3000 	ldrb.w	r3, [r8]
1000290c:	2bff      	cmp	r3, #255	; 0xff
1000290e:	d14d      	bne.n	100029ac <tud_rhport_init+0xac>
10002910:	460d      	mov	r5, r1
10002912:	2900      	cmp	r1, #0
10002914:	d04e      	beq.n	100029b4 <tud_rhport_init+0xb4>
10002916:	2100      	movs	r1, #0
10002918:	2254      	movs	r2, #84	; 0x54
1000291a:	4607      	mov	r7, r0
1000291c:	4831      	ldr	r0, [pc, #196]	; (100029e4 <tud_rhport_init+0xe4>)
1000291e:	f005 f95b 	bl	10007bd8 <memset>
10002922:	2200      	movs	r2, #0
10002924:	4c30      	ldr	r4, [pc, #192]	; (100029e8 <tud_rhport_init+0xe8>)
10002926:	4b31      	ldr	r3, [pc, #196]	; (100029ec <tud_rhport_init+0xec>)
10002928:	4620      	mov	r0, r4
1000292a:	701a      	strb	r2, [r3, #0]
1000292c:	f7fe faa2 	bl	10000e74 <mutex_init>
10002930:	4b2f      	ldr	r3, [pc, #188]	; (100029f0 <tud_rhport_init+0xf0>)
10002932:	601c      	str	r4, [r3, #0]
10002934:	4c2f      	ldr	r4, [pc, #188]	; (100029f4 <tud_rhport_init+0xf4>)
10002936:	f104 0014 	add.w	r0, r4, #20
1000293a:	f7fe faa9 	bl	10000e90 <critical_section_init>
1000293e:	4620      	mov	r0, r4
10002940:	f001 fdee 	bl	10004520 <tu_fifo_clear>
10002944:	4b2c      	ldr	r3, [pc, #176]	; (100029f8 <tud_rhport_init+0xf8>)
10002946:	601c      	str	r4, [r3, #0]
10002948:	4b2c      	ldr	r3, [pc, #176]	; (100029fc <tud_rhport_init+0xfc>)
1000294a:	b123      	cbz	r3, 10002956 <tud_rhport_init+0x56>
1000294c:	482c      	ldr	r0, [pc, #176]	; (10002a00 <tud_rhport_init+0x100>)
1000294e:	f7ff fac3 	bl	10001ed8 <usbd_app_driver_get_cb>
10002952:	4b2c      	ldr	r3, [pc, #176]	; (10002a04 <tud_rhport_init+0x104>)
10002954:	6018      	str	r0, [r3, #0]
10002956:	2400      	movs	r4, #0
10002958:	4e29      	ldr	r6, [pc, #164]	; (10002a00 <tud_rhport_init+0x100>)
1000295a:	4623      	mov	r3, r4
1000295c:	7832      	ldrb	r2, [r6, #0]
1000295e:	f8df a0ac 	ldr.w	sl, [pc, #172]	; 10002a0c <tud_rhport_init+0x10c>
10002962:	f8df 90a0 	ldr.w	r9, [pc, #160]	; 10002a04 <tud_rhport_init+0x104>
10002966:	e00e      	b.n	10002986 <tud_rhport_init+0x86>
10002968:	f8d9 3000 	ldr.w	r3, [r9]
1000296c:	eb13 1344 	adds.w	r3, r3, r4, lsl #5
10002970:	d011      	beq.n	10002996 <tud_rhport_init+0x96>
10002972:	685b      	ldr	r3, [r3, #4]
10002974:	b17b      	cbz	r3, 10002996 <tud_rhport_init+0x96>
10002976:	4798      	blx	r3
10002978:	7832      	ldrb	r2, [r6, #0]
1000297a:	3401      	adds	r4, #1
1000297c:	b2e4      	uxtb	r4, r4
1000297e:	1c51      	adds	r1, r2, #1
10002980:	42a1      	cmp	r1, r4
10002982:	4623      	mov	r3, r4
10002984:	db20      	blt.n	100029c8 <tud_rhport_init+0xc8>
10002986:	42a2      	cmp	r2, r4
10002988:	d8ee      	bhi.n	10002968 <tud_rhport_init+0x68>
1000298a:	1a9b      	subs	r3, r3, r2
1000298c:	eb0a 1343 	add.w	r3, sl, r3, lsl #5
10002990:	685b      	ldr	r3, [r3, #4]
10002992:	2b00      	cmp	r3, #0
10002994:	d1ef      	bne.n	10002976 <tud_rhport_init+0x76>
10002996:	f04f 23e0 	mov.w	r3, #3758153728	; 0xe000e000
1000299a:	f8d3 3df0 	ldr.w	r3, [r3, #3568]	; 0xdf0
1000299e:	07da      	lsls	r2, r3, #31
100029a0:	d500      	bpl.n	100029a4 <tud_rhport_init+0xa4>
100029a2:	be00      	bkpt	0x0000
100029a4:	2500      	movs	r5, #0
100029a6:	4628      	mov	r0, r5
100029a8:	e8bd 87f0 	ldmia.w	sp!, {r4, r5, r6, r7, r8, r9, sl, pc}
100029ac:	2501      	movs	r5, #1
100029ae:	4628      	mov	r0, r5
100029b0:	e8bd 87f0 	ldmia.w	sp!, {r4, r5, r6, r7, r8, r9, sl, pc}
100029b4:	f04f 23e0 	mov.w	r3, #3758153728	; 0xe000e000
100029b8:	f8d3 3df0 	ldr.w	r3, [r3, #3568]	; 0xdf0
100029bc:	07db      	lsls	r3, r3, #31
100029be:	d5f1      	bpl.n	100029a4 <tud_rhport_init+0xa4>
100029c0:	be00      	bkpt	0x0000
100029c2:	4628      	mov	r0, r5
100029c4:	e8bd 87f0 	ldmia.w	sp!, {r4, r5, r6, r7, r8, r9, sl, pc}
100029c8:	4629      	mov	r1, r5
100029ca:	4638      	mov	r0, r7
100029cc:	f888 7000 	strb.w	r7, [r8]
100029d0:	f7ff fdac 	bl	1000252c <dcd_init>
100029d4:	4605      	mov	r5, r0
100029d6:	2800      	cmp	r0, #0
100029d8:	d0ec      	beq.n	100029b4 <tud_rhport_init+0xb4>
100029da:	4638      	mov	r0, r7
100029dc:	f7ff fdf0 	bl	100025c0 <dcd_int_enable>
100029e0:	e7e5      	b.n	100029ae <tud_rhport_init+0xae>
100029e2:	bf00      	nop
100029e4:	20001634 	.word	0x20001634
100029e8:	2000162c 	.word	0x2000162c
100029ec:	2002229e 	.word	0x2002229e
100029f0:	20001688 	.word	0x20001688
100029f4:	2000124c 	.word	0x2000124c
100029f8:	2000168c 	.word	0x2000168c
100029fc:	10001ed9 	.word	0x10001ed9
10002a00:	2002229c 	.word	0x2002229c
10002a04:	20001464 	.word	0x20001464
10002a08:	20001268 	.word	0x20001268
10002a0c:	10008130 	.word	0x10008130

10002a10 <tud_task_ext>:
10002a10:	e92d 4ff0 	stmdb	sp!, {r4, r5, r6, r7, r8, r9, sl, fp, lr}
10002a14:	f8df 92cc 	ldr.w	r9, [pc, #716]	; 10002ce4 <tud_task_ext+0x2d4>
10002a18:	b08b      	sub	sp, #44	; 0x2c
10002a1a:	f899 3000 	ldrb.w	r3, [r9]
10002a1e:	2bff      	cmp	r3, #255	; 0xff
10002a20:	f000 80ef 	beq.w	10002c02 <tud_task_ext+0x1f2>
10002a24:	4caa      	ldr	r4, [pc, #680]	; (10002cd0 <tud_task_ext+0x2c0>)
10002a26:	f8df a2c0 	ldr.w	sl, [pc, #704]	; 10002ce8 <tud_task_ext+0x2d8>
10002a2a:	f8df b2c0 	ldr.w	fp, [pc, #704]	; 10002cec <tud_task_ext+0x2dc>
10002a2e:	6825      	ldr	r5, [r4, #0]
10002a30:	696b      	ldr	r3, [r5, #20]
10002a32:	f3ef 8210 	mrs	r2, PRIMASK
10002a36:	b672      	cpsid	i
10002a38:	e8d3 0fcf 	ldaexb	r0, [r3]
10002a3c:	2101      	movs	r1, #1
10002a3e:	2800      	cmp	r0, #0
10002a40:	d1fa      	bne.n	10002a38 <tud_task_ext+0x28>
10002a42:	e8c3 1f40 	strexb	r0, r1, [r3]
10002a46:	2800      	cmp	r0, #0
10002a48:	d1f6      	bne.n	10002a38 <tud_task_ext+0x28>
10002a4a:	f3bf 8f5f 	dmb	sy
10002a4e:	61aa      	str	r2, [r5, #24]
10002a50:	4628      	mov	r0, r5
10002a52:	a907      	add	r1, sp, #28
10002a54:	f001 fbc0 	bl	100041d8 <tu_fifo_read>
10002a58:	2300      	movs	r3, #0
10002a5a:	696a      	ldr	r2, [r5, #20]
10002a5c:	e8c2 3f8f 	stlb	r3, [r2]
10002a60:	69ab      	ldr	r3, [r5, #24]
10002a62:	f383 8810 	msr	PRIMASK, r3
10002a66:	2800      	cmp	r0, #0
10002a68:	f000 80cb 	beq.w	10002c02 <tud_task_ext+0x1f2>
10002a6c:	f89d 301d 	ldrb.w	r3, [sp, #29]
10002a70:	3b01      	subs	r3, #1
10002a72:	2b07      	cmp	r3, #7
10002a74:	f200 838e 	bhi.w	10003194 <tud_task_ext+0x784>
10002a78:	e8df f003 	tbb	[pc, r3]
10002a7c:	9a91b0a5 	.word	0x9a91b0a5
10002a80:	040a3689 	.word	0x040a3689
10002a84:	9b08      	ldr	r3, [sp, #32]
10002a86:	2b00      	cmp	r3, #0
10002a88:	d0d1      	beq.n	10002a2e <tud_task_ext+0x1e>
10002a8a:	9809      	ldr	r0, [sp, #36]	; 0x24
10002a8c:	4798      	blx	r3
10002a8e:	e7ce      	b.n	10002a2e <tud_task_ext+0x1e>
10002a90:	f89d 1020 	ldrb.w	r1, [sp, #32]
10002a94:	4b8f      	ldr	r3, [pc, #572]	; (10002cd4 <tud_task_ext+0x2c4>)
10002a96:	f001 057f 	and.w	r5, r1, #127	; 0x7f
10002a9a:	eb03 0345 	add.w	r3, r3, r5, lsl #1
10002a9e:	eb03 13d1 	add.w	r3, r3, r1, lsr #7
10002aa2:	f893 2034 	ldrb.w	r2, [r3, #52]	; 0x34
10002aa6:	f36f 0200 	bfc	r2, #0, #1
10002aaa:	f883 2034 	strb.w	r2, [r3, #52]	; 0x34
10002aae:	f893 2034 	ldrb.w	r2, [r3, #52]	; 0x34
10002ab2:	f36f 0282 	bfc	r2, #2, #1
10002ab6:	f883 2034 	strb.w	r2, [r3, #52]	; 0x34
10002aba:	2d00      	cmp	r5, #0
10002abc:	f000 80a4 	beq.w	10002c08 <tud_task_ext+0x1f8>
10002ac0:	4a85      	ldr	r2, [pc, #532]	; (10002cd8 <tud_task_ext+0x2c8>)
10002ac2:	7d1b      	ldrb	r3, [r3, #20]
10002ac4:	7812      	ldrb	r2, [r2, #0]
10002ac6:	4293      	cmp	r3, r2
10002ac8:	f080 8091 	bcs.w	10002bee <tud_task_ext+0x1de>
10002acc:	f8db 2000 	ldr.w	r2, [fp]
10002ad0:	eb12 1343 	adds.w	r3, r2, r3, lsl #5
10002ad4:	f000 808e 	beq.w	10002bf4 <tud_task_ext+0x1e4>
10002ad8:	699d      	ldr	r5, [r3, #24]
10002ada:	f89d 2021 	ldrb.w	r2, [sp, #33]	; 0x21
10002ade:	9b09      	ldr	r3, [sp, #36]	; 0x24
10002ae0:	f89d 001c 	ldrb.w	r0, [sp, #28]
10002ae4:	47a8      	blx	r5
10002ae6:	e7a2      	b.n	10002a2e <tud_task_ext+0x1e>
10002ae8:	4a7c      	ldr	r2, [pc, #496]	; (10002cdc <tud_task_ext+0x2cc>)
10002aea:	7813      	ldrb	r3, [r2, #0]
10002aec:	2b00      	cmp	r3, #0
10002aee:	f000 8081 	beq.w	10002bf4 <tud_task_ext+0x1e4>
10002af2:	7813      	ldrb	r3, [r2, #0]
10002af4:	3b01      	subs	r3, #1
10002af6:	b2db      	uxtb	r3, r3
10002af8:	7013      	strb	r3, [r2, #0]
10002afa:	7813      	ldrb	r3, [r2, #0]
10002afc:	f003 00ff 	and.w	r0, r3, #255	; 0xff
10002b00:	2b00      	cmp	r3, #0
10002b02:	d194      	bne.n	10002a2e <tud_task_ext+0x1e>
10002b04:	4d73      	ldr	r5, [pc, #460]	; (10002cd4 <tud_task_ext+0x2c4>)
10002b06:	f89d 801c 	ldrb.w	r8, [sp, #28]
10002b0a:	782b      	ldrb	r3, [r5, #0]
10002b0c:	f043 0301 	orr.w	r3, r3, #1
10002b10:	702b      	strb	r3, [r5, #0]
10002b12:	f895 3034 	ldrb.w	r3, [r5, #52]	; 0x34
10002b16:	f360 0300 	bfi	r3, r0, #0, #1
10002b1a:	f885 3034 	strb.w	r3, [r5, #52]	; 0x34
10002b1e:	f895 3034 	ldrb.w	r3, [r5, #52]	; 0x34
10002b22:	f360 0382 	bfi	r3, r0, #2, #1
10002b26:	f885 3034 	strb.w	r3, [r5, #52]	; 0x34
10002b2a:	f895 3035 	ldrb.w	r3, [r5, #53]	; 0x35
10002b2e:	f360 0300 	bfi	r3, r0, #0, #1
10002b32:	f885 3035 	strb.w	r3, [r5, #53]	; 0x35
10002b36:	f895 3035 	ldrb.w	r3, [r5, #53]	; 0x35
10002b3a:	f360 0382 	bfi	r3, r0, #2, #1
10002b3e:	f885 3035 	strb.w	r3, [r5, #53]	; 0x35
10002b42:	f000 fc8d 	bl	10003460 <usbd_control_set_complete_callback>
10002b46:	f89d 3020 	ldrb.w	r3, [sp, #32]
10002b4a:	f003 0260 	and.w	r2, r3, #96	; 0x60
10002b4e:	2a60      	cmp	r2, #96	; 0x60
10002b50:	d00b      	beq.n	10002b6a <tud_task_ext+0x15a>
10002b52:	2a40      	cmp	r2, #64	; 0x40
10002b54:	d064      	beq.n	10002c20 <tud_task_ext+0x210>
10002b56:	f003 031f 	and.w	r3, r3, #31
10002b5a:	2b01      	cmp	r3, #1
10002b5c:	f000 80c8 	beq.w	10002cf0 <tud_task_ext+0x2e0>
10002b60:	2b02      	cmp	r3, #2
10002b62:	f000 8089 	beq.w	10002c78 <tud_task_ext+0x268>
10002b66:	2b00      	cmp	r3, #0
10002b68:	d066      	beq.n	10002c38 <tud_task_ext+0x228>
10002b6a:	f04f 23e0 	mov.w	r3, #3758153728	; 0xe000e000
10002b6e:	f8d3 3df0 	ldr.w	r3, [r3, #3568]	; 0xdf0
10002b72:	07dd      	lsls	r5, r3, #31
10002b74:	d500      	bpl.n	10002b78 <tud_task_ext+0x168>
10002b76:	be00      	bkpt	0x0000
10002b78:	f89d 001c 	ldrb.w	r0, [sp, #28]
10002b7c:	2100      	movs	r1, #0
10002b7e:	f7ff fde5 	bl	1000274c <dcd_edpt_stall>
10002b82:	2180      	movs	r1, #128	; 0x80
10002b84:	f89d 001c 	ldrb.w	r0, [sp, #28]
10002b88:	f7ff fde0 	bl	1000274c <dcd_edpt_stall>
10002b8c:	e74f      	b.n	10002a2e <tud_task_ext+0x1e>
10002b8e:	4b51      	ldr	r3, [pc, #324]	; (10002cd4 <tud_task_ext+0x2c4>)
10002b90:	781b      	ldrb	r3, [r3, #0]
10002b92:	07d9      	lsls	r1, r3, #31
10002b94:	f57f af4b 	bpl.w	10002a2e <tud_task_ext+0x1e>
10002b98:	f7ff fea0 	bl	100028dc <tud_resume_cb>
10002b9c:	e747      	b.n	10002a2e <tud_task_ext+0x1e>
10002b9e:	4b4d      	ldr	r3, [pc, #308]	; (10002cd4 <tud_task_ext+0x2c4>)
10002ba0:	78db      	ldrb	r3, [r3, #3]
10002ba2:	07da      	lsls	r2, r3, #31
10002ba4:	f57f af43 	bpl.w	10002a2e <tud_task_ext+0x1e>
10002ba8:	9808      	ldr	r0, [sp, #32]
10002baa:	f7ff fe8b 	bl	100028c4 <tud_sof_cb>
10002bae:	e73e      	b.n	10002a2e <tud_task_ext+0x1e>
10002bb0:	4b48      	ldr	r3, [pc, #288]	; (10002cd4 <tud_task_ext+0x2c4>)
10002bb2:	781a      	ldrb	r2, [r3, #0]
10002bb4:	07d0      	lsls	r0, r2, #31
10002bb6:	f57f af3a 	bpl.w	10002a2e <tud_task_ext+0x1e>
10002bba:	7818      	ldrb	r0, [r3, #0]
10002bbc:	f3c0 00c0 	ubfx	r0, r0, #3, #1
10002bc0:	f7ff fe8a 	bl	100028d8 <tud_suspend_cb>
10002bc4:	e733      	b.n	10002a2e <tud_task_ext+0x1e>
10002bc6:	f89d 001c 	ldrb.w	r0, [sp, #28]
10002bca:	f7ff fe33 	bl	10002834 <configuration_reset>
10002bce:	f000 fc3d 	bl	1000344c <usbd_control_reset>
10002bd2:	4b40      	ldr	r3, [pc, #256]	; (10002cd4 <tud_task_ext+0x2c4>)
10002bd4:	f89d 2020 	ldrb.w	r2, [sp, #32]
10002bd8:	709a      	strb	r2, [r3, #2]
10002bda:	e728      	b.n	10002a2e <tud_task_ext+0x1e>
10002bdc:	f89d 001c 	ldrb.w	r0, [sp, #28]
10002be0:	f7ff fe28 	bl	10002834 <configuration_reset>
10002be4:	f000 fc32 	bl	1000344c <usbd_control_reset>
10002be8:	f7ff fe74 	bl	100028d4 <tud_umount_cb>
10002bec:	e71f      	b.n	10002a2e <tud_task_ext+0x1e>
10002bee:	1c50      	adds	r0, r2, #1
10002bf0:	4298      	cmp	r0, r3
10002bf2:	da11      	bge.n	10002c18 <tud_task_ext+0x208>
10002bf4:	f04f 23e0 	mov.w	r3, #3758153728	; 0xe000e000
10002bf8:	f8d3 3df0 	ldr.w	r3, [r3, #3568]	; 0xdf0
10002bfc:	07dc      	lsls	r4, r3, #31
10002bfe:	d500      	bpl.n	10002c02 <tud_task_ext+0x1f2>
10002c00:	be00      	bkpt	0x0000
10002c02:	b00b      	add	sp, #44	; 0x2c
10002c04:	e8bd 8ff0 	ldmia.w	sp!, {r4, r5, r6, r7, r8, r9, sl, fp, pc}
10002c08:	9b09      	ldr	r3, [sp, #36]	; 0x24
10002c0a:	f89d 2021 	ldrb.w	r2, [sp, #33]	; 0x21
10002c0e:	f89d 001c 	ldrb.w	r0, [sp, #28]
10002c12:	f000 fc39 	bl	10003488 <usbd_control_xfer_cb>
10002c16:	e70a      	b.n	10002a2e <tud_task_ext+0x1e>
10002c18:	1a9b      	subs	r3, r3, r2
10002c1a:	eb0a 1343 	add.w	r3, sl, r3, lsl #5
10002c1e:	e75b      	b.n	10002ad8 <tud_task_ext+0xc8>
10002c20:	482f      	ldr	r0, [pc, #188]	; (10002ce0 <tud_task_ext+0x2d0>)
10002c22:	f000 fc1d 	bl	10003460 <usbd_control_set_complete_callback>
10002c26:	4640      	mov	r0, r8
10002c28:	2101      	movs	r1, #1
10002c2a:	aa08      	add	r2, sp, #32
10002c2c:	f7ff f940 	bl	10001eb0 <tud_vendor_control_xfer_cb>
10002c30:	2800      	cmp	r0, #0
10002c32:	f47f aefc 	bne.w	10002a2e <tud_task_ext+0x1e>
10002c36:	e79f      	b.n	10002b78 <tud_task_ext+0x168>
10002c38:	2a20      	cmp	r2, #32
10002c3a:	f000 818d 	beq.w	10002f58 <tud_task_ext+0x548>
10002c3e:	2a00      	cmp	r2, #0
10002c40:	d193      	bne.n	10002b6a <tud_task_ext+0x15a>
10002c42:	f89d 3021 	ldrb.w	r3, [sp, #33]	; 0x21
10002c46:	2b09      	cmp	r3, #9
10002c48:	d88f      	bhi.n	10002b6a <tud_task_ext+0x15a>
10002c4a:	a201      	add	r2, pc, #4	; (adr r2, 10002c50 <tud_task_ext+0x240>)
10002c4c:	f852 f023 	ldr.w	pc, [r2, r3, lsl #2]
10002c50:	10002ef7 	.word	0x10002ef7
10002c54:	10002edb 	.word	0x10002edb
10002c58:	10002b6b 	.word	0x10002b6b
10002c5c:	10002f19 	.word	0x10002f19
10002c60:	10002b6b 	.word	0x10002b6b
10002c64:	10002ec1 	.word	0x10002ec1
10002c68:	10002e6f 	.word	0x10002e6f
10002c6c:	10002b6b 	.word	0x10002b6b
10002c70:	10002e59 	.word	0x10002e59
10002c74:	10002d7f 	.word	0x10002d7f
10002c78:	f89d 1024 	ldrb.w	r1, [sp, #36]	; 0x24
10002c7c:	f011 0f70 	tst.w	r1, #112	; 0x70
10002c80:	f47f af73 	bne.w	10002b6a <tud_task_ext+0x15a>
10002c84:	4b14      	ldr	r3, [pc, #80]	; (10002cd8 <tud_task_ext+0x2c8>)
10002c86:	f001 067f 	and.w	r6, r1, #127	; 0x7f
10002c8a:	7818      	ldrb	r0, [r3, #0]
10002c8c:	eb05 0346 	add.w	r3, r5, r6, lsl #1
10002c90:	eb03 13d1 	add.w	r3, r3, r1, lsr #7
10002c94:	7d1f      	ldrb	r7, [r3, #20]
10002c96:	09cb      	lsrs	r3, r1, #7
10002c98:	4287      	cmp	r7, r0
10002c9a:	ea4f 0646 	mov.w	r6, r6, lsl #1
10002c9e:	9301      	str	r3, [sp, #4]
10002ca0:	d35b      	bcc.n	10002d5a <tud_task_ext+0x34a>
10002ca2:	1c43      	adds	r3, r0, #1
10002ca4:	42bb      	cmp	r3, r7
10002ca6:	f2c0 8174 	blt.w	10002f92 <tud_task_ext+0x582>
10002caa:	1a3f      	subs	r7, r7, r0
10002cac:	eb0a 1747 	add.w	r7, sl, r7, lsl #5
10002cb0:	2a00      	cmp	r2, #0
10002cb2:	f000 8172 	beq.w	10002f9a <tud_task_ext+0x58a>
10002cb6:	6978      	ldr	r0, [r7, #20]
10002cb8:	f000 fbd2 	bl	10003460 <usbd_control_set_complete_callback>
10002cbc:	4640      	mov	r0, r8
10002cbe:	2101      	movs	r1, #1
10002cc0:	697b      	ldr	r3, [r7, #20]
10002cc2:	aa08      	add	r2, sp, #32
10002cc4:	4798      	blx	r3
10002cc6:	2800      	cmp	r0, #0
10002cc8:	f47f aeb1 	bne.w	10002a2e <tud_task_ext+0x1e>
10002ccc:	e754      	b.n	10002b78 <tud_task_ext+0x168>
10002cce:	bf00      	nop
10002cd0:	2000168c 	.word	0x2000168c
10002cd4:	20001634 	.word	0x20001634
10002cd8:	2002229c 	.word	0x2002229c
10002cdc:	2002229e 	.word	0x2002229e
10002ce0:	10001eb1 	.word	0x10001eb1
10002ce4:	20001268 	.word	0x20001268
10002ce8:	10008130 	.word	0x10008130
10002cec:	20001464 	.word	0x20001464
10002cf0:	f89d 3024 	ldrb.w	r3, [sp, #36]	; 0x24
10002cf4:	2b0f      	cmp	r3, #15
10002cf6:	f63f af3f 	bhi.w	10002b78 <tud_task_ext+0x168>
10002cfa:	4ab5      	ldr	r2, [pc, #724]	; (10002fd0 <tud_task_ext+0x5c0>)
10002cfc:	442b      	add	r3, r5
10002cfe:	791b      	ldrb	r3, [r3, #4]
10002d00:	7815      	ldrb	r5, [r2, #0]
10002d02:	42ab      	cmp	r3, r5
10002d04:	d334      	bcc.n	10002d70 <tud_task_ext+0x360>
10002d06:	1c6a      	adds	r2, r5, #1
10002d08:	429a      	cmp	r2, r3
10002d0a:	f6ff af35 	blt.w	10002b78 <tud_task_ext+0x168>
10002d0e:	1b5b      	subs	r3, r3, r5
10002d10:	eb0a 1543 	add.w	r5, sl, r3, lsl #5
10002d14:	6968      	ldr	r0, [r5, #20]
10002d16:	f000 fba3 	bl	10003460 <usbd_control_set_complete_callback>
10002d1a:	2101      	movs	r1, #1
10002d1c:	4640      	mov	r0, r8
10002d1e:	696b      	ldr	r3, [r5, #20]
10002d20:	aa08      	add	r2, sp, #32
10002d22:	4798      	blx	r3
10002d24:	2800      	cmp	r0, #0
10002d26:	f47f ae82 	bne.w	10002a2e <tud_task_ext+0x1e>
10002d2a:	f89d 3020 	ldrb.w	r3, [sp, #32]
10002d2e:	f013 0560 	ands.w	r5, r3, #96	; 0x60
10002d32:	f47f af21 	bne.w	10002b78 <tud_task_ext+0x168>
10002d36:	f89d 3021 	ldrb.w	r3, [sp, #33]	; 0x21
10002d3a:	3b0a      	subs	r3, #10
10002d3c:	2b01      	cmp	r3, #1
10002d3e:	f63f af1b 	bhi.w	10002b78 <tud_task_ext+0x168>
10002d42:	f000 fb8d 	bl	10003460 <usbd_control_set_complete_callback>
10002d46:	f89d 3021 	ldrb.w	r3, [sp, #33]	; 0x21
10002d4a:	2b0a      	cmp	r3, #10
10002d4c:	f000 81f7 	beq.w	1000313e <tud_task_ext+0x72e>
10002d50:	4640      	mov	r0, r8
10002d52:	a908      	add	r1, sp, #32
10002d54:	f000 fafa 	bl	1000334c <tud_control_status>
10002d58:	e669      	b.n	10002a2e <tud_task_ext+0x1e>
10002d5a:	f8db 3000 	ldr.w	r3, [fp]
10002d5e:	eb03 1747 	add.w	r7, r3, r7, lsl #5
10002d62:	2a00      	cmp	r2, #0
10002d64:	f000 8119 	beq.w	10002f9a <tud_task_ext+0x58a>
10002d68:	2f00      	cmp	r7, #0
10002d6a:	f43f af05 	beq.w	10002b78 <tud_task_ext+0x168>
10002d6e:	e7a2      	b.n	10002cb6 <tud_task_ext+0x2a6>
10002d70:	f8db 5000 	ldr.w	r5, [fp]
10002d74:	eb15 1543 	adds.w	r5, r5, r3, lsl #5
10002d78:	f43f aefe 	beq.w	10002b78 <tud_task_ext+0x168>
10002d7c:	e7ca      	b.n	10002d14 <tud_task_ext+0x304>
10002d7e:	786b      	ldrb	r3, [r5, #1]
10002d80:	f89d 6022 	ldrb.w	r6, [sp, #34]	; 0x22
10002d84:	429e      	cmp	r6, r3
10002d86:	f000 8154 	beq.w	10003032 <tud_task_ext+0x622>
10002d8a:	786b      	ldrb	r3, [r5, #1]
10002d8c:	2b00      	cmp	r3, #0
10002d8e:	f040 81c4 	bne.w	1000311a <tud_task_ext+0x70a>
10002d92:	706e      	strb	r6, [r5, #1]
10002d94:	2e00      	cmp	r6, #0
10002d96:	f000 814a 	beq.w	1000302e <tud_task_ext+0x61e>
10002d9a:	1e70      	subs	r0, r6, #1
10002d9c:	b2c0      	uxtb	r0, r0
10002d9e:	f7ff faad 	bl	100022fc <tud_descriptor_configuration_cb>
10002da2:	2800      	cmp	r0, #0
10002da4:	f000 8165 	beq.w	10003072 <tud_task_ext+0x662>
10002da8:	7843      	ldrb	r3, [r0, #1]
10002daa:	2b02      	cmp	r3, #2
10002dac:	f040 8161 	bne.w	10003072 <tud_task_ext+0x662>
10002db0:	782b      	ldrb	r3, [r5, #0]
10002db2:	79c2      	ldrb	r2, [r0, #7]
10002db4:	f023 0130 	bic.w	r1, r3, #48	; 0x30
10002db8:	f3c2 1340 	ubfx	r3, r2, #5, #1
10002dbc:	011b      	lsls	r3, r3, #4
10002dbe:	f3c2 1280 	ubfx	r2, r2, #6, #1
10002dc2:	ea43 1342 	orr.w	r3, r3, r2, lsl #5
10002dc6:	430b      	orrs	r3, r1
10002dc8:	702b      	strb	r3, [r5, #0]
10002dca:	8843      	ldrh	r3, [r0, #2]
10002dcc:	f100 0609 	add.w	r6, r0, #9
10002dd0:	18c3      	adds	r3, r0, r3
10002dd2:	9302      	str	r3, [sp, #8]
10002dd4:	f8cd 800c 	str.w	r8, [sp, #12]
10002dd8:	9b02      	ldr	r3, [sp, #8]
10002dda:	42b3      	cmp	r3, r6
10002ddc:	f240 81aa 	bls.w	10003134 <tud_task_ext+0x724>
10002de0:	7872      	ldrb	r2, [r6, #1]
10002de2:	2a0b      	cmp	r2, #11
10002de4:	f000 81b5 	beq.w	10003152 <tud_task_ext+0x742>
10002de8:	2301      	movs	r3, #1
10002dea:	2a04      	cmp	r2, #4
10002dec:	f040 8141 	bne.w	10003072 <tud_task_ext+0x662>
10002df0:	4618      	mov	r0, r3
10002df2:	f04f 0800 	mov.w	r8, #0
10002df6:	9a02      	ldr	r2, [sp, #8]
10002df8:	4975      	ldr	r1, [pc, #468]	; (10002fd0 <tud_task_ext+0x5c0>)
10002dfa:	1b92      	subs	r2, r2, r6
10002dfc:	4633      	mov	r3, r6
10002dfe:	7809      	ldrb	r1, [r1, #0]
10002e00:	4606      	mov	r6, r0
10002e02:	b292      	uxth	r2, r2
10002e04:	f8cd 8004 	str.w	r8, [sp, #4]
10002e08:	e01e      	b.n	10002e48 <tud_task_ext+0x438>
10002e0a:	f8db 7000 	ldr.w	r7, [fp]
10002e0e:	eb17 1748 	adds.w	r7, r7, r8, lsl #5
10002e12:	f000 812e 	beq.w	10003072 <tud_task_ext+0x662>
10002e16:	4619      	mov	r1, r3
10002e18:	9304      	str	r3, [sp, #16]
10002e1a:	9803      	ldr	r0, [sp, #12]
10002e1c:	693b      	ldr	r3, [r7, #16]
10002e1e:	9205      	str	r2, [sp, #20]
10002e20:	4798      	blx	r3
10002e22:	e9dd 3204 	ldrd	r3, r2, [sp, #16]
10002e26:	2808      	cmp	r0, #8
10002e28:	f108 0101 	add.w	r1, r8, #1
10002e2c:	d902      	bls.n	10002e34 <tud_task_ext+0x424>
10002e2e:	4282      	cmp	r2, r0
10002e30:	f080 8104 	bcs.w	1000303c <tud_task_ext+0x62c>
10002e34:	fa5f f881 	uxtb.w	r8, r1
10002e38:	4965      	ldr	r1, [pc, #404]	; (10002fd0 <tud_task_ext+0x5c0>)
10002e3a:	f8cd 8004 	str.w	r8, [sp, #4]
10002e3e:	7809      	ldrb	r1, [r1, #0]
10002e40:	1c48      	adds	r0, r1, #1
10002e42:	4580      	cmp	r8, r0
10002e44:	f300 8115 	bgt.w	10003072 <tud_task_ext+0x662>
10002e48:	9801      	ldr	r0, [sp, #4]
10002e4a:	4588      	cmp	r8, r1
10002e4c:	eba0 0101 	sub.w	r1, r0, r1
10002e50:	d3db      	bcc.n	10002e0a <tud_task_ext+0x3fa>
10002e52:	eb0a 1741 	add.w	r7, sl, r1, lsl #5
10002e56:	e7de      	b.n	10002e16 <tud_task_ext+0x406>
10002e58:	786b      	ldrb	r3, [r5, #1]
10002e5a:	4640      	mov	r0, r8
10002e5c:	f88d 301a 	strb.w	r3, [sp, #26]
10002e60:	f10d 021a 	add.w	r2, sp, #26
10002e64:	2301      	movs	r3, #1
10002e66:	a908      	add	r1, sp, #32
10002e68:	f000 fa8a 	bl	10003380 <tud_control_xfer>
10002e6c:	e5df      	b.n	10002a2e <tud_task_ext+0x1e>
10002e6e:	f8bd 0022 	ldrh.w	r0, [sp, #34]	; 0x22
10002e72:	0a03      	lsrs	r3, r0, #8
10002e74:	1e5a      	subs	r2, r3, #1
10002e76:	b2c0      	uxtb	r0, r0
10002e78:	2a0e      	cmp	r2, #14
10002e7a:	f63f ae7d 	bhi.w	10002b78 <tud_task_ext+0x168>
10002e7e:	a101      	add	r1, pc, #4	; (adr r1, 10002e84 <tud_task_ext+0x474>)
10002e80:	f851 f022 	ldr.w	pc, [r1, r2, lsl #2]
10002e84:	100030a3 	.word	0x100030a3
10002e88:	10002f35 	.word	0x10002f35
10002e8c:	100030df 	.word	0x100030df
10002e90:	10002b79 	.word	0x10002b79
10002e94:	10002b79 	.word	0x10002b79
10002e98:	100030c1 	.word	0x100030c1
10002e9c:	10002f35 	.word	0x10002f35
10002ea0:	10002b79 	.word	0x10002b79
10002ea4:	10002b79 	.word	0x10002b79
10002ea8:	10002b79 	.word	0x10002b79
10002eac:	10002b79 	.word	0x10002b79
10002eb0:	10002b79 	.word	0x10002b79
10002eb4:	10002b79 	.word	0x10002b79
10002eb8:	10002b79 	.word	0x10002b79
10002ebc:	10003095 	.word	0x10003095
10002ec0:	a808      	add	r0, sp, #32
10002ec2:	f000 fad3 	bl	1000346c <usbd_control_set_request>
10002ec6:	4640      	mov	r0, r8
10002ec8:	f89d 1022 	ldrb.w	r1, [sp, #34]	; 0x22
10002ecc:	f7ff fb7c 	bl	100025c8 <dcd_set_address>
10002ed0:	782b      	ldrb	r3, [r5, #0]
10002ed2:	f043 0302 	orr.w	r3, r3, #2
10002ed6:	702b      	strb	r3, [r5, #0]
10002ed8:	e5a9      	b.n	10002a2e <tud_task_ext+0x1e>
10002eda:	f8bd 3022 	ldrh.w	r3, [sp, #34]	; 0x22
10002ede:	2b01      	cmp	r3, #1
10002ee0:	f47f ae4a 	bne.w	10002b78 <tud_task_ext+0x168>
10002ee4:	782b      	ldrb	r3, [r5, #0]
10002ee6:	4640      	mov	r0, r8
10002ee8:	f36f 03c3 	bfc	r3, #3, #1
10002eec:	a908      	add	r1, sp, #32
10002eee:	702b      	strb	r3, [r5, #0]
10002ef0:	f000 fa2c 	bl	1000334c <tud_control_status>
10002ef4:	e59b      	b.n	10002a2e <tud_task_ext+0x1e>
10002ef6:	4640      	mov	r0, r8
10002ef8:	782b      	ldrb	r3, [r5, #0]
10002efa:	089a      	lsrs	r2, r3, #2
10002efc:	f002 0202 	and.w	r2, r2, #2
10002f00:	f3c3 1340 	ubfx	r3, r3, #5, #1
10002f04:	4313      	orrs	r3, r2
10002f06:	f8ad 301a 	strh.w	r3, [sp, #26]
10002f0a:	f10d 021a 	add.w	r2, sp, #26
10002f0e:	2302      	movs	r3, #2
10002f10:	a908      	add	r1, sp, #32
10002f12:	f000 fa35 	bl	10003380 <tud_control_xfer>
10002f16:	e58a      	b.n	10002a2e <tud_task_ext+0x1e>
10002f18:	f8bd 3022 	ldrh.w	r3, [sp, #34]	; 0x22
10002f1c:	2b01      	cmp	r3, #1
10002f1e:	f47f ae2b 	bne.w	10002b78 <tud_task_ext+0x168>
10002f22:	782b      	ldrb	r3, [r5, #0]
10002f24:	4640      	mov	r0, r8
10002f26:	f043 0308 	orr.w	r3, r3, #8
10002f2a:	a908      	add	r1, sp, #32
10002f2c:	702b      	strb	r3, [r5, #0]
10002f2e:	f000 fa0d 	bl	1000334c <tud_control_status>
10002f32:	e57c      	b.n	10002a2e <tud_task_ext+0x1e>
10002f34:	2b02      	cmp	r3, #2
10002f36:	f000 8111 	beq.w	1000315c <tud_task_ext+0x74c>
10002f3a:	f7ff fcc7 	bl	100028cc <tud_descriptor_other_speed_configuration_cb>
10002f3e:	4602      	mov	r2, r0
10002f40:	2800      	cmp	r0, #0
10002f42:	f43f ae19 	beq.w	10002b78 <tud_task_ext+0x168>
10002f46:	4640      	mov	r0, r8
10002f48:	8853      	ldrh	r3, [r2, #2]
10002f4a:	a908      	add	r1, sp, #32
10002f4c:	f000 fa18 	bl	10003380 <tud_control_xfer>
10002f50:	2800      	cmp	r0, #0
10002f52:	f47f ad6c 	bne.w	10002a2e <tud_task_ext+0x1e>
10002f56:	e60f      	b.n	10002b78 <tud_task_ext+0x168>
10002f58:	f89d 3024 	ldrb.w	r3, [sp, #36]	; 0x24
10002f5c:	2b0f      	cmp	r3, #15
10002f5e:	f63f ae0b 	bhi.w	10002b78 <tud_task_ext+0x168>
10002f62:	4a1b      	ldr	r2, [pc, #108]	; (10002fd0 <tud_task_ext+0x5c0>)
10002f64:	442b      	add	r3, r5
10002f66:	791b      	ldrb	r3, [r3, #4]
10002f68:	7815      	ldrb	r5, [r2, #0]
10002f6a:	42ab      	cmp	r3, r5
10002f6c:	d227      	bcs.n	10002fbe <tud_task_ext+0x5ae>
10002f6e:	f8db 5000 	ldr.w	r5, [fp]
10002f72:	eb15 1543 	adds.w	r5, r5, r3, lsl #5
10002f76:	f43f adff 	beq.w	10002b78 <tud_task_ext+0x168>
10002f7a:	6968      	ldr	r0, [r5, #20]
10002f7c:	f000 fa70 	bl	10003460 <usbd_control_set_complete_callback>
10002f80:	4640      	mov	r0, r8
10002f82:	2101      	movs	r1, #1
10002f84:	696b      	ldr	r3, [r5, #20]
10002f86:	aa08      	add	r2, sp, #32
10002f88:	4798      	blx	r3
10002f8a:	2800      	cmp	r0, #0
10002f8c:	f47f ad4f 	bne.w	10002a2e <tud_task_ext+0x1e>
10002f90:	e5f2      	b.n	10002b78 <tud_task_ext+0x168>
10002f92:	2a00      	cmp	r2, #0
10002f94:	f47f adf0 	bne.w	10002b78 <tud_task_ext+0x168>
10002f98:	2700      	movs	r7, #0
10002f9a:	f89d 2021 	ldrb.w	r2, [sp, #33]	; 0x21
10002f9e:	f002 03fd 	and.w	r3, r2, #253	; 0xfd
10002fa2:	2b01      	cmp	r3, #1
10002fa4:	d016      	beq.n	10002fd4 <tud_task_ext+0x5c4>
10002fa6:	2a00      	cmp	r2, #0
10002fa8:	f47f addf 	bne.w	10002b6a <tud_task_ext+0x15a>
10002fac:	9b01      	ldr	r3, [sp, #4]
10002fae:	4435      	add	r5, r6
10002fb0:	442b      	add	r3, r5
10002fb2:	f893 3034 	ldrb.w	r3, [r3, #52]	; 0x34
10002fb6:	4640      	mov	r0, r8
10002fb8:	f3c3 0340 	ubfx	r3, r3, #1, #1
10002fbc:	e7a3      	b.n	10002f06 <tud_task_ext+0x4f6>
10002fbe:	1c6a      	adds	r2, r5, #1
10002fc0:	429a      	cmp	r2, r3
10002fc2:	f6ff add9 	blt.w	10002b78 <tud_task_ext+0x168>
10002fc6:	1b5b      	subs	r3, r3, r5
10002fc8:	eb0a 1543 	add.w	r5, sl, r3, lsl #5
10002fcc:	e7d5      	b.n	10002f7a <tud_task_ext+0x56a>
10002fce:	bf00      	nop
10002fd0:	2002229c 	.word	0x2002229c
10002fd4:	f8bd 3022 	ldrh.w	r3, [sp, #34]	; 0x22
10002fd8:	b9ab      	cbnz	r3, 10003006 <tud_task_ext+0x5f6>
10002fda:	2a01      	cmp	r2, #1
10002fdc:	f000 8087 	beq.w	100030ee <tud_task_ext+0x6de>
10002fe0:	f899 0000 	ldrb.w	r0, [r9]
10002fe4:	f7ff fbb2 	bl	1000274c <dcd_edpt_stall>
10002fe8:	9a01      	ldr	r2, [sp, #4]
10002fea:	19ab      	adds	r3, r5, r6
10002fec:	4413      	add	r3, r2
10002fee:	f893 2034 	ldrb.w	r2, [r3, #52]	; 0x34
10002ff2:	f042 0202 	orr.w	r2, r2, #2
10002ff6:	f883 2034 	strb.w	r2, [r3, #52]	; 0x34
10002ffa:	f893 2034 	ldrb.w	r2, [r3, #52]	; 0x34
10002ffe:	f042 0201 	orr.w	r2, r2, #1
10003002:	f883 2034 	strb.w	r2, [r3, #52]	; 0x34
10003006:	2f00      	cmp	r7, #0
10003008:	f43f ad11 	beq.w	10002a2e <tud_task_ext+0x1e>
1000300c:	6978      	ldr	r0, [r7, #20]
1000300e:	f000 fa27 	bl	10003460 <usbd_control_set_complete_callback>
10003012:	697b      	ldr	r3, [r7, #20]
10003014:	2101      	movs	r1, #1
10003016:	aa08      	add	r2, sp, #32
10003018:	4640      	mov	r0, r8
1000301a:	4798      	blx	r3
1000301c:	2000      	movs	r0, #0
1000301e:	f000 fa1f 	bl	10003460 <usbd_control_set_complete_callback>
10003022:	f895 3035 	ldrb.w	r3, [r5, #53]	; 0x35
10003026:	07de      	lsls	r6, r3, #31
10003028:	f53f ad01 	bmi.w	10002a2e <tud_task_ext+0x1e>
1000302c:	e690      	b.n	10002d50 <tud_task_ext+0x340>
1000302e:	f7ff fc51 	bl	100028d4 <tud_umount_cb>
10003032:	4640      	mov	r0, r8
10003034:	a908      	add	r1, sp, #32
10003036:	f000 f989 	bl	1000334c <tud_control_status>
1000303a:	e4f8      	b.n	10002a2e <tud_task_ext+0x1e>
1000303c:	4632      	mov	r2, r6
1000303e:	2a01      	cmp	r2, #1
10003040:	461e      	mov	r6, r3
10003042:	4613      	mov	r3, r2
10003044:	f000 80a0 	beq.w	10003188 <tud_task_ext+0x778>
10003048:	2a00      	cmp	r2, #0
1000304a:	f000 808e 	beq.w	1000316a <tud_task_ext+0x75a>
1000304e:	2200      	movs	r2, #0
10003050:	78b7      	ldrb	r7, [r6, #2]
10003052:	e005      	b.n	10003060 <tud_task_ext+0x650>
10003054:	f881 8004 	strb.w	r8, [r1, #4]
10003058:	b2d1      	uxtb	r1, r2
1000305a:	428b      	cmp	r3, r1
1000305c:	f240 8085 	bls.w	1000316a <tud_task_ext+0x75a>
10003060:	18b9      	adds	r1, r7, r2
10003062:	fa55 f181 	uxtab	r1, r5, r1
10003066:	f891 c004 	ldrb.w	ip, [r1, #4]
1000306a:	3201      	adds	r2, #1
1000306c:	f1bc 0fff 	cmp.w	ip, #255	; 0xff
10003070:	d0f0      	beq.n	10003054 <tud_task_ext+0x644>
10003072:	f04f 23e0 	mov.w	r3, #3758153728	; 0xe000e000
10003076:	f8d3 3df0 	ldr.w	r3, [r3, #3568]	; 0xdf0
1000307a:	07db      	lsls	r3, r3, #31
1000307c:	d500      	bpl.n	10003080 <tud_task_ext+0x670>
1000307e:	be00      	bkpt	0x0000
10003080:	f04f 23e0 	mov.w	r3, #3758153728	; 0xe000e000
10003084:	f8d3 3df0 	ldr.w	r3, [r3, #3568]	; 0xdf0
10003088:	07df      	lsls	r7, r3, #31
1000308a:	d500      	bpl.n	1000308e <tud_task_ext+0x67e>
1000308c:	be00      	bkpt	0x0000
1000308e:	2300      	movs	r3, #0
10003090:	706b      	strb	r3, [r5, #1]
10003092:	e571      	b.n	10002b78 <tud_task_ext+0x168>
10003094:	f7fe ff08 	bl	10001ea8 <tud_descriptor_bos_cb>
10003098:	4602      	mov	r2, r0
1000309a:	2800      	cmp	r0, #0
1000309c:	f47f af53 	bne.w	10002f46 <tud_task_ext+0x536>
100030a0:	e56a      	b.n	10002b78 <tud_task_ext+0x168>
100030a2:	f7ff f927 	bl	100022f4 <tud_descriptor_device_cb>
100030a6:	4602      	mov	r2, r0
100030a8:	2800      	cmp	r0, #0
100030aa:	f43f ad5e 	beq.w	10002b6a <tud_task_ext+0x15a>
100030ae:	4640      	mov	r0, r8
100030b0:	2312      	movs	r3, #18
100030b2:	a908      	add	r1, sp, #32
100030b4:	f000 f964 	bl	10003380 <tud_control_xfer>
100030b8:	2800      	cmp	r0, #0
100030ba:	f47f acb8 	bne.w	10002a2e <tud_task_ext+0x1e>
100030be:	e55b      	b.n	10002b78 <tud_task_ext+0x168>
100030c0:	f7ff fc02 	bl	100028c8 <tud_descriptor_device_qualifier_cb>
100030c4:	4602      	mov	r2, r0
100030c6:	2800      	cmp	r0, #0
100030c8:	f43f ad56 	beq.w	10002b78 <tud_task_ext+0x168>
100030cc:	4640      	mov	r0, r8
100030ce:	7813      	ldrb	r3, [r2, #0]
100030d0:	a908      	add	r1, sp, #32
100030d2:	f000 f955 	bl	10003380 <tud_control_xfer>
100030d6:	2800      	cmp	r0, #0
100030d8:	f47f aca9 	bne.w	10002a2e <tud_task_ext+0x1e>
100030dc:	e54c      	b.n	10002b78 <tud_task_ext+0x168>
100030de:	f8bd 1024 	ldrh.w	r1, [sp, #36]	; 0x24
100030e2:	f7ff f90f 	bl	10002304 <tud_descriptor_string_cb>
100030e6:	4602      	mov	r2, r0
100030e8:	2800      	cmp	r0, #0
100030ea:	d1ef      	bne.n	100030cc <tud_task_ext+0x6bc>
100030ec:	e544      	b.n	10002b78 <tud_task_ext+0x168>
100030ee:	f899 0000 	ldrb.w	r0, [r9]
100030f2:	9302      	str	r3, [sp, #8]
100030f4:	f7ff fb42 	bl	1000277c <dcd_edpt_clear_stall>
100030f8:	9b01      	ldr	r3, [sp, #4]
100030fa:	19aa      	adds	r2, r5, r6
100030fc:	441a      	add	r2, r3
100030fe:	f892 1034 	ldrb.w	r1, [r2, #52]	; 0x34
10003102:	9b02      	ldr	r3, [sp, #8]
10003104:	f363 0141 	bfi	r1, r3, #1, #1
10003108:	f882 1034 	strb.w	r1, [r2, #52]	; 0x34
1000310c:	f892 1034 	ldrb.w	r1, [r2, #52]	; 0x34
10003110:	f363 0100 	bfi	r1, r3, #0, #1
10003114:	f882 1034 	strb.w	r1, [r2, #52]	; 0x34
10003118:	e775      	b.n	10003006 <tud_task_ext+0x5f6>
1000311a:	2100      	movs	r1, #0
1000311c:	4640      	mov	r0, r8
1000311e:	f7ff fa5b 	bl	100025d8 <dcd_sof_enable>
10003122:	4640      	mov	r0, r8
10003124:	f7ff fafc 	bl	10002720 <dcd_edpt_close_all>
10003128:	78af      	ldrb	r7, [r5, #2]
1000312a:	4640      	mov	r0, r8
1000312c:	f7ff fb82 	bl	10002834 <configuration_reset>
10003130:	70af      	strb	r7, [r5, #2]
10003132:	e62e      	b.n	10002d92 <tud_task_ext+0x382>
10003134:	f8dd 800c 	ldr.w	r8, [sp, #12]
10003138:	f7ff fbca 	bl	100028d0 <tud_mount_cb>
1000313c:	e779      	b.n	10003032 <tud_task_ext+0x622>
1000313e:	4640      	mov	r0, r8
10003140:	2301      	movs	r3, #1
10003142:	a908      	add	r1, sp, #32
10003144:	f10d 021a 	add.w	r2, sp, #26
10003148:	f88d 501a 	strb.w	r5, [sp, #26]
1000314c:	f000 f918 	bl	10003380 <tud_control_xfer>
10003150:	e46d      	b.n	10002a2e <tud_task_ext+0x1e>
10003152:	7832      	ldrb	r2, [r6, #0]
10003154:	78f3      	ldrb	r3, [r6, #3]
10003156:	4416      	add	r6, r2
10003158:	7872      	ldrb	r2, [r6, #1]
1000315a:	e646      	b.n	10002dea <tud_task_ext+0x3da>
1000315c:	f7ff f8ce 	bl	100022fc <tud_descriptor_configuration_cb>
10003160:	4602      	mov	r2, r0
10003162:	2800      	cmp	r0, #0
10003164:	f47f aeef 	bne.w	10002f46 <tud_task_ext+0x536>
10003168:	e4ff      	b.n	10002b6a <tud_task_ext+0x15a>
1000316a:	4602      	mov	r2, r0
1000316c:	4643      	mov	r3, r8
1000316e:	4631      	mov	r1, r6
10003170:	4406      	add	r6, r0
10003172:	480d      	ldr	r0, [pc, #52]	; (100031a8 <tud_task_ext+0x798>)
10003174:	f000 fea0 	bl	10003eb8 <tu_edpt_bind_driver>
10003178:	4b0c      	ldr	r3, [pc, #48]	; (100031ac <tud_task_ext+0x79c>)
1000317a:	9a01      	ldr	r2, [sp, #4]
1000317c:	781b      	ldrb	r3, [r3, #0]
1000317e:	3301      	adds	r3, #1
10003180:	4293      	cmp	r3, r2
10003182:	f6bf ae29 	bge.w	10002dd8 <tud_task_ext+0x3c8>
10003186:	e774      	b.n	10003072 <tud_task_ext+0x662>
10003188:	693a      	ldr	r2, [r7, #16]
1000318a:	4909      	ldr	r1, [pc, #36]	; (100031b0 <tud_task_ext+0x7a0>)
1000318c:	428a      	cmp	r2, r1
1000318e:	bf08      	it	eq
10003190:	2302      	moveq	r3, #2
10003192:	e75c      	b.n	1000304e <tud_task_ext+0x63e>
10003194:	f04f 23e0 	mov.w	r3, #3758153728	; 0xe000e000
10003198:	f8d3 3df0 	ldr.w	r3, [r3, #3568]	; 0xdf0
1000319c:	07db      	lsls	r3, r3, #31
1000319e:	f57f ac46 	bpl.w	10002a2e <tud_task_ext+0x1e>
100031a2:	be00      	bkpt	0x0000
100031a4:	e443      	b.n	10002a2e <tud_task_ext+0x1e>
100031a6:	bf00      	nop
100031a8:	20001648 	.word	0x20001648
100031ac:	2002229c 	.word	0x2002229c
100031b0:	100038a9 	.word	0x100038a9

100031b4 <usbd_open_edpt_pair>:
100031b4:	e92d 4ff8 	stmdb	sp!, {r3, r4, r5, r6, r7, r8, r9, sl, fp, lr}
100031b8:	9f0a      	ldr	r7, [sp, #40]	; 0x28
100031ba:	2a00      	cmp	r2, #0
100031bc:	d040      	beq.n	10003240 <usbd_open_edpt_pair+0x8c>
100031be:	460c      	mov	r4, r1
100031c0:	461e      	mov	r6, r3
100031c2:	4615      	mov	r5, r2
100031c4:	f04f 0a00 	mov.w	sl, #0
100031c8:	f8df 907c 	ldr.w	r9, [pc, #124]	; 10003248 <usbd_open_edpt_pair+0x94>
100031cc:	f8df 807c 	ldr.w	r8, [pc, #124]	; 1000324c <usbd_open_edpt_pair+0x98>
100031d0:	e018      	b.n	10003204 <usbd_open_edpt_pair+0x50>
100031d2:	4620      	mov	r0, r4
100031d4:	f898 1002 	ldrb.w	r1, [r8, #2]
100031d8:	f899 b000 	ldrb.w	fp, [r9]
100031dc:	f000 fe38 	bl	10003e50 <tu_edpt_validate>
100031e0:	b1e0      	cbz	r0, 1000321c <usbd_open_edpt_pair+0x68>
100031e2:	4621      	mov	r1, r4
100031e4:	4658      	mov	r0, fp
100031e6:	f7ff fa13 	bl	10002610 <dcd_edpt_open>
100031ea:	b1f0      	cbz	r0, 1000322a <usbd_open_edpt_pair+0x76>
100031ec:	78a2      	ldrb	r2, [r4, #2]
100031ee:	f10a 0a01 	add.w	sl, sl, #1
100031f2:	09d3      	lsrs	r3, r2, #7
100031f4:	bf16      	itet	ne
100031f6:	9b0b      	ldrne	r3, [sp, #44]	; 0x2c
100031f8:	703a      	strbeq	r2, [r7, #0]
100031fa:	701a      	strbne	r2, [r3, #0]
100031fc:	7822      	ldrb	r2, [r4, #0]
100031fe:	45aa      	cmp	sl, r5
10003200:	4414      	add	r4, r2
10003202:	d01d      	beq.n	10003240 <usbd_open_edpt_pair+0x8c>
10003204:	7862      	ldrb	r2, [r4, #1]
10003206:	2a05      	cmp	r2, #5
10003208:	d10f      	bne.n	1000322a <usbd_open_edpt_pair+0x76>
1000320a:	78e1      	ldrb	r1, [r4, #3]
1000320c:	f001 0103 	and.w	r1, r1, #3
10003210:	42b1      	cmp	r1, r6
10003212:	d10a      	bne.n	1000322a <usbd_open_edpt_pair+0x76>
10003214:	78a2      	ldrb	r2, [r4, #2]
10003216:	f012 0f70 	tst.w	r2, #112	; 0x70
1000321a:	d0da      	beq.n	100031d2 <usbd_open_edpt_pair+0x1e>
1000321c:	f04f 23e0 	mov.w	r3, #3758153728	; 0xe000e000
10003220:	f8d3 3df0 	ldr.w	r3, [r3, #3568]	; 0xdf0
10003224:	07da      	lsls	r2, r3, #31
10003226:	d500      	bpl.n	1000322a <usbd_open_edpt_pair+0x76>
10003228:	be00      	bkpt	0x0000
1000322a:	f04f 23e0 	mov.w	r3, #3758153728	; 0xe000e000
1000322e:	f8d3 3df0 	ldr.w	r3, [r3, #3568]	; 0xdf0
10003232:	07db      	lsls	r3, r3, #31
10003234:	d402      	bmi.n	1000323c <usbd_open_edpt_pair+0x88>
10003236:	2000      	movs	r0, #0
10003238:	e8bd 8ff8 	ldmia.w	sp!, {r3, r4, r5, r6, r7, r8, r9, sl, fp, pc}
1000323c:	be00      	bkpt	0x0000
1000323e:	e7fa      	b.n	10003236 <usbd_open_edpt_pair+0x82>
10003240:	2001      	movs	r0, #1
10003242:	e8bd 8ff8 	ldmia.w	sp!, {r3, r4, r5, r6, r7, r8, r9, sl, fp, pc}
10003246:	bf00      	nop
10003248:	20001268 	.word	0x20001268
1000324c:	20001634 	.word	0x20001634

10003250 <usbd_edpt_open>:
10003250:	b538      	push	{r3, r4, r5, lr}
10003252:	788b      	ldrb	r3, [r1, #2]
10003254:	f013 0f70 	tst.w	r3, #112	; 0x70
10003258:	d008      	beq.n	1000326c <usbd_edpt_open+0x1c>
1000325a:	f04f 23e0 	mov.w	r3, #3758153728	; 0xe000e000
1000325e:	f8d3 3df0 	ldr.w	r3, [r3, #3568]	; 0xdf0
10003262:	07db      	lsls	r3, r3, #31
10003264:	d500      	bpl.n	10003268 <usbd_edpt_open+0x18>
10003266:	be00      	bkpt	0x0000
10003268:	2000      	movs	r0, #0
1000326a:	bd38      	pop	{r3, r4, r5, pc}
1000326c:	4a07      	ldr	r2, [pc, #28]	; (1000328c <usbd_edpt_open+0x3c>)
1000326e:	4b08      	ldr	r3, [pc, #32]	; (10003290 <usbd_edpt_open+0x40>)
10003270:	460c      	mov	r4, r1
10003272:	4608      	mov	r0, r1
10003274:	7891      	ldrb	r1, [r2, #2]
10003276:	781d      	ldrb	r5, [r3, #0]
10003278:	f000 fdea 	bl	10003e50 <tu_edpt_validate>
1000327c:	2800      	cmp	r0, #0
1000327e:	d0ec      	beq.n	1000325a <usbd_edpt_open+0xa>
10003280:	4621      	mov	r1, r4
10003282:	4628      	mov	r0, r5
10003284:	e8bd 4038 	ldmia.w	sp!, {r3, r4, r5, lr}
10003288:	f7ff b9c2 	b.w	10002610 <dcd_edpt_open>
1000328c:	20001634 	.word	0x20001634
10003290:	20001268 	.word	0x20001268

10003294 <usbd_edpt_claim>:
10003294:	460b      	mov	r3, r1
10003296:	4a06      	ldr	r2, [pc, #24]	; (100032b0 <usbd_edpt_claim+0x1c>)
10003298:	4806      	ldr	r0, [pc, #24]	; (100032b4 <usbd_edpt_claim+0x20>)
1000329a:	6811      	ldr	r1, [r2, #0]
1000329c:	09da      	lsrs	r2, r3, #7
1000329e:	3234      	adds	r2, #52	; 0x34
100032a0:	f003 037f 	and.w	r3, r3, #127	; 0x7f
100032a4:	eb02 0343 	add.w	r3, r2, r3, lsl #1
100032a8:	4418      	add	r0, r3
100032aa:	f000 bd8b 	b.w	10003dc4 <tu_edpt_claim>
100032ae:	bf00      	nop
100032b0:	20001688 	.word	0x20001688
100032b4:	20001634 	.word	0x20001634

100032b8 <usbd_edpt_release>:
100032b8:	460b      	mov	r3, r1
100032ba:	4a06      	ldr	r2, [pc, #24]	; (100032d4 <usbd_edpt_release+0x1c>)
100032bc:	4806      	ldr	r0, [pc, #24]	; (100032d8 <usbd_edpt_release+0x20>)
100032be:	6811      	ldr	r1, [r2, #0]
100032c0:	09da      	lsrs	r2, r3, #7
100032c2:	3234      	adds	r2, #52	; 0x34
100032c4:	f003 037f 	and.w	r3, r3, #127	; 0x7f
100032c8:	eb02 0343 	add.w	r3, r2, r3, lsl #1
100032cc:	4418      	add	r0, r3
100032ce:	f000 bda3 	b.w	10003e18 <tu_edpt_release>
100032d2:	bf00      	nop
100032d4:	20001688 	.word	0x20001688
100032d8:	20001634 	.word	0x20001634

100032dc <usbd_edpt_xfer>:
100032dc:	b510      	push	{r4, lr}
100032de:	4c19      	ldr	r4, [pc, #100]	; (10003344 <usbd_edpt_xfer+0x68>)
100032e0:	f001 0c7f 	and.w	ip, r1, #127	; 0x7f
100032e4:	eb04 044c 	add.w	r4, r4, ip, lsl #1
100032e8:	eb04 10d1 	add.w	r0, r4, r1, lsr #7
100032ec:	f890 c034 	ldrb.w	ip, [r0, #52]	; 0x34
100032f0:	f01c 0f01 	tst.w	ip, #1
100032f4:	d008      	beq.n	10003308 <usbd_edpt_xfer+0x2c>
100032f6:	f04f 23e0 	mov.w	r3, #3758153728	; 0xe000e000
100032fa:	f8d3 3df0 	ldr.w	r3, [r3, #3568]	; 0xdf0
100032fe:	07da      	lsls	r2, r3, #31
10003300:	d500      	bpl.n	10003304 <usbd_edpt_xfer+0x28>
10003302:	be00      	bkpt	0x0000
10003304:	2000      	movs	r0, #0
10003306:	bd10      	pop	{r4, pc}
10003308:	f890 c034 	ldrb.w	ip, [r0, #52]	; 0x34
1000330c:	f100 0430 	add.w	r4, r0, #48	; 0x30
10003310:	480d      	ldr	r0, [pc, #52]	; (10003348 <usbd_edpt_xfer+0x6c>)
10003312:	f04c 0c01 	orr.w	ip, ip, #1
10003316:	7800      	ldrb	r0, [r0, #0]
10003318:	f884 c004 	strb.w	ip, [r4, #4]
1000331c:	f7ff fa02 	bl	10002724 <dcd_edpt_xfer>
10003320:	2800      	cmp	r0, #0
10003322:	d1f0      	bne.n	10003306 <usbd_edpt_xfer+0x2a>
10003324:	f04f 22e0 	mov.w	r2, #3758153728	; 0xe000e000
10003328:	7923      	ldrb	r3, [r4, #4]
1000332a:	f360 0300 	bfi	r3, r0, #0, #1
1000332e:	7123      	strb	r3, [r4, #4]
10003330:	7923      	ldrb	r3, [r4, #4]
10003332:	f360 0382 	bfi	r3, r0, #2, #1
10003336:	7123      	strb	r3, [r4, #4]
10003338:	f8d2 3df0 	ldr.w	r3, [r2, #3568]	; 0xdf0
1000333c:	07db      	lsls	r3, r3, #31
1000333e:	d5e1      	bpl.n	10003304 <usbd_edpt_xfer+0x28>
10003340:	be00      	bkpt	0x0000
10003342:	bd10      	pop	{r4, pc}
10003344:	20001634 	.word	0x20001634
10003348:	20001268 	.word	0x20001268

1000334c <tud_control_status>:
1000334c:	b530      	push	{r4, r5, lr}
1000334e:	4c0b      	ldr	r4, [pc, #44]	; (1000337c <tud_control_status+0x30>)
10003350:	468c      	mov	ip, r1
10003352:	46a6      	mov	lr, r4
10003354:	2300      	movs	r3, #0
10003356:	4605      	mov	r5, r0
10003358:	6808      	ldr	r0, [r1, #0]
1000335a:	6849      	ldr	r1, [r1, #4]
1000335c:	461a      	mov	r2, r3
1000335e:	e8ae 0003 	stmia.w	lr!, {r0, r1}
10003362:	f99c 1000 	ldrsb.w	r1, [ip]
10003366:	4628      	mov	r0, r5
10003368:	4299      	cmp	r1, r3
1000336a:	e9c4 3302 	strd	r3, r3, [r4, #8]
1000336e:	e8bd 4030 	ldmia.w	sp!, {r4, r5, lr}
10003372:	bfac      	ite	ge
10003374:	2180      	movge	r1, #128	; 0x80
10003376:	4619      	movlt	r1, r3
10003378:	f7ff bfb0 	b.w	100032dc <usbd_edpt_xfer>
1000337c:	200015f4 	.word	0x200015f4

10003380 <tud_control_xfer>:
10003380:	e92d 41f0 	stmdb	sp!, {r4, r5, r6, r7, r8, lr}
10003384:	4f2f      	ldr	r7, [pc, #188]	; (10003444 <tud_control_xfer+0xc4>)
10003386:	f04f 0800 	mov.w	r8, #0
1000338a:	46be      	mov	lr, r7
1000338c:	468c      	mov	ip, r1
1000338e:	4606      	mov	r6, r0
10003390:	6808      	ldr	r0, [r1, #0]
10003392:	6849      	ldr	r1, [r1, #4]
10003394:	60ba      	str	r2, [r7, #8]
10003396:	e8ae 0003 	stmia.w	lr!, {r0, r1}
1000339a:	f8a7 800e 	strh.w	r8, [r7, #14]
1000339e:	f8bc 5006 	ldrh.w	r5, [ip, #6]
100033a2:	b082      	sub	sp, #8
100033a4:	42ab      	cmp	r3, r5
100033a6:	bf28      	it	cs
100033a8:	462b      	movcs	r3, r5
100033aa:	81bb      	strh	r3, [r7, #12]
100033ac:	b19d      	cbz	r5, 100033d6 <tud_control_xfer+0x56>
100033ae:	b34b      	cbz	r3, 10003404 <tud_control_xfer+0x84>
100033b0:	4614      	mov	r4, r2
100033b2:	b37a      	cbz	r2, 10003414 <tud_control_xfer+0x94>
100033b4:	f997 2000 	ldrsb.w	r2, [r7]
100033b8:	2b40      	cmp	r3, #64	; 0x40
100033ba:	bf28      	it	cs
100033bc:	2340      	movcs	r3, #64	; 0x40
100033be:	2a00      	cmp	r2, #0
100033c0:	db32      	blt.n	10003428 <tud_control_xfer+0xa8>
100033c2:	4641      	mov	r1, r8
100033c4:	4a20      	ldr	r2, [pc, #128]	; (10003448 <tud_control_xfer+0xc8>)
100033c6:	4630      	mov	r0, r6
100033c8:	f7ff ff88 	bl	100032dc <usbd_edpt_xfer>
100033cc:	b180      	cbz	r0, 100033f0 <tud_control_xfer+0x70>
100033ce:	2001      	movs	r0, #1
100033d0:	b002      	add	sp, #8
100033d2:	e8bd 81f0 	ldmia.w	sp!, {r4, r5, r6, r7, r8, pc}
100033d6:	f99c 2000 	ldrsb.w	r2, [ip]
100033da:	462b      	mov	r3, r5
100033dc:	2a00      	cmp	r2, #0
100033de:	bfac      	ite	ge
100033e0:	2180      	movge	r1, #128	; 0x80
100033e2:	2100      	movlt	r1, #0
100033e4:	462a      	mov	r2, r5
100033e6:	4630      	mov	r0, r6
100033e8:	f7ff ff78 	bl	100032dc <usbd_edpt_xfer>
100033ec:	2800      	cmp	r0, #0
100033ee:	d1ee      	bne.n	100033ce <tud_control_xfer+0x4e>
100033f0:	f04f 23e0 	mov.w	r3, #3758153728	; 0xe000e000
100033f4:	f8d3 3df0 	ldr.w	r3, [r3, #3568]	; 0xdf0
100033f8:	07db      	lsls	r3, r3, #31
100033fa:	d511      	bpl.n	10003420 <tud_control_xfer+0xa0>
100033fc:	be00      	bkpt	0x0000
100033fe:	b002      	add	sp, #8
10003400:	e8bd 81f0 	ldmia.w	sp!, {r4, r5, r6, r7, r8, pc}
10003404:	f997 1000 	ldrsb.w	r1, [r7]
10003408:	461a      	mov	r2, r3
1000340a:	2900      	cmp	r1, #0
1000340c:	bfac      	ite	ge
1000340e:	4619      	movge	r1, r3
10003410:	2180      	movlt	r1, #128	; 0x80
10003412:	e7d8      	b.n	100033c6 <tud_control_xfer+0x46>
10003414:	f04f 23e0 	mov.w	r3, #3758153728	; 0xe000e000
10003418:	f8d3 3df0 	ldr.w	r3, [r3, #3568]	; 0xdf0
1000341c:	07da      	lsls	r2, r3, #31
1000341e:	d40d      	bmi.n	1000343c <tud_control_xfer+0xbc>
10003420:	2000      	movs	r0, #0
10003422:	b002      	add	sp, #8
10003424:	e8bd 81f0 	ldmia.w	sp!, {r4, r5, r6, r7, r8, pc}
10003428:	461a      	mov	r2, r3
1000342a:	4621      	mov	r1, r4
1000342c:	4806      	ldr	r0, [pc, #24]	; (10003448 <tud_control_xfer+0xc8>)
1000342e:	9301      	str	r3, [sp, #4]
10003430:	f004 fb5c 	bl	10007aec <memcpy>
10003434:	2180      	movs	r1, #128	; 0x80
10003436:	4a04      	ldr	r2, [pc, #16]	; (10003448 <tud_control_xfer+0xc8>)
10003438:	9b01      	ldr	r3, [sp, #4]
1000343a:	e7c4      	b.n	100033c6 <tud_control_xfer+0x46>
1000343c:	be00      	bkpt	0x0000
1000343e:	4620      	mov	r0, r4
10003440:	e7c6      	b.n	100033d0 <tud_control_xfer+0x50>
10003442:	bf00      	nop
10003444:	200015f4 	.word	0x200015f4
10003448:	200015b4 	.word	0x200015b4

1000344c <usbd_control_reset>:
1000344c:	2200      	movs	r2, #0
1000344e:	4b03      	ldr	r3, [pc, #12]	; (1000345c <usbd_control_reset+0x10>)
10003450:	e9c3 2200 	strd	r2, r2, [r3]
10003454:	e9c3 2202 	strd	r2, r2, [r3, #8]
10003458:	611a      	str	r2, [r3, #16]
1000345a:	4770      	bx	lr
1000345c:	200015f4 	.word	0x200015f4

10003460 <usbd_control_set_complete_callback>:
10003460:	4b01      	ldr	r3, [pc, #4]	; (10003468 <usbd_control_set_complete_callback+0x8>)
10003462:	6118      	str	r0, [r3, #16]
10003464:	4770      	bx	lr
10003466:	bf00      	nop
10003468:	200015f4 	.word	0x200015f4

1000346c <usbd_control_set_request>:
1000346c:	b430      	push	{r4, r5}
1000346e:	4602      	mov	r2, r0
10003470:	4c04      	ldr	r4, [pc, #16]	; (10003484 <usbd_control_set_request+0x18>)
10003472:	2500      	movs	r5, #0
10003474:	4623      	mov	r3, r4
10003476:	6800      	ldr	r0, [r0, #0]
10003478:	6851      	ldr	r1, [r2, #4]
1000347a:	e9c4 5502 	strd	r5, r5, [r4, #8]
1000347e:	bc30      	pop	{r4, r5}
10003480:	c303      	stmia	r3!, {r0, r1}
10003482:	4770      	bx	lr
10003484:	200015f4 	.word	0x200015f4

10003488 <usbd_control_xfer_cb>:
10003488:	b570      	push	{r4, r5, r6, lr}
1000348a:	4c41      	ldr	r4, [pc, #260]	; (10003590 <usbd_control_xfer_cb+0x108>)
1000348c:	09c9      	lsrs	r1, r1, #7
1000348e:	7822      	ldrb	r2, [r4, #0]
10003490:	4605      	mov	r5, r0
10003492:	ebb1 1fd2 	cmp.w	r1, r2, lsr #7
10003496:	461e      	mov	r6, r3
10003498:	b082      	sub	sp, #8
1000349a:	d021      	beq.n	100034e0 <usbd_control_xfer_cb+0x58>
1000349c:	b14b      	cbz	r3, 100034b2 <usbd_control_xfer_cb+0x2a>
1000349e:	f04f 23e0 	mov.w	r3, #3758153728	; 0xe000e000
100034a2:	f8d3 3df0 	ldr.w	r3, [r3, #3568]	; 0xdf0
100034a6:	07da      	lsls	r2, r3, #31
100034a8:	d500      	bpl.n	100034ac <usbd_control_xfer_cb+0x24>
100034aa:	be00      	bkpt	0x0000
100034ac:	2000      	movs	r0, #0
100034ae:	b002      	add	sp, #8
100034b0:	bd70      	pop	{r4, r5, r6, pc}
100034b2:	4621      	mov	r1, r4
100034b4:	f7ff f89e 	bl	100025f4 <dcd_edpt0_status_complete>
100034b8:	6923      	ldr	r3, [r4, #16]
100034ba:	b173      	cbz	r3, 100034da <usbd_control_xfer_cb+0x52>
100034bc:	4622      	mov	r2, r4
100034be:	2103      	movs	r1, #3
100034c0:	4628      	mov	r0, r5
100034c2:	4798      	blx	r3
100034c4:	2001      	movs	r0, #1
100034c6:	b002      	add	sp, #8
100034c8:	bd70      	pop	{r4, r5, r6, pc}
100034ca:	4601      	mov	r1, r0
100034cc:	4628      	mov	r0, r5
100034ce:	f7ff f93d 	bl	1000274c <dcd_edpt_stall>
100034d2:	2180      	movs	r1, #128	; 0x80
100034d4:	4628      	mov	r0, r5
100034d6:	f7ff f939 	bl	1000274c <dcd_edpt_stall>
100034da:	2001      	movs	r0, #1
100034dc:	b002      	add	sp, #8
100034de:	bd70      	pop	{r4, r5, r6, pc}
100034e0:	f994 2000 	ldrsb.w	r2, [r4]
100034e4:	2a00      	cmp	r2, #0
100034e6:	db06      	blt.n	100034f6 <usbd_control_xfer_cb+0x6e>
100034e8:	68a0      	ldr	r0, [r4, #8]
100034ea:	2800      	cmp	r0, #0
100034ec:	d0de      	beq.n	100034ac <usbd_control_xfer_cb+0x24>
100034ee:	461a      	mov	r2, r3
100034f0:	4928      	ldr	r1, [pc, #160]	; (10003594 <usbd_control_xfer_cb+0x10c>)
100034f2:	f004 fafb 	bl	10007aec <memcpy>
100034f6:	89e0      	ldrh	r0, [r4, #14]
100034f8:	68a1      	ldr	r1, [r4, #8]
100034fa:	88e2      	ldrh	r2, [r4, #6]
100034fc:	4430      	add	r0, r6
100034fe:	b280      	uxth	r0, r0
10003500:	4431      	add	r1, r6
10003502:	4282      	cmp	r2, r0
10003504:	81e0      	strh	r0, [r4, #14]
10003506:	60a1      	str	r1, [r4, #8]
10003508:	d016      	beq.n	10003538 <usbd_control_xfer_cb+0xb0>
1000350a:	2e3f      	cmp	r6, #63	; 0x3f
1000350c:	d914      	bls.n	10003538 <usbd_control_xfer_cb+0xb0>
1000350e:	89a2      	ldrh	r2, [r4, #12]
10003510:	f994 4000 	ldrsb.w	r4, [r4]
10003514:	1a13      	subs	r3, r2, r0
10003516:	b29b      	uxth	r3, r3
10003518:	2b40      	cmp	r3, #64	; 0x40
1000351a:	bf28      	it	cs
1000351c:	2340      	movcs	r3, #64	; 0x40
1000351e:	2c00      	cmp	r4, #0
10003520:	db27      	blt.n	10003572 <usbd_control_xfer_cb+0xea>
10003522:	4290      	cmp	r0, r2
10003524:	f04f 0100 	mov.w	r1, #0
10003528:	d02f      	beq.n	1000358a <usbd_control_xfer_cb+0x102>
1000352a:	4a1a      	ldr	r2, [pc, #104]	; (10003594 <usbd_control_xfer_cb+0x10c>)
1000352c:	4628      	mov	r0, r5
1000352e:	f7ff fed5 	bl	100032dc <usbd_edpt_xfer>
10003532:	2800      	cmp	r0, #0
10003534:	d1d1      	bne.n	100034da <usbd_control_xfer_cb+0x52>
10003536:	e014      	b.n	10003562 <usbd_control_xfer_cb+0xda>
10003538:	6923      	ldr	r3, [r4, #16]
1000353a:	b12b      	cbz	r3, 10003548 <usbd_control_xfer_cb+0xc0>
1000353c:	2102      	movs	r1, #2
1000353e:	4628      	mov	r0, r5
10003540:	4a13      	ldr	r2, [pc, #76]	; (10003590 <usbd_control_xfer_cb+0x108>)
10003542:	4798      	blx	r3
10003544:	2800      	cmp	r0, #0
10003546:	d0c0      	beq.n	100034ca <usbd_control_xfer_cb+0x42>
10003548:	2300      	movs	r3, #0
1000354a:	f994 2000 	ldrsb.w	r2, [r4]
1000354e:	4628      	mov	r0, r5
10003550:	429a      	cmp	r2, r3
10003552:	bfac      	ite	ge
10003554:	2180      	movge	r1, #128	; 0x80
10003556:	4619      	movlt	r1, r3
10003558:	461a      	mov	r2, r3
1000355a:	f7ff febf 	bl	100032dc <usbd_edpt_xfer>
1000355e:	2800      	cmp	r0, #0
10003560:	d1bb      	bne.n	100034da <usbd_control_xfer_cb+0x52>
10003562:	f04f 23e0 	mov.w	r3, #3758153728	; 0xe000e000
10003566:	f8d3 3df0 	ldr.w	r3, [r3, #3568]	; 0xdf0
1000356a:	07db      	lsls	r3, r3, #31
1000356c:	d59e      	bpl.n	100034ac <usbd_control_xfer_cb+0x24>
1000356e:	be00      	bkpt	0x0000
10003570:	e79d      	b.n	100034ae <usbd_control_xfer_cb+0x26>
10003572:	4290      	cmp	r0, r2
10003574:	d008      	beq.n	10003588 <usbd_control_xfer_cb+0x100>
10003576:	461a      	mov	r2, r3
10003578:	4806      	ldr	r0, [pc, #24]	; (10003594 <usbd_control_xfer_cb+0x10c>)
1000357a:	9301      	str	r3, [sp, #4]
1000357c:	f004 fab6 	bl	10007aec <memcpy>
10003580:	2180      	movs	r1, #128	; 0x80
10003582:	4a04      	ldr	r2, [pc, #16]	; (10003594 <usbd_control_xfer_cb+0x10c>)
10003584:	9b01      	ldr	r3, [sp, #4]
10003586:	e7d1      	b.n	1000352c <usbd_control_xfer_cb+0xa4>
10003588:	2180      	movs	r1, #128	; 0x80
1000358a:	2200      	movs	r2, #0
1000358c:	e7ce      	b.n	1000352c <usbd_control_xfer_cb+0xa4>
1000358e:	bf00      	nop
10003590:	200015f4 	.word	0x200015f4
10003594:	200015b4 	.word	0x200015b4

10003598 <_prep_out_transaction.isra.0>:
10003598:	e92d 41f0 	stmdb	sp!, {r4, r5, r6, r7, r8, lr}
1000359c:	4604      	mov	r4, r0
1000359e:	f7ff f99f 	bl	100028e0 <tud_mounted>
100035a2:	b908      	cbnz	r0, 100035a8 <_prep_out_transaction.isra.0+0x10>
100035a4:	e8bd 81f0 	ldmia.w	sp!, {r4, r5, r6, r7, r8, pc}
100035a8:	f7ff f9a2 	bl	100028f0 <tud_suspended>
100035ac:	4607      	mov	r7, r0
100035ae:	2800      	cmp	r0, #0
100035b0:	d1f8      	bne.n	100035a4 <_prep_out_transaction.isra.0+0xc>
100035b2:	25c8      	movs	r5, #200	; 0xc8
100035b4:	4b14      	ldr	r3, [pc, #80]	; (10003608 <_prep_out_transaction.isra.0+0x70>)
100035b6:	fb05 3604 	mla	r6, r5, r4, r3
100035ba:	78f2      	ldrb	r2, [r6, #3]
100035bc:	2a00      	cmp	r2, #0
100035be:	d0f1      	beq.n	100035a4 <_prep_out_transaction.isra.0+0xc>
100035c0:	fb05 3304 	mla	r3, r5, r4, r3
100035c4:	f103 0510 	add.w	r5, r3, #16
100035c8:	4628      	mov	r0, r5
100035ca:	f000 fdf3 	bl	100041b4 <tu_fifo_remaining>
100035ce:	283f      	cmp	r0, #63	; 0x3f
100035d0:	d9e8      	bls.n	100035a4 <_prep_out_transaction.isra.0+0xc>
100035d2:	4638      	mov	r0, r7
100035d4:	78f1      	ldrb	r1, [r6, #3]
100035d6:	f7ff fe5d 	bl	10003294 <usbd_edpt_claim>
100035da:	2800      	cmp	r0, #0
100035dc:	d0e2      	beq.n	100035a4 <_prep_out_transaction.isra.0+0xc>
100035de:	4628      	mov	r0, r5
100035e0:	f000 fde8 	bl	100041b4 <tu_fifo_remaining>
100035e4:	283f      	cmp	r0, #63	; 0x3f
100035e6:	d909      	bls.n	100035fc <_prep_out_transaction.isra.0+0x64>
100035e8:	4a08      	ldr	r2, [pc, #32]	; (1000360c <_prep_out_transaction.isra.0+0x74>)
100035ea:	4638      	mov	r0, r7
100035ec:	78f1      	ldrb	r1, [r6, #3]
100035ee:	eb02 12c4 	add.w	r2, r2, r4, lsl #7
100035f2:	2340      	movs	r3, #64	; 0x40
100035f4:	e8bd 41f0 	ldmia.w	sp!, {r4, r5, r6, r7, r8, lr}
100035f8:	f7ff be70 	b.w	100032dc <usbd_edpt_xfer>
100035fc:	4638      	mov	r0, r7
100035fe:	78f1      	ldrb	r1, [r6, #3]
10003600:	e8bd 41f0 	ldmia.w	sp!, {r4, r5, r6, r7, r8, lr}
10003604:	f7ff be58 	b.w	100032b8 <usbd_edpt_release>
10003608:	200014ec 	.word	0x200014ec
1000360c:	20001468 	.word	0x20001468

10003610 <tud_cdc_n_connected>:
10003610:	b510      	push	{r4, lr}
10003612:	4604      	mov	r4, r0
10003614:	f7ff f964 	bl	100028e0 <tud_mounted>
10003618:	b908      	cbnz	r0, 1000361e <tud_cdc_n_connected+0xe>
1000361a:	2000      	movs	r0, #0
1000361c:	bd10      	pop	{r4, pc}
1000361e:	f7ff f967 	bl	100028f0 <tud_suspended>
10003622:	2800      	cmp	r0, #0
10003624:	d1f9      	bne.n	1000361a <tud_cdc_n_connected+0xa>
10003626:	23c8      	movs	r3, #200	; 0xc8
10003628:	4803      	ldr	r0, [pc, #12]	; (10003638 <tud_cdc_n_connected+0x28>)
1000362a:	fb03 0004 	mla	r0, r3, r4, r0
1000362e:	7900      	ldrb	r0, [r0, #4]
10003630:	f000 0001 	and.w	r0, r0, #1
10003634:	bd10      	pop	{r4, pc}
10003636:	bf00      	nop
10003638:	200014ec 	.word	0x200014ec

1000363c <tud_cdc_n_available>:
1000363c:	22c8      	movs	r2, #200	; 0xc8
1000363e:	b508      	push	{r3, lr}
10003640:	4b03      	ldr	r3, [pc, #12]	; (10003650 <tud_cdc_n_available+0x14>)
10003642:	fb02 3000 	mla	r0, r2, r0, r3
10003646:	3010      	adds	r0, #16
10003648:	f000 fd9a 	bl	10004180 <tu_fifo_count>
1000364c:	bd08      	pop	{r3, pc}
1000364e:	bf00      	nop
10003650:	200014ec 	.word	0x200014ec

10003654 <tud_cdc_n_read>:
10003654:	e92d 43f8 	stmdb	sp!, {r3, r4, r5, r6, r7, r8, r9, lr}
10003658:	f64f 74fe 	movw	r4, #65534	; 0xfffe
1000365c:	f64f 73ff 	movw	r3, #65535	; 0xffff
10003660:	f04f 08c8 	mov.w	r8, #200	; 0xc8
10003664:	42a2      	cmp	r2, r4
10003666:	bf98      	it	ls
10003668:	4613      	movls	r3, r2
1000366a:	4e1c      	ldr	r6, [pc, #112]	; (100036dc <tud_cdc_n_read+0x88>)
1000366c:	4604      	mov	r4, r0
1000366e:	fb08 6500 	mla	r5, r8, r0, r6
10003672:	3510      	adds	r5, #16
10003674:	4628      	mov	r0, r5
10003676:	b29a      	uxth	r2, r3
10003678:	f000 fdf8 	bl	1000426c <tu_fifo_read_n>
1000367c:	4607      	mov	r7, r0
1000367e:	f7ff f92f 	bl	100028e0 <tud_mounted>
10003682:	b910      	cbnz	r0, 1000368a <tud_cdc_n_read+0x36>
10003684:	4638      	mov	r0, r7
10003686:	e8bd 83f8 	ldmia.w	sp!, {r3, r4, r5, r6, r7, r8, r9, pc}
1000368a:	f7ff f931 	bl	100028f0 <tud_suspended>
1000368e:	4681      	mov	r9, r0
10003690:	2800      	cmp	r0, #0
10003692:	d1f7      	bne.n	10003684 <tud_cdc_n_read+0x30>
10003694:	fb08 6604 	mla	r6, r8, r4, r6
10003698:	78f3      	ldrb	r3, [r6, #3]
1000369a:	2b00      	cmp	r3, #0
1000369c:	d0f2      	beq.n	10003684 <tud_cdc_n_read+0x30>
1000369e:	4628      	mov	r0, r5
100036a0:	f000 fd88 	bl	100041b4 <tu_fifo_remaining>
100036a4:	283f      	cmp	r0, #63	; 0x3f
100036a6:	d9ed      	bls.n	10003684 <tud_cdc_n_read+0x30>
100036a8:	4648      	mov	r0, r9
100036aa:	78f1      	ldrb	r1, [r6, #3]
100036ac:	f7ff fdf2 	bl	10003294 <usbd_edpt_claim>
100036b0:	2800      	cmp	r0, #0
100036b2:	d0e7      	beq.n	10003684 <tud_cdc_n_read+0x30>
100036b4:	4628      	mov	r0, r5
100036b6:	f000 fd7d 	bl	100041b4 <tu_fifo_remaining>
100036ba:	283f      	cmp	r0, #63	; 0x3f
100036bc:	d908      	bls.n	100036d0 <tud_cdc_n_read+0x7c>
100036be:	4a08      	ldr	r2, [pc, #32]	; (100036e0 <tud_cdc_n_read+0x8c>)
100036c0:	4648      	mov	r0, r9
100036c2:	2340      	movs	r3, #64	; 0x40
100036c4:	78f1      	ldrb	r1, [r6, #3]
100036c6:	eb02 12c4 	add.w	r2, r2, r4, lsl #7
100036ca:	f7ff fe07 	bl	100032dc <usbd_edpt_xfer>
100036ce:	e7d9      	b.n	10003684 <tud_cdc_n_read+0x30>
100036d0:	4648      	mov	r0, r9
100036d2:	78f1      	ldrb	r1, [r6, #3]
100036d4:	f7ff fdf0 	bl	100032b8 <usbd_edpt_release>
100036d8:	e7d4      	b.n	10003684 <tud_cdc_n_read+0x30>
100036da:	bf00      	nop
100036dc:	200014ec 	.word	0x200014ec
100036e0:	20001468 	.word	0x20001468

100036e4 <tud_cdc_n_write_flush>:
100036e4:	e92d 41f0 	stmdb	sp!, {r4, r5, r6, r7, r8, lr}
100036e8:	4605      	mov	r5, r0
100036ea:	f7ff f8f9 	bl	100028e0 <tud_mounted>
100036ee:	b910      	cbnz	r0, 100036f6 <tud_cdc_n_write_flush+0x12>
100036f0:	2000      	movs	r0, #0
100036f2:	e8bd 81f0 	ldmia.w	sp!, {r4, r5, r6, r7, r8, pc}
100036f6:	f7ff f8fb 	bl	100028f0 <tud_suspended>
100036fa:	4607      	mov	r7, r0
100036fc:	2800      	cmp	r0, #0
100036fe:	d1f7      	bne.n	100036f0 <tud_cdc_n_write_flush+0xc>
10003700:	f04f 08c8 	mov.w	r8, #200	; 0xc8
10003704:	4e17      	ldr	r6, [pc, #92]	; (10003764 <tud_cdc_n_write_flush+0x80>)
10003706:	fb08 6405 	mla	r4, r8, r5, r6
1000370a:	3424      	adds	r4, #36	; 0x24
1000370c:	4620      	mov	r0, r4
1000370e:	f000 fd37 	bl	10004180 <tu_fifo_count>
10003712:	2800      	cmp	r0, #0
10003714:	d0ec      	beq.n	100036f0 <tud_cdc_n_write_flush+0xc>
10003716:	fb08 6605 	mla	r6, r8, r5, r6
1000371a:	4638      	mov	r0, r7
1000371c:	78b1      	ldrb	r1, [r6, #2]
1000371e:	f7ff fdb9 	bl	10003294 <usbd_edpt_claim>
10003722:	2800      	cmp	r0, #0
10003724:	d0e4      	beq.n	100036f0 <tud_cdc_n_write_flush+0xc>
10003726:	2240      	movs	r2, #64	; 0x40
10003728:	490f      	ldr	r1, [pc, #60]	; (10003768 <tud_cdc_n_write_flush+0x84>)
1000372a:	eb02 15c5 	add.w	r5, r2, r5, lsl #7
1000372e:	440d      	add	r5, r1
10003730:	4620      	mov	r0, r4
10003732:	4629      	mov	r1, r5
10003734:	f000 fd9a 	bl	1000426c <tu_fifo_read_n>
10003738:	4604      	mov	r4, r0
1000373a:	b170      	cbz	r0, 1000375a <tud_cdc_n_write_flush+0x76>
1000373c:	4603      	mov	r3, r0
1000373e:	462a      	mov	r2, r5
10003740:	4638      	mov	r0, r7
10003742:	78b1      	ldrb	r1, [r6, #2]
10003744:	f7ff fdca 	bl	100032dc <usbd_edpt_xfer>
10003748:	b950      	cbnz	r0, 10003760 <tud_cdc_n_write_flush+0x7c>
1000374a:	f04f 23e0 	mov.w	r3, #3758153728	; 0xe000e000
1000374e:	f8d3 3df0 	ldr.w	r3, [r3, #3568]	; 0xdf0
10003752:	07db      	lsls	r3, r3, #31
10003754:	d5cc      	bpl.n	100036f0 <tud_cdc_n_write_flush+0xc>
10003756:	be00      	bkpt	0x0000
10003758:	e7cb      	b.n	100036f2 <tud_cdc_n_write_flush+0xe>
1000375a:	78b1      	ldrb	r1, [r6, #2]
1000375c:	f7ff fdac 	bl	100032b8 <usbd_edpt_release>
10003760:	4620      	mov	r0, r4
10003762:	e7c6      	b.n	100036f2 <tud_cdc_n_write_flush+0xe>
10003764:	200014ec 	.word	0x200014ec
10003768:	20001468 	.word	0x20001468

1000376c <tud_cdc_n_write>:
1000376c:	b538      	push	{r3, r4, r5, lr}
1000376e:	f64f 75fe 	movw	r5, #65534	; 0xfffe
10003772:	f64f 73ff 	movw	r3, #65535	; 0xffff
10003776:	f04f 0cc8 	mov.w	ip, #200	; 0xc8
1000377a:	42aa      	cmp	r2, r5
1000377c:	bf98      	it	ls
1000377e:	4613      	movls	r3, r2
10003780:	4c0b      	ldr	r4, [pc, #44]	; (100037b0 <tud_cdc_n_write+0x44>)
10003782:	b29a      	uxth	r2, r3
10003784:	fb0c 4400 	mla	r4, ip, r0, r4
10003788:	3424      	adds	r4, #36	; 0x24
1000378a:	4605      	mov	r5, r0
1000378c:	4620      	mov	r0, r4
1000378e:	f000 fe19 	bl	100043c4 <tu_fifo_write_n>
10003792:	4603      	mov	r3, r0
10003794:	4620      	mov	r0, r4
10003796:	461c      	mov	r4, r3
10003798:	f000 fcf2 	bl	10004180 <tu_fifo_count>
1000379c:	283f      	cmp	r0, #63	; 0x3f
1000379e:	d801      	bhi.n	100037a4 <tud_cdc_n_write+0x38>
100037a0:	4620      	mov	r0, r4
100037a2:	bd38      	pop	{r3, r4, r5, pc}
100037a4:	4628      	mov	r0, r5
100037a6:	f7ff ff9d 	bl	100036e4 <tud_cdc_n_write_flush>
100037aa:	4620      	mov	r0, r4
100037ac:	bd38      	pop	{r3, r4, r5, pc}
100037ae:	bf00      	nop
100037b0:	200014ec 	.word	0x200014ec

100037b4 <tud_cdc_n_write_available>:
100037b4:	22c8      	movs	r2, #200	; 0xc8
100037b6:	b508      	push	{r3, lr}
100037b8:	4b03      	ldr	r3, [pc, #12]	; (100037c8 <tud_cdc_n_write_available+0x14>)
100037ba:	fb02 3000 	mla	r0, r2, r0, r3
100037be:	3024      	adds	r0, #36	; 0x24
100037c0:	f000 fcf8 	bl	100041b4 <tu_fifo_remaining>
100037c4:	bd08      	pop	{r3, pc}
100037c6:	bf00      	nop
100037c8:	200014ec 	.word	0x200014ec

100037cc <cdcd_init>:
100037cc:	b5f0      	push	{r4, r5, r6, r7, lr}
100037ce:	2500      	movs	r5, #0
100037d0:	4c18      	ldr	r4, [pc, #96]	; (10003834 <cdcd_init+0x68>)
100037d2:	b083      	sub	sp, #12
100037d4:	4629      	mov	r1, r5
100037d6:	22c8      	movs	r2, #200	; 0xc8
100037d8:	4620      	mov	r0, r4
100037da:	f004 f9fd 	bl	10007bd8 <memset>
100037de:	23ff      	movs	r3, #255	; 0xff
100037e0:	f44f 31e1 	mov.w	r1, #115200	; 0x1c200
100037e4:	2208      	movs	r2, #8
100037e6:	4814      	ldr	r0, [pc, #80]	; (10003838 <cdcd_init+0x6c>)
100037e8:	7163      	strb	r3, [r4, #5]
100037ea:	7005      	strb	r5, [r0, #0]
100037ec:	60a1      	str	r1, [r4, #8]
100037ee:	73a2      	strb	r2, [r4, #14]
100037f0:	f104 0138 	add.w	r1, r4, #56	; 0x38
100037f4:	2301      	movs	r3, #1
100037f6:	2240      	movs	r2, #64	; 0x40
100037f8:	9500      	str	r5, [sp, #0]
100037fa:	f104 0010 	add.w	r0, r4, #16
100037fe:	f000 fc8d 	bl	1000411c <tu_fifo_config>
10003802:	2301      	movs	r3, #1
10003804:	2240      	movs	r2, #64	; 0x40
10003806:	f104 0178 	add.w	r1, r4, #120	; 0x78
1000380a:	9300      	str	r3, [sp, #0]
1000380c:	f104 07b8 	add.w	r7, r4, #184	; 0xb8
10003810:	f104 0024 	add.w	r0, r4, #36	; 0x24
10003814:	f000 fc82 	bl	1000411c <tu_fifo_config>
10003818:	f104 06c0 	add.w	r6, r4, #192	; 0xc0
1000381c:	4638      	mov	r0, r7
1000381e:	f7fd fb29 	bl	10000e74 <mutex_init>
10003822:	4630      	mov	r0, r6
10003824:	f7fd fb26 	bl	10000e74 <mutex_init>
10003828:	e9c4 5707 	strd	r5, r7, [r4, #28]
1000382c:	e9c4 650c 	strd	r6, r5, [r4, #48]	; 0x30
10003830:	b003      	add	sp, #12
10003832:	bdf0      	pop	{r4, r5, r6, r7, pc}
10003834:	200014ec 	.word	0x200014ec
10003838:	200014e8 	.word	0x200014e8

1000383c <cdcd_deinit>:
1000383c:	4b06      	ldr	r3, [pc, #24]	; (10003858 <cdcd_deinit+0x1c>)
1000383e:	6a1a      	ldr	r2, [r3, #32]
10003840:	6b19      	ldr	r1, [r3, #48]	; 0x30
10003842:	b112      	cbz	r2, 1000384a <cdcd_deinit+0xe>
10003844:	2200      	movs	r2, #0
10003846:	e9c3 2207 	strd	r2, r2, [r3, #28]
1000384a:	b111      	cbz	r1, 10003852 <cdcd_deinit+0x16>
1000384c:	2200      	movs	r2, #0
1000384e:	e9c3 220c 	strd	r2, r2, [r3, #48]	; 0x30
10003852:	2001      	movs	r0, #1
10003854:	4770      	bx	lr
10003856:	bf00      	nop
10003858:	200014ec 	.word	0x200014ec

1000385c <cdcd_reset>:
1000385c:	2200      	movs	r2, #0
1000385e:	b510      	push	{r4, lr}
10003860:	4c0e      	ldr	r4, [pc, #56]	; (1000389c <cdcd_reset+0x40>)
10003862:	480f      	ldr	r0, [pc, #60]	; (100038a0 <cdcd_reset+0x44>)
10003864:	7823      	ldrb	r3, [r4, #0]
10003866:	6002      	str	r2, [r0, #0]
10003868:	7102      	strb	r2, [r0, #4]
1000386a:	07da      	lsls	r2, r3, #31
1000386c:	d507      	bpl.n	1000387e <cdcd_reset+0x22>
1000386e:	079b      	lsls	r3, r3, #30
10003870:	d50b      	bpl.n	1000388a <cdcd_reset+0x2e>
10003872:	e8bd 4010 	ldmia.w	sp!, {r4, lr}
10003876:	2101      	movs	r1, #1
10003878:	480a      	ldr	r0, [pc, #40]	; (100038a4 <cdcd_reset+0x48>)
1000387a:	f000 be6d 	b.w	10004558 <tu_fifo_set_overwritable>
1000387e:	3010      	adds	r0, #16
10003880:	f000 fe4e 	bl	10004520 <tu_fifo_clear>
10003884:	7823      	ldrb	r3, [r4, #0]
10003886:	079b      	lsls	r3, r3, #30
10003888:	d4f3      	bmi.n	10003872 <cdcd_reset+0x16>
1000388a:	4806      	ldr	r0, [pc, #24]	; (100038a4 <cdcd_reset+0x48>)
1000388c:	f000 fe48 	bl	10004520 <tu_fifo_clear>
10003890:	e8bd 4010 	ldmia.w	sp!, {r4, lr}
10003894:	2101      	movs	r1, #1
10003896:	4803      	ldr	r0, [pc, #12]	; (100038a4 <cdcd_reset+0x48>)
10003898:	f000 be5e 	b.w	10004558 <tu_fifo_set_overwritable>
1000389c:	200014e8 	.word	0x200014e8
100038a0:	200014ec 	.word	0x200014ec
100038a4:	20001510 	.word	0x20001510

100038a8 <cdcd_open>:
100038a8:	b5f0      	push	{r4, r5, r6, r7, lr}
100038aa:	794b      	ldrb	r3, [r1, #5]
100038ac:	b083      	sub	sp, #12
100038ae:	2b02      	cmp	r3, #2
100038b0:	d102      	bne.n	100038b8 <cdcd_open+0x10>
100038b2:	798b      	ldrb	r3, [r1, #6]
100038b4:	2b02      	cmp	r3, #2
100038b6:	d003      	beq.n	100038c0 <cdcd_open+0x18>
100038b8:	2500      	movs	r5, #0
100038ba:	4628      	mov	r0, r5
100038bc:	b003      	add	sp, #12
100038be:	bdf0      	pop	{r4, r5, r6, r7, pc}
100038c0:	4f26      	ldr	r7, [pc, #152]	; (1000395c <cdcd_open+0xb4>)
100038c2:	78bb      	ldrb	r3, [r7, #2]
100038c4:	b13b      	cbz	r3, 100038d6 <cdcd_open+0x2e>
100038c6:	f04f 23e0 	mov.w	r3, #3758153728	; 0xe000e000
100038ca:	f8d3 3df0 	ldr.w	r3, [r3, #3568]	; 0xdf0
100038ce:	07db      	lsls	r3, r3, #31
100038d0:	d5f2      	bpl.n	100038b8 <cdcd_open+0x10>
100038d2:	be00      	bkpt	0x0000
100038d4:	e7f0      	b.n	100038b8 <cdcd_open+0x10>
100038d6:	788b      	ldrb	r3, [r1, #2]
100038d8:	4606      	mov	r6, r0
100038da:	703b      	strb	r3, [r7, #0]
100038dc:	780c      	ldrb	r4, [r1, #0]
100038de:	2509      	movs	r5, #9
100038e0:	440c      	add	r4, r1
100038e2:	7861      	ldrb	r1, [r4, #1]
100038e4:	2924      	cmp	r1, #36	; 0x24
100038e6:	d10b      	bne.n	10003900 <cdcd_open+0x58>
100038e8:	2a08      	cmp	r2, #8
100038ea:	d802      	bhi.n	100038f2 <cdcd_open+0x4a>
100038ec:	e00f      	b.n	1000390e <cdcd_open+0x66>
100038ee:	42aa      	cmp	r2, r5
100038f0:	d30d      	bcc.n	1000390e <cdcd_open+0x66>
100038f2:	7823      	ldrb	r3, [r4, #0]
100038f4:	441c      	add	r4, r3
100038f6:	7861      	ldrb	r1, [r4, #1]
100038f8:	442b      	add	r3, r5
100038fa:	2924      	cmp	r1, #36	; 0x24
100038fc:	b29d      	uxth	r5, r3
100038fe:	d0f6      	beq.n	100038ee <cdcd_open+0x46>
10003900:	2905      	cmp	r1, #5
10003902:	d00a      	beq.n	1000391a <cdcd_open+0x72>
10003904:	2904      	cmp	r1, #4
10003906:	d102      	bne.n	1000390e <cdcd_open+0x66>
10003908:	7963      	ldrb	r3, [r4, #5]
1000390a:	2b0a      	cmp	r3, #10
1000390c:	d013      	beq.n	10003936 <cdcd_open+0x8e>
1000390e:	2000      	movs	r0, #0
10003910:	f7ff fe42 	bl	10003598 <_prep_out_transaction.isra.0>
10003914:	4628      	mov	r0, r5
10003916:	b003      	add	sp, #12
10003918:	bdf0      	pop	{r4, r5, r6, r7, pc}
1000391a:	4621      	mov	r1, r4
1000391c:	4630      	mov	r0, r6
1000391e:	f7ff fc97 	bl	10003250 <usbd_edpt_open>
10003922:	2800      	cmp	r0, #0
10003924:	d0cf      	beq.n	100038c6 <cdcd_open+0x1e>
10003926:	78a3      	ldrb	r3, [r4, #2]
10003928:	707b      	strb	r3, [r7, #1]
1000392a:	7823      	ldrb	r3, [r4, #0]
1000392c:	441c      	add	r4, r3
1000392e:	442b      	add	r3, r5
10003930:	7861      	ldrb	r1, [r4, #1]
10003932:	b29d      	uxth	r5, r3
10003934:	e7e6      	b.n	10003904 <cdcd_open+0x5c>
10003936:	4b0a      	ldr	r3, [pc, #40]	; (10003960 <cdcd_open+0xb8>)
10003938:	7827      	ldrb	r7, [r4, #0]
1000393a:	9301      	str	r3, [sp, #4]
1000393c:	3301      	adds	r3, #1
1000393e:	9300      	str	r3, [sp, #0]
10003940:	2302      	movs	r3, #2
10003942:	4630      	mov	r0, r6
10003944:	461a      	mov	r2, r3
10003946:	19e1      	adds	r1, r4, r7
10003948:	f7ff fc34 	bl	100031b4 <usbd_open_edpt_pair>
1000394c:	2800      	cmp	r0, #0
1000394e:	d0ba      	beq.n	100038c6 <cdcd_open+0x1e>
10003950:	f105 030e 	add.w	r3, r5, #14
10003954:	fa17 f383 	uxtah	r3, r7, r3
10003958:	b29d      	uxth	r5, r3
1000395a:	e7d8      	b.n	1000390e <cdcd_open+0x66>
1000395c:	200014ec 	.word	0x200014ec
10003960:	200014ee 	.word	0x200014ee

10003964 <cdcd_control_xfer_cb>:
10003964:	7813      	ldrb	r3, [r2, #0]
10003966:	f003 0360 	and.w	r3, r3, #96	; 0x60
1000396a:	2b20      	cmp	r3, #32
1000396c:	d108      	bne.n	10003980 <cdcd_control_xfer_cb+0x1c>
1000396e:	b570      	push	{r4, r5, r6, lr}
10003970:	4c28      	ldr	r4, [pc, #160]	; (10003a14 <cdcd_control_xfer_cb+0xb0>)
10003972:	8893      	ldrh	r3, [r2, #4]
10003974:	f894 c000 	ldrb.w	ip, [r4]
10003978:	459c      	cmp	ip, r3
1000397a:	d003      	beq.n	10003984 <cdcd_control_xfer_cb+0x20>
1000397c:	2000      	movs	r0, #0
1000397e:	bd70      	pop	{r4, r5, r6, pc}
10003980:	2000      	movs	r0, #0
10003982:	4770      	bx	lr
10003984:	7853      	ldrb	r3, [r2, #1]
10003986:	3b20      	subs	r3, #32
10003988:	2b03      	cmp	r3, #3
1000398a:	d8f7      	bhi.n	1000397c <cdcd_control_xfer_cb+0x18>
1000398c:	e8df f003 	tbb	[pc, r3]
10003990:	020d2428 	.word	0x020d2428
10003994:	2901      	cmp	r1, #1
10003996:	d030      	beq.n	100039fa <cdcd_control_xfer_cb+0x96>
10003998:	2903      	cmp	r1, #3
1000399a:	d11f      	bne.n	100039dc <cdcd_control_xfer_cb+0x78>
1000399c:	4b1e      	ldr	r3, [pc, #120]	; (10003a18 <cdcd_control_xfer_cb+0xb4>)
1000399e:	b1eb      	cbz	r3, 100039dc <cdcd_control_xfer_cb+0x78>
100039a0:	2000      	movs	r0, #0
100039a2:	8851      	ldrh	r1, [r2, #2]
100039a4:	e000      	b.n	100039a8 <cdcd_control_xfer_cb+0x44>
100039a6:	bf00      	nop
100039a8:	e018      	b.n	100039dc <cdcd_control_xfer_cb+0x78>
100039aa:	2901      	cmp	r1, #1
100039ac:	d025      	beq.n	100039fa <cdcd_control_xfer_cb+0x96>
100039ae:	2903      	cmp	r1, #3
100039b0:	d114      	bne.n	100039dc <cdcd_control_xfer_cb+0x78>
100039b2:	8855      	ldrh	r5, [r2, #2]
100039b4:	4819      	ldr	r0, [pc, #100]	; (10003a1c <cdcd_control_xfer_cb+0xb8>)
100039b6:	f005 0601 	and.w	r6, r5, #1
100039ba:	f086 0101 	eor.w	r1, r6, #1
100039be:	7125      	strb	r5, [r4, #4]
100039c0:	f000 fdca 	bl	10004558 <tu_fifo_set_overwritable>
100039c4:	4b16      	ldr	r3, [pc, #88]	; (10003a20 <cdcd_control_xfer_cb+0xbc>)
100039c6:	b14b      	cbz	r3, 100039dc <cdcd_control_xfer_cb+0x78>
100039c8:	4631      	mov	r1, r6
100039ca:	2000      	movs	r0, #0
100039cc:	f3c5 0240 	ubfx	r2, r5, #1, #1
100039d0:	e000      	b.n	100039d4 <cdcd_control_xfer_cb+0x70>
100039d2:	bf00      	nop
100039d4:	2001      	movs	r0, #1
100039d6:	bd70      	pop	{r4, r5, r6, pc}
100039d8:	2901      	cmp	r1, #1
100039da:	d013      	beq.n	10003a04 <cdcd_control_xfer_cb+0xa0>
100039dc:	2001      	movs	r0, #1
100039de:	bd70      	pop	{r4, r5, r6, pc}
100039e0:	2901      	cmp	r1, #1
100039e2:	d00f      	beq.n	10003a04 <cdcd_control_xfer_cb+0xa0>
100039e4:	2903      	cmp	r1, #3
100039e6:	d1f9      	bne.n	100039dc <cdcd_control_xfer_cb+0x78>
100039e8:	4b0e      	ldr	r3, [pc, #56]	; (10003a24 <cdcd_control_xfer_cb+0xc0>)
100039ea:	2b00      	cmp	r3, #0
100039ec:	d0f6      	beq.n	100039dc <cdcd_control_xfer_cb+0x78>
100039ee:	2000      	movs	r0, #0
100039f0:	490d      	ldr	r1, [pc, #52]	; (10003a28 <cdcd_control_xfer_cb+0xc4>)
100039f2:	f7fe fa79 	bl	10001ee8 <tud_cdc_line_coding_cb>
100039f6:	2001      	movs	r0, #1
100039f8:	bd70      	pop	{r4, r5, r6, pc}
100039fa:	4611      	mov	r1, r2
100039fc:	f7ff fca6 	bl	1000334c <tud_control_status>
10003a00:	2001      	movs	r0, #1
10003a02:	bd70      	pop	{r4, r5, r6, pc}
10003a04:	4611      	mov	r1, r2
10003a06:	2307      	movs	r3, #7
10003a08:	4a07      	ldr	r2, [pc, #28]	; (10003a28 <cdcd_control_xfer_cb+0xc4>)
10003a0a:	f7ff fcb9 	bl	10003380 <tud_control_xfer>
10003a0e:	2001      	movs	r0, #1
10003a10:	bd70      	pop	{r4, r5, r6, pc}
10003a12:	bf00      	nop
10003a14:	200014ec 	.word	0x200014ec
10003a18:	00000000 	.word	0x00000000
10003a1c:	20001510 	.word	0x20001510
10003a20:	00000000 	.word	0x00000000
10003a24:	10001ee9 	.word	0x10001ee9
10003a28:	200014f4 	.word	0x200014f4

10003a2c <cdcd_xfer_cb>:
10003a2c:	e92d 47f0 	stmdb	sp!, {r4, r5, r6, r7, r8, r9, sl, lr}
10003a30:	4d37      	ldr	r5, [pc, #220]	; (10003b10 <cdcd_xfer_cb+0xe4>)
10003a32:	460c      	mov	r4, r1
10003a34:	78ea      	ldrb	r2, [r5, #3]
10003a36:	4607      	mov	r7, r0
10003a38:	428a      	cmp	r2, r1
10003a3a:	461e      	mov	r6, r3
10003a3c:	d155      	bne.n	10003aea <cdcd_xfer_cb+0xbe>
10003a3e:	f8df 80e8 	ldr.w	r8, [pc, #232]	; 10003b28 <cdcd_xfer_cb+0xfc>
10003a42:	b29a      	uxth	r2, r3
10003a44:	4641      	mov	r1, r8
10003a46:	f105 0010 	add.w	r0, r5, #16
10003a4a:	f000 fcbb 	bl	100043c4 <tu_fifo_write_n>
10003a4e:	4b31      	ldr	r3, [pc, #196]	; (10003b14 <cdcd_xfer_cb+0xe8>)
10003a50:	b1c3      	cbz	r3, 10003a84 <cdcd_xfer_cb+0x58>
10003a52:	796b      	ldrb	r3, [r5, #5]
10003a54:	2bff      	cmp	r3, #255	; 0xff
10003a56:	d015      	beq.n	10003a84 <cdcd_xfer_cb+0x58>
10003a58:	b1a6      	cbz	r6, 10003a84 <cdcd_xfer_cb+0x58>
10003a5a:	f105 0910 	add.w	r9, r5, #16
10003a5e:	eb08 0a06 	add.w	sl, r8, r6
10003a62:	e002      	b.n	10003a6a <cdcd_xfer_cb+0x3e>
10003a64:	45d0      	cmp	r8, sl
10003a66:	d00d      	beq.n	10003a84 <cdcd_xfer_cb+0x58>
10003a68:	796b      	ldrb	r3, [r5, #5]
10003a6a:	f818 2b01 	ldrb.w	r2, [r8], #1
10003a6e:	429a      	cmp	r2, r3
10003a70:	d1f8      	bne.n	10003a64 <cdcd_xfer_cb+0x38>
10003a72:	4648      	mov	r0, r9
10003a74:	f000 fb94 	bl	100041a0 <tu_fifo_empty>
10003a78:	2800      	cmp	r0, #0
10003a7a:	d1f3      	bne.n	10003a64 <cdcd_xfer_cb+0x38>
10003a7c:	7969      	ldrb	r1, [r5, #5]
10003a7e:	e000      	b.n	10003a82 <cdcd_xfer_cb+0x56>
10003a80:	bf00      	nop
10003a82:	e7ef      	b.n	10003a64 <cdcd_xfer_cb+0x38>
10003a84:	4b24      	ldr	r3, [pc, #144]	; (10003b18 <cdcd_xfer_cb+0xec>)
10003a86:	b123      	cbz	r3, 10003a92 <cdcd_xfer_cb+0x66>
10003a88:	4824      	ldr	r0, [pc, #144]	; (10003b1c <cdcd_xfer_cb+0xf0>)
10003a8a:	f000 fb89 	bl	100041a0 <tu_fifo_empty>
10003a8e:	2800      	cmp	r0, #0
10003a90:	d03a      	beq.n	10003b08 <cdcd_xfer_cb+0xdc>
10003a92:	2000      	movs	r0, #0
10003a94:	f7ff fd80 	bl	10003598 <_prep_out_transaction.isra.0>
10003a98:	78ab      	ldrb	r3, [r5, #2]
10003a9a:	42a3      	cmp	r3, r4
10003a9c:	d003      	beq.n	10003aa6 <cdcd_xfer_cb+0x7a>
10003a9e:	2401      	movs	r4, #1
10003aa0:	4620      	mov	r0, r4
10003aa2:	e8bd 87f0 	ldmia.w	sp!, {r4, r5, r6, r7, r8, r9, sl, pc}
10003aa6:	4b1e      	ldr	r3, [pc, #120]	; (10003b20 <cdcd_xfer_cb+0xf4>)
10003aa8:	b113      	cbz	r3, 10003ab0 <cdcd_xfer_cb+0x84>
10003aaa:	2000      	movs	r0, #0
10003aac:	e000      	b.n	10003ab0 <cdcd_xfer_cb+0x84>
10003aae:	bf00      	nop
10003ab0:	2000      	movs	r0, #0
10003ab2:	f7ff fe17 	bl	100036e4 <tud_cdc_n_write_flush>
10003ab6:	2800      	cmp	r0, #0
10003ab8:	d1f1      	bne.n	10003a9e <cdcd_xfer_cb+0x72>
10003aba:	481a      	ldr	r0, [pc, #104]	; (10003b24 <cdcd_xfer_cb+0xf8>)
10003abc:	f000 fb60 	bl	10004180 <tu_fifo_count>
10003ac0:	2800      	cmp	r0, #0
10003ac2:	d1ec      	bne.n	10003a9e <cdcd_xfer_cb+0x72>
10003ac4:	2e00      	cmp	r6, #0
10003ac6:	d0ea      	beq.n	10003a9e <cdcd_xfer_cb+0x72>
10003ac8:	f016 063f 	ands.w	r6, r6, #63	; 0x3f
10003acc:	d1e7      	bne.n	10003a9e <cdcd_xfer_cb+0x72>
10003ace:	4638      	mov	r0, r7
10003ad0:	78a9      	ldrb	r1, [r5, #2]
10003ad2:	f7ff fbdf 	bl	10003294 <usbd_edpt_claim>
10003ad6:	4604      	mov	r4, r0
10003ad8:	2800      	cmp	r0, #0
10003ada:	d0e0      	beq.n	10003a9e <cdcd_xfer_cb+0x72>
10003adc:	4633      	mov	r3, r6
10003ade:	4632      	mov	r2, r6
10003ae0:	4638      	mov	r0, r7
10003ae2:	78a9      	ldrb	r1, [r5, #2]
10003ae4:	f7ff fbfa 	bl	100032dc <usbd_edpt_xfer>
10003ae8:	e7da      	b.n	10003aa0 <cdcd_xfer_cb+0x74>
10003aea:	78ab      	ldrb	r3, [r5, #2]
10003aec:	428b      	cmp	r3, r1
10003aee:	d0da      	beq.n	10003aa6 <cdcd_xfer_cb+0x7a>
10003af0:	f04f 23e0 	mov.w	r3, #3758153728	; 0xe000e000
10003af4:	f8d3 4df0 	ldr.w	r4, [r3, #3568]	; 0xdf0
10003af8:	f014 0401 	ands.w	r4, r4, #1
10003afc:	d0d0      	beq.n	10003aa0 <cdcd_xfer_cb+0x74>
10003afe:	be00      	bkpt	0x0000
10003b00:	2400      	movs	r4, #0
10003b02:	4620      	mov	r0, r4
10003b04:	e8bd 87f0 	ldmia.w	sp!, {r4, r5, r6, r7, r8, r9, sl, pc}
10003b08:	e000      	b.n	10003b0c <cdcd_xfer_cb+0xe0>
10003b0a:	bf00      	nop
10003b0c:	e7c1      	b.n	10003a92 <cdcd_xfer_cb+0x66>
10003b0e:	bf00      	nop
10003b10:	200014ec 	.word	0x200014ec
	...
10003b1c:	200014fc 	.word	0x200014fc
10003b20:	00000000 	.word	0x00000000
10003b24:	20001510 	.word	0x20001510
10003b28:	20001468 	.word	0x20001468

10003b2c <vendord_init>:
10003b2c:	b5f0      	push	{r4, r5, r6, r7, lr}
10003b2e:	4c14      	ldr	r4, [pc, #80]	; (10003b80 <vendord_init+0x54>)
10003b30:	b085      	sub	sp, #20
10003b32:	f44f 7213 	mov.w	r2, #588	; 0x24c
10003b36:	2100      	movs	r1, #0
10003b38:	4620      	mov	r0, r4
10003b3a:	f004 f84d 	bl	10007bd8 <memset>
10003b3e:	2740      	movs	r7, #64	; 0x40
10003b40:	2300      	movs	r3, #0
10003b42:	f44f 7680 	mov.w	r6, #256	; 0x100
10003b46:	4d0f      	ldr	r5, [pc, #60]	; (10003b84 <vendord_init+0x58>)
10003b48:	f504 72a6 	add.w	r2, r4, #332	; 0x14c
10003b4c:	4619      	mov	r1, r3
10003b4e:	9502      	str	r5, [sp, #8]
10003b50:	9200      	str	r2, [sp, #0]
10003b52:	f504 7094 	add.w	r0, r4, #296	; 0x128
10003b56:	461a      	mov	r2, r3
10003b58:	9703      	str	r7, [sp, #12]
10003b5a:	9601      	str	r6, [sp, #4]
10003b5c:	f000 f9d8 	bl	10003f10 <tu_edpt_stream_init>
10003b60:	2300      	movs	r3, #0
10003b62:	f104 0228 	add.w	r2, r4, #40	; 0x28
10003b66:	443d      	add	r5, r7
10003b68:	9200      	str	r2, [sp, #0]
10003b6a:	4619      	mov	r1, r3
10003b6c:	2201      	movs	r2, #1
10003b6e:	e9cd 5702 	strd	r5, r7, [sp, #8]
10003b72:	9601      	str	r6, [sp, #4]
10003b74:	1d20      	adds	r0, r4, #4
10003b76:	f000 f9cb 	bl	10003f10 <tu_edpt_stream_init>
10003b7a:	b005      	add	sp, #20
10003b7c:	bdf0      	pop	{r4, r5, r6, r7, pc}
10003b7e:	bf00      	nop
10003b80:	200017d0 	.word	0x200017d0
10003b84:	20001750 	.word	0x20001750

10003b88 <vendord_deinit>:
10003b88:	b510      	push	{r4, lr}
10003b8a:	4c05      	ldr	r4, [pc, #20]	; (10003ba0 <vendord_deinit+0x18>)
10003b8c:	f504 7094 	add.w	r0, r4, #296	; 0x128
10003b90:	f000 f9ea 	bl	10003f68 <tu_edpt_stream_deinit>
10003b94:	1d20      	adds	r0, r4, #4
10003b96:	f000 f9e7 	bl	10003f68 <tu_edpt_stream_deinit>
10003b9a:	2001      	movs	r0, #1
10003b9c:	bd10      	pop	{r4, pc}
10003b9e:	bf00      	nop
10003ba0:	200017d0 	.word	0x200017d0

10003ba4 <vendord_reset>:
10003ba4:	b538      	push	{r3, r4, r5, lr}
10003ba6:	2500      	movs	r5, #0
10003ba8:	4c06      	ldr	r4, [pc, #24]	; (10003bc4 <vendord_reset+0x20>)
10003baa:	f504 7098 	add.w	r0, r4, #304	; 0x130
10003bae:	7025      	strb	r5, [r4, #0]
10003bb0:	f000 fcb6 	bl	10004520 <tu_fifo_clear>
10003bb4:	f104 000c 	add.w	r0, r4, #12
10003bb8:	f000 fcb2 	bl	10004520 <tu_fifo_clear>
10003bbc:	f884 5129 	strb.w	r5, [r4, #297]	; 0x129
10003bc0:	7165      	strb	r5, [r4, #5]
10003bc2:	bd38      	pop	{r3, r4, r5, pc}
10003bc4:	200017d0 	.word	0x200017d0

10003bc8 <vendord_open>:
10003bc8:	e92d 4ff8 	stmdb	sp!, {r3, r4, r5, r6, r7, r8, r9, sl, fp, lr}
10003bcc:	794b      	ldrb	r3, [r1, #5]
10003bce:	2bff      	cmp	r3, #255	; 0xff
10003bd0:	d150      	bne.n	10003c74 <vendord_open+0xac>
10003bd2:	4d39      	ldr	r5, [pc, #228]	; (10003cb8 <vendord_open+0xf0>)
10003bd4:	780c      	ldrb	r4, [r1, #0]
10003bd6:	f895 3129 	ldrb.w	r3, [r5, #297]	; 0x129
10003bda:	796e      	ldrb	r6, [r5, #5]
10003bdc:	440c      	add	r4, r1
10003bde:	431e      	orrs	r6, r3
10003be0:	460f      	mov	r7, r1
10003be2:	eb04 0b02 	add.w	fp, r4, r2
10003be6:	d145      	bne.n	10003c74 <vendord_open+0xac>
10003be8:	788b      	ldrb	r3, [r1, #2]
10003bea:	702b      	strb	r3, [r5, #0]
10003bec:	790b      	ldrb	r3, [r1, #4]
10003bee:	2b00      	cmp	r3, #0
10003bf0:	d03c      	beq.n	10003c6c <vendord_open+0xa4>
10003bf2:	4680      	mov	r8, r0
10003bf4:	f505 7998 	add.w	r9, r5, #304	; 0x130
10003bf8:	f105 0a0c 	add.w	sl, r5, #12
10003bfc:	7863      	ldrb	r3, [r4, #1]
10003bfe:	2b05      	cmp	r3, #5
10003c00:	d009      	beq.n	10003c16 <vendord_open+0x4e>
10003c02:	45a3      	cmp	fp, r4
10003c04:	d802      	bhi.n	10003c0c <vendord_open+0x44>
10003c06:	e031      	b.n	10003c6c <vendord_open+0xa4>
10003c08:	455c      	cmp	r4, fp
10003c0a:	d22f      	bcs.n	10003c6c <vendord_open+0xa4>
10003c0c:	7823      	ldrb	r3, [r4, #0]
10003c0e:	441c      	add	r4, r3
10003c10:	7863      	ldrb	r3, [r4, #1]
10003c12:	2b05      	cmp	r3, #5
10003c14:	d1f8      	bne.n	10003c08 <vendord_open+0x40>
10003c16:	45a3      	cmp	fp, r4
10003c18:	d928      	bls.n	10003c6c <vendord_open+0xa4>
10003c1a:	4621      	mov	r1, r4
10003c1c:	4640      	mov	r0, r8
10003c1e:	f7ff fb17 	bl	10003250 <usbd_edpt_open>
10003c22:	2800      	cmp	r0, #0
10003c24:	d03f      	beq.n	10003ca6 <vendord_open+0xde>
10003c26:	78a3      	ldrb	r3, [r4, #2]
10003c28:	09db      	lsrs	r3, r3, #7
10003c2a:	d126      	bne.n	10003c7a <vendord_open+0xb2>
10003c2c:	4648      	mov	r0, r9
10003c2e:	f000 fc77 	bl	10004520 <tu_fifo_clear>
10003c32:	78a3      	ldrb	r3, [r4, #2]
10003c34:	f895 2128 	ldrb.w	r2, [r5, #296]	; 0x128
10003c38:	f885 3129 	strb.w	r3, [r5, #297]	; 0x129
10003c3c:	88a3      	ldrh	r3, [r4, #4]
10003c3e:	4640      	mov	r0, r8
10003c40:	f3c3 030a 	ubfx	r3, r3, #0, #11
10003c44:	f5a3 7300 	sub.w	r3, r3, #512	; 0x200
10003c48:	fab3 f383 	clz	r3, r3
10003c4c:	095b      	lsrs	r3, r3, #5
10003c4e:	f363 0241 	bfi	r2, r3, #1, #1
10003c52:	491a      	ldr	r1, [pc, #104]	; (10003cbc <vendord_open+0xf4>)
10003c54:	f885 2128 	strb.w	r2, [r5, #296]	; 0x128
10003c58:	f000 f9f6 	bl	10004048 <tu_edpt_stream_read_xfer>
10003c5c:	b318      	cbz	r0, 10003ca6 <vendord_open+0xde>
10003c5e:	793a      	ldrb	r2, [r7, #4]
10003c60:	3601      	adds	r6, #1
10003c62:	7821      	ldrb	r1, [r4, #0]
10003c64:	b2f3      	uxtb	r3, r6
10003c66:	429a      	cmp	r2, r3
10003c68:	440c      	add	r4, r1
10003c6a:	d8c7      	bhi.n	10003bfc <vendord_open+0x34>
10003c6c:	1be0      	subs	r0, r4, r7
10003c6e:	b280      	uxth	r0, r0
10003c70:	e8bd 8ff8 	ldmia.w	sp!, {r3, r4, r5, r6, r7, r8, r9, sl, fp, pc}
10003c74:	2000      	movs	r0, #0
10003c76:	e8bd 8ff8 	ldmia.w	sp!, {r3, r4, r5, r6, r7, r8, r9, sl, fp, pc}
10003c7a:	4650      	mov	r0, sl
10003c7c:	f000 fc50 	bl	10004520 <tu_fifo_clear>
10003c80:	78a3      	ldrb	r3, [r4, #2]
10003c82:	792a      	ldrb	r2, [r5, #4]
10003c84:	716b      	strb	r3, [r5, #5]
10003c86:	88a3      	ldrh	r3, [r4, #4]
10003c88:	490d      	ldr	r1, [pc, #52]	; (10003cc0 <vendord_open+0xf8>)
10003c8a:	f3c3 030a 	ubfx	r3, r3, #0, #11
10003c8e:	f5a3 7300 	sub.w	r3, r3, #512	; 0x200
10003c92:	fab3 f383 	clz	r3, r3
10003c96:	095b      	lsrs	r3, r3, #5
10003c98:	f363 0241 	bfi	r2, r3, #1, #1
10003c9c:	2000      	movs	r0, #0
10003c9e:	712a      	strb	r2, [r5, #4]
10003ca0:	f000 f998 	bl	10003fd4 <tu_edpt_stream_write_xfer>
10003ca4:	e7db      	b.n	10003c5e <vendord_open+0x96>
10003ca6:	f04f 23e0 	mov.w	r3, #3758153728	; 0xe000e000
10003caa:	f8d3 3df0 	ldr.w	r3, [r3, #3568]	; 0xdf0
10003cae:	07db      	lsls	r3, r3, #31
10003cb0:	d5e0      	bpl.n	10003c74 <vendord_open+0xac>
10003cb2:	be00      	bkpt	0x0000
10003cb4:	e7df      	b.n	10003c76 <vendord_open+0xae>
10003cb6:	bf00      	nop
10003cb8:	200017d0 	.word	0x200017d0
10003cbc:	200018f8 	.word	0x200018f8
10003cc0:	200017d4 	.word	0x200017d4

10003cc4 <vendord_xfer_cb>:
10003cc4:	b570      	push	{r4, r5, r6, lr}
10003cc6:	4c1c      	ldr	r4, [pc, #112]	; (10003d38 <vendord_xfer_cb+0x74>)
10003cc8:	4606      	mov	r6, r0
10003cca:	f894 c129 	ldrb.w	ip, [r4, #297]	; 0x129
10003cce:	461d      	mov	r5, r3
10003cd0:	458c      	cmp	ip, r1
10003cd2:	d117      	bne.n	10003d04 <vendord_xfer_cb+0x40>
10003cd4:	f8b4 3134 	ldrh.w	r3, [r4, #308]	; 0x134
10003cd8:	b963      	cbnz	r3, 10003cf4 <vendord_xfer_cb+0x30>
10003cda:	4b18      	ldr	r3, [pc, #96]	; (10003d3c <vendord_xfer_cb+0x78>)
10003cdc:	b123      	cbz	r3, 10003ce8 <vendord_xfer_cb+0x24>
10003cde:	2000      	movs	r0, #0
10003ce0:	4917      	ldr	r1, [pc, #92]	; (10003d40 <vendord_xfer_cb+0x7c>)
10003ce2:	b2aa      	uxth	r2, r5
10003ce4:	e000      	b.n	10003ce8 <vendord_xfer_cb+0x24>
10003ce6:	bf00      	nop
10003ce8:	4630      	mov	r0, r6
10003cea:	4916      	ldr	r1, [pc, #88]	; (10003d44 <vendord_xfer_cb+0x80>)
10003cec:	f000 f9ac 	bl	10004048 <tu_edpt_stream_read_xfer>
10003cf0:	2001      	movs	r0, #1
10003cf2:	bd70      	pop	{r4, r5, r6, pc}
10003cf4:	f8d4 112c 	ldr.w	r1, [r4, #300]	; 0x12c
10003cf8:	b2aa      	uxth	r2, r5
10003cfa:	f504 7098 	add.w	r0, r4, #304	; 0x130
10003cfe:	f000 fb61 	bl	100043c4 <tu_fifo_write_n>
10003d02:	e7ea      	b.n	10003cda <vendord_xfer_cb+0x16>
10003d04:	7963      	ldrb	r3, [r4, #5]
10003d06:	428b      	cmp	r3, r1
10003d08:	d001      	beq.n	10003d0e <vendord_xfer_cb+0x4a>
10003d0a:	2000      	movs	r0, #0
10003d0c:	bd70      	pop	{r4, r5, r6, pc}
10003d0e:	4b0e      	ldr	r3, [pc, #56]	; (10003d48 <vendord_xfer_cb+0x84>)
10003d10:	b11b      	cbz	r3, 10003d1a <vendord_xfer_cb+0x56>
10003d12:	2000      	movs	r0, #0
10003d14:	b2a9      	uxth	r1, r5
10003d16:	e000      	b.n	10003d1a <vendord_xfer_cb+0x56>
10003d18:	bf00      	nop
10003d1a:	4630      	mov	r0, r6
10003d1c:	490b      	ldr	r1, [pc, #44]	; (10003d4c <vendord_xfer_cb+0x88>)
10003d1e:	f000 f959 	bl	10003fd4 <tu_edpt_stream_write_xfer>
10003d22:	b108      	cbz	r0, 10003d28 <vendord_xfer_cb+0x64>
10003d24:	2001      	movs	r0, #1
10003d26:	bd70      	pop	{r4, r5, r6, pc}
10003d28:	462a      	mov	r2, r5
10003d2a:	4630      	mov	r0, r6
10003d2c:	4907      	ldr	r1, [pc, #28]	; (10003d4c <vendord_xfer_cb+0x88>)
10003d2e:	f000 f91d 	bl	10003f6c <tu_edpt_stream_write_zlp_if_needed>
10003d32:	2001      	movs	r0, #1
10003d34:	bd70      	pop	{r4, r5, r6, pc}
10003d36:	bf00      	nop
10003d38:	200017d0 	.word	0x200017d0
10003d3c:	00000000 	.word	0x00000000
10003d40:	20001750 	.word	0x20001750
10003d44:	200018f8 	.word	0x200018f8
10003d48:	00000000 	.word	0x00000000
10003d4c:	200017d4 	.word	0x200017d4

10003d50 <tusb_rhport_init>:
10003d50:	b510      	push	{r4, lr}
10003d52:	b082      	sub	sp, #8
10003d54:	b1a9      	cbz	r1, 10003d82 <tusb_rhport_init+0x32>
10003d56:	2801      	cmp	r0, #1
10003d58:	d808      	bhi.n	10003d6c <tusb_rhport_init+0x1c>
10003d5a:	780b      	ldrb	r3, [r1, #0]
10003d5c:	b133      	cbz	r3, 10003d6c <tusb_rhport_init+0x1c>
10003d5e:	4c18      	ldr	r4, [pc, #96]	; (10003dc0 <tusb_rhport_init+0x70>)
10003d60:	2b01      	cmp	r3, #1
10003d62:	5423      	strb	r3, [r4, r0]
10003d64:	d020      	beq.n	10003da8 <tusb_rhport_init+0x58>
10003d66:	2001      	movs	r0, #1
10003d68:	b002      	add	sp, #8
10003d6a:	bd10      	pop	{r4, pc}
10003d6c:	f04f 23e0 	mov.w	r3, #3758153728	; 0xe000e000
10003d70:	f8d3 3df0 	ldr.w	r3, [r3, #3568]	; 0xdf0
10003d74:	07da      	lsls	r2, r3, #31
10003d76:	d402      	bmi.n	10003d7e <tusb_rhport_init+0x2e>
10003d78:	2000      	movs	r0, #0
10003d7a:	b002      	add	sp, #8
10003d7c:	bd10      	pop	{r4, pc}
10003d7e:	be00      	bkpt	0x0000
10003d80:	e7fa      	b.n	10003d78 <tusb_rhport_init+0x28>
10003d82:	2401      	movs	r4, #1
10003d84:	4608      	mov	r0, r1
10003d86:	a901      	add	r1, sp, #4
10003d88:	f8ad 4004 	strh.w	r4, [sp, #4]
10003d8c:	f7fe fdb8 	bl	10002900 <tud_rhport_init>
10003d90:	b938      	cbnz	r0, 10003da2 <tusb_rhport_init+0x52>
10003d92:	f04f 23e0 	mov.w	r3, #3758153728	; 0xe000e000
10003d96:	f8d3 3df0 	ldr.w	r3, [r3, #3568]	; 0xdf0
10003d9a:	07d9      	lsls	r1, r3, #31
10003d9c:	d5ed      	bpl.n	10003d7a <tusb_rhport_init+0x2a>
10003d9e:	be00      	bkpt	0x0000
10003da0:	e7eb      	b.n	10003d7a <tusb_rhport_init+0x2a>
10003da2:	4b07      	ldr	r3, [pc, #28]	; (10003dc0 <tusb_rhport_init+0x70>)
10003da4:	701c      	strb	r4, [r3, #0]
10003da6:	e7e8      	b.n	10003d7a <tusb_rhport_init+0x2a>
10003da8:	f7fe fdaa 	bl	10002900 <tud_rhport_init>
10003dac:	2800      	cmp	r0, #0
10003dae:	d1da      	bne.n	10003d66 <tusb_rhport_init+0x16>
10003db0:	f04f 23e0 	mov.w	r3, #3758153728	; 0xe000e000
10003db4:	f8d3 3df0 	ldr.w	r3, [r3, #3568]	; 0xdf0
10003db8:	07db      	lsls	r3, r3, #31
10003dba:	d5dd      	bpl.n	10003d78 <tusb_rhport_init+0x28>
10003dbc:	e7ef      	b.n	10003d9e <tusb_rhport_init+0x4e>
10003dbe:	bf00      	nop
10003dc0:	20001628 	.word	0x20001628

10003dc4 <tu_edpt_claim>:
10003dc4:	b5f8      	push	{r3, r4, r5, r6, r7, lr}
10003dc6:	7803      	ldrb	r3, [r0, #0]
10003dc8:	f013 0401 	ands.w	r4, r3, #1
10003dcc:	d11a      	bne.n	10003e04 <tu_edpt_claim+0x40>
10003dce:	7803      	ldrb	r3, [r0, #0]
10003dd0:	4605      	mov	r5, r0
10003dd2:	075a      	lsls	r2, r3, #29
10003dd4:	f3c3 0780 	ubfx	r7, r3, #2, #1
10003dd8:	d501      	bpl.n	10003dde <tu_edpt_claim+0x1a>
10003dda:	4620      	mov	r0, r4
10003ddc:	bdf8      	pop	{r3, r4, r5, r6, r7, pc}
10003dde:	460e      	mov	r6, r1
10003de0:	f04f 31ff 	mov.w	r1, #4294967295	; 0xffffffff
10003de4:	4630      	mov	r0, r6
10003de6:	f003 ff93 	bl	10007d10 <__mutex_enter_timeout_ms_veneer>
10003dea:	782b      	ldrb	r3, [r5, #0]
10003dec:	f013 0401 	ands.w	r4, r3, #1
10003df0:	d10b      	bne.n	10003e0a <tu_edpt_claim+0x46>
10003df2:	782b      	ldrb	r3, [r5, #0]
10003df4:	075b      	lsls	r3, r3, #29
10003df6:	d409      	bmi.n	10003e0c <tu_edpt_claim+0x48>
10003df8:	782b      	ldrb	r3, [r5, #0]
10003dfa:	2401      	movs	r4, #1
10003dfc:	f043 0304 	orr.w	r3, r3, #4
10003e00:	702b      	strb	r3, [r5, #0]
10003e02:	e003      	b.n	10003e0c <tu_edpt_claim+0x48>
10003e04:	2400      	movs	r4, #0
10003e06:	4620      	mov	r0, r4
10003e08:	bdf8      	pop	{r3, r4, r5, r6, r7, pc}
10003e0a:	463c      	mov	r4, r7
10003e0c:	4630      	mov	r0, r6
10003e0e:	f003 ff67 	bl	10007ce0 <__mutex_exit_veneer>
10003e12:	4620      	mov	r0, r4
10003e14:	bdf8      	pop	{r3, r4, r5, r6, r7, pc}
10003e16:	bf00      	nop

10003e18 <tu_edpt_release>:
10003e18:	b570      	push	{r4, r5, r6, lr}
10003e1a:	460d      	mov	r5, r1
10003e1c:	4604      	mov	r4, r0
10003e1e:	f04f 31ff 	mov.w	r1, #4294967295	; 0xffffffff
10003e22:	4628      	mov	r0, r5
10003e24:	f003 ff74 	bl	10007d10 <__mutex_enter_timeout_ms_veneer>
10003e28:	7823      	ldrb	r3, [r4, #0]
10003e2a:	f3c3 0680 	ubfx	r6, r3, #2, #1
10003e2e:	075b      	lsls	r3, r3, #29
10003e30:	d508      	bpl.n	10003e44 <tu_edpt_release+0x2c>
10003e32:	7823      	ldrb	r3, [r4, #0]
10003e34:	f013 0201 	ands.w	r2, r3, #1
10003e38:	bf11      	iteee	ne
10003e3a:	2600      	movne	r6, #0
10003e3c:	7823      	ldrbeq	r3, [r4, #0]
10003e3e:	f362 0382 	bfieq	r3, r2, #2, #1
10003e42:	7023      	strbeq	r3, [r4, #0]
10003e44:	4628      	mov	r0, r5
10003e46:	f003 ff4b 	bl	10007ce0 <__mutex_exit_veneer>
10003e4a:	4630      	mov	r0, r6
10003e4c:	bd70      	pop	{r4, r5, r6, pc}
10003e4e:	bf00      	nop

10003e50 <tu_edpt_validate>:
10003e50:	78c3      	ldrb	r3, [r0, #3]
10003e52:	8882      	ldrh	r2, [r0, #4]
10003e54:	f003 0003 	and.w	r0, r3, #3
10003e58:	2802      	cmp	r0, #2
10003e5a:	f3c2 020a 	ubfx	r2, r2, #0, #11
10003e5e:	d005      	beq.n	10003e6c <tu_edpt_validate+0x1c>
10003e60:	2803      	cmp	r0, #3
10003e62:	d01b      	beq.n	10003e9c <tu_edpt_validate+0x4c>
10003e64:	2801      	cmp	r0, #1
10003e66:	d007      	beq.n	10003e78 <tu_edpt_validate+0x28>
10003e68:	2000      	movs	r0, #0
10003e6a:	4770      	bx	lr
10003e6c:	2902      	cmp	r1, #2
10003e6e:	d01e      	beq.n	10003eae <tu_edpt_validate+0x5e>
10003e70:	2a40      	cmp	r2, #64	; 0x40
10003e72:	d809      	bhi.n	10003e88 <tu_edpt_validate+0x38>
10003e74:	2001      	movs	r0, #1
10003e76:	4770      	bx	lr
10003e78:	2902      	cmp	r1, #2
10003e7a:	f240 33ff 	movw	r3, #1023	; 0x3ff
10003e7e:	bf08      	it	eq
10003e80:	f44f 6380 	moveq.w	r3, #1024	; 0x400
10003e84:	4293      	cmp	r3, r2
10003e86:	d2f6      	bcs.n	10003e76 <tu_edpt_validate+0x26>
10003e88:	f04f 23e0 	mov.w	r3, #3758153728	; 0xe000e000
10003e8c:	f8d3 0df0 	ldr.w	r0, [r3, #3568]	; 0xdf0
10003e90:	f010 0001 	ands.w	r0, r0, #1
10003e94:	d0ef      	beq.n	10003e76 <tu_edpt_validate+0x26>
10003e96:	be00      	bkpt	0x0000
10003e98:	2000      	movs	r0, #0
10003e9a:	4770      	bx	lr
10003e9c:	2902      	cmp	r1, #2
10003e9e:	bf0c      	ite	eq
10003ea0:	f44f 6380 	moveq.w	r3, #1024	; 0x400
10003ea4:	2340      	movne	r3, #64	; 0x40
10003ea6:	4293      	cmp	r3, r2
10003ea8:	d3ee      	bcc.n	10003e88 <tu_edpt_validate+0x38>
10003eaa:	2001      	movs	r0, #1
10003eac:	e7e3      	b.n	10003e76 <tu_edpt_validate+0x26>
10003eae:	f5b2 7f00 	cmp.w	r2, #512	; 0x200
10003eb2:	d0df      	beq.n	10003e74 <tu_edpt_validate+0x24>
10003eb4:	e7e8      	b.n	10003e88 <tu_edpt_validate+0x38>
10003eb6:	bf00      	nop

10003eb8 <tu_edpt_bind_driver>:
10003eb8:	440a      	add	r2, r1
10003eba:	4291      	cmp	r1, r2
10003ebc:	d226      	bcs.n	10003f0c <tu_edpt_bind_driver+0x54>
10003ebe:	f891 c001 	ldrb.w	ip, [r1, #1]
10003ec2:	f1bc 0f05 	cmp.w	ip, #5
10003ec6:	d005      	beq.n	10003ed4 <tu_edpt_bind_driver+0x1c>
10003ec8:	f891 c000 	ldrb.w	ip, [r1]
10003ecc:	4461      	add	r1, ip
10003ece:	428a      	cmp	r2, r1
10003ed0:	d8f5      	bhi.n	10003ebe <tu_edpt_bind_driver+0x6>
10003ed2:	4770      	bx	lr
10003ed4:	b500      	push	{lr}
10003ed6:	f891 c002 	ldrb.w	ip, [r1, #2]
10003eda:	f00c 0e7f 	and.w	lr, ip, #127	; 0x7f
10003ede:	eb00 0e4e 	add.w	lr, r0, lr, lsl #1
10003ee2:	ea4f 1cdc 	mov.w	ip, ip, lsr #7
10003ee6:	f80e 300c 	strb.w	r3, [lr, ip]
10003eea:	f891 c000 	ldrb.w	ip, [r1]
10003eee:	4461      	add	r1, ip
10003ef0:	428a      	cmp	r2, r1
10003ef2:	d909      	bls.n	10003f08 <tu_edpt_bind_driver+0x50>
10003ef4:	f891 c001 	ldrb.w	ip, [r1, #1]
10003ef8:	f1bc 0f05 	cmp.w	ip, #5
10003efc:	d0eb      	beq.n	10003ed6 <tu_edpt_bind_driver+0x1e>
10003efe:	f891 c000 	ldrb.w	ip, [r1]
10003f02:	4461      	add	r1, ip
10003f04:	428a      	cmp	r2, r1
10003f06:	d8f5      	bhi.n	10003ef4 <tu_edpt_bind_driver+0x3c>
10003f08:	f85d fb04 	ldr.w	pc, [sp], #4
10003f0c:	4770      	bx	lr
10003f0e:	bf00      	nop

10003f10 <tu_edpt_stream_init>:
10003f10:	e92d 41f0 	stmdb	sp!, {r4, r5, r6, r7, r8, lr}
10003f14:	468e      	mov	lr, r1
10003f16:	b082      	sub	sp, #8
10003f18:	9300      	str	r3, [sp, #0]
10003f1a:	f890 c000 	ldrb.w	ip, [r0]
10003f1e:	9e08      	ldr	r6, [sp, #32]
10003f20:	f8bd 7024 	ldrh.w	r7, [sp, #36]	; 0x24
10003f24:	f36e 0c00 	bfi	ip, lr, #0, #1
10003f28:	4604      	mov	r4, r0
10003f2a:	4615      	mov	r5, r2
10003f2c:	2301      	movs	r3, #1
10003f2e:	4631      	mov	r1, r6
10003f30:	463a      	mov	r2, r7
10003f32:	f800 cb08 	strb.w	ip, [r0], #8
10003f36:	f8bd 802c 	ldrh.w	r8, [sp, #44]	; 0x2c
10003f3a:	f000 f8ef 	bl	1000411c <tu_fifo_config>
10003f3e:	b106      	cbz	r6, 10003f42 <tu_edpt_stream_init+0x32>
10003f40:	b93f      	cbnz	r7, 10003f52 <tu_edpt_stream_init+0x42>
10003f42:	2001      	movs	r0, #1
10003f44:	9b0a      	ldr	r3, [sp, #40]	; 0x28
10003f46:	f8a4 8002 	strh.w	r8, [r4, #2]
10003f4a:	6063      	str	r3, [r4, #4]
10003f4c:	b002      	add	sp, #8
10003f4e:	e8bd 81f0 	ldmia.w	sp!, {r4, r5, r6, r7, r8, pc}
10003f52:	f104 061c 	add.w	r6, r4, #28
10003f56:	4630      	mov	r0, r6
10003f58:	f7fc ff8c 	bl	10000e74 <mutex_init>
10003f5c:	b10d      	cbz	r5, 10003f62 <tu_edpt_stream_init+0x52>
10003f5e:	4635      	mov	r5, r6
10003f60:	2600      	movs	r6, #0
10003f62:	e9c4 5605 	strd	r5, r6, [r4, #20]
10003f66:	e7ec      	b.n	10003f42 <tu_edpt_stream_init+0x32>

10003f68 <tu_edpt_stream_deinit>:
10003f68:	2001      	movs	r0, #1
10003f6a:	4770      	bx	lr

10003f6c <tu_edpt_stream_write_zlp_if_needed>:
10003f6c:	b5f8      	push	{r3, r4, r5, r6, r7, lr}
10003f6e:	4607      	mov	r7, r0
10003f70:	4608      	mov	r0, r1
10003f72:	f240 13ff 	movw	r3, #511	; 0x1ff
10003f76:	4615      	mov	r5, r2
10003f78:	f810 2b08 	ldrb.w	r2, [r0], #8
10003f7c:	460c      	mov	r4, r1
10003f7e:	f012 0f02 	tst.w	r2, #2
10003f82:	bf14      	ite	ne
10003f84:	461e      	movne	r6, r3
10003f86:	263f      	moveq	r6, #63	; 0x3f
10003f88:	f000 f8fa 	bl	10004180 <tu_fifo_count>
10003f8c:	b928      	cbnz	r0, 10003f9a <tu_edpt_stream_write_zlp_if_needed+0x2e>
10003f8e:	b125      	cbz	r5, 10003f9a <tu_edpt_stream_write_zlp_if_needed+0x2e>
10003f90:	4235      	tst	r5, r6
10003f92:	d102      	bne.n	10003f9a <tu_edpt_stream_write_zlp_if_needed+0x2e>
10003f94:	7823      	ldrb	r3, [r4, #0]
10003f96:	07da      	lsls	r2, r3, #31
10003f98:	d501      	bpl.n	10003f9e <tu_edpt_stream_write_zlp_if_needed+0x32>
10003f9a:	2000      	movs	r0, #0
10003f9c:	bdf8      	pop	{r3, r4, r5, r6, r7, pc}
10003f9e:	4638      	mov	r0, r7
10003fa0:	7861      	ldrb	r1, [r4, #1]
10003fa2:	f7ff f977 	bl	10003294 <usbd_edpt_claim>
10003fa6:	2800      	cmp	r0, #0
10003fa8:	d0f7      	beq.n	10003f9a <tu_edpt_stream_write_zlp_if_needed+0x2e>
10003faa:	7823      	ldrb	r3, [r4, #0]
10003fac:	f013 0301 	ands.w	r3, r3, #1
10003fb0:	d007      	beq.n	10003fc2 <tu_edpt_stream_write_zlp_if_needed+0x56>
10003fb2:	f04f 23e0 	mov.w	r3, #3758153728	; 0xe000e000
10003fb6:	f8d3 3df0 	ldr.w	r3, [r3, #3568]	; 0xdf0
10003fba:	07db      	lsls	r3, r3, #31
10003fbc:	d5ed      	bpl.n	10003f9a <tu_edpt_stream_write_zlp_if_needed+0x2e>
10003fbe:	be00      	bkpt	0x0000
10003fc0:	e7eb      	b.n	10003f9a <tu_edpt_stream_write_zlp_if_needed+0x2e>
10003fc2:	461a      	mov	r2, r3
10003fc4:	4638      	mov	r0, r7
10003fc6:	7861      	ldrb	r1, [r4, #1]
10003fc8:	f7ff f988 	bl	100032dc <usbd_edpt_xfer>
10003fcc:	2800      	cmp	r0, #0
10003fce:	d0f0      	beq.n	10003fb2 <tu_edpt_stream_write_zlp_if_needed+0x46>
10003fd0:	bdf8      	pop	{r3, r4, r5, r6, r7, pc}
10003fd2:	bf00      	nop

10003fd4 <tu_edpt_stream_write_xfer>:
10003fd4:	b570      	push	{r4, r5, r6, lr}
10003fd6:	f101 0508 	add.w	r5, r1, #8
10003fda:	4606      	mov	r6, r0
10003fdc:	4628      	mov	r0, r5
10003fde:	460c      	mov	r4, r1
10003fe0:	f000 f8ce 	bl	10004180 <tu_fifo_count>
10003fe4:	b110      	cbz	r0, 10003fec <tu_edpt_stream_write_xfer+0x18>
10003fe6:	7823      	ldrb	r3, [r4, #0]
10003fe8:	07d9      	lsls	r1, r3, #31
10003fea:	d501      	bpl.n	10003ff0 <tu_edpt_stream_write_xfer+0x1c>
10003fec:	2000      	movs	r0, #0
10003fee:	bd70      	pop	{r4, r5, r6, pc}
10003ff0:	4630      	mov	r0, r6
10003ff2:	7861      	ldrb	r1, [r4, #1]
10003ff4:	f7ff f94e 	bl	10003294 <usbd_edpt_claim>
10003ff8:	2800      	cmp	r0, #0
10003ffa:	d0f7      	beq.n	10003fec <tu_edpt_stream_write_xfer+0x18>
10003ffc:	4628      	mov	r0, r5
10003ffe:	8862      	ldrh	r2, [r4, #2]
10004000:	6861      	ldr	r1, [r4, #4]
10004002:	f000 f933 	bl	1000426c <tu_fifo_read_n>
10004006:	7823      	ldrb	r3, [r4, #0]
10004008:	4605      	mov	r5, r0
1000400a:	b148      	cbz	r0, 10004020 <tu_edpt_stream_write_xfer+0x4c>
1000400c:	07da      	lsls	r2, r3, #31
1000400e:	d510      	bpl.n	10004032 <tu_edpt_stream_write_xfer+0x5e>
10004010:	f04f 23e0 	mov.w	r3, #3758153728	; 0xe000e000
10004014:	f8d3 3df0 	ldr.w	r3, [r3, #3568]	; 0xdf0
10004018:	07db      	lsls	r3, r3, #31
1000401a:	d5e7      	bpl.n	10003fec <tu_edpt_stream_write_xfer+0x18>
1000401c:	be00      	bkpt	0x0000
1000401e:	e7e5      	b.n	10003fec <tu_edpt_stream_write_xfer+0x18>
10004020:	f013 0501 	ands.w	r5, r3, #1
10004024:	d1e2      	bne.n	10003fec <tu_edpt_stream_write_xfer+0x18>
10004026:	4630      	mov	r0, r6
10004028:	7861      	ldrb	r1, [r4, #1]
1000402a:	f7ff f945 	bl	100032b8 <usbd_edpt_release>
1000402e:	4628      	mov	r0, r5
10004030:	bd70      	pop	{r4, r5, r6, pc}
10004032:	4603      	mov	r3, r0
10004034:	6862      	ldr	r2, [r4, #4]
10004036:	4630      	mov	r0, r6
10004038:	7861      	ldrb	r1, [r4, #1]
1000403a:	f7ff f94f 	bl	100032dc <usbd_edpt_xfer>
1000403e:	2800      	cmp	r0, #0
10004040:	d0e6      	beq.n	10004010 <tu_edpt_stream_write_xfer+0x3c>
10004042:	4628      	mov	r0, r5
10004044:	e7f4      	b.n	10004030 <tu_edpt_stream_write_xfer+0x5c>
10004046:	bf00      	nop

10004048 <tu_edpt_stream_read_xfer>:
10004048:	898b      	ldrh	r3, [r1, #12]
1000404a:	e92d 41f0 	stmdb	sp!, {r4, r5, r6, r7, r8, lr}
1000404e:	460c      	mov	r4, r1
10004050:	4605      	mov	r5, r0
10004052:	b92b      	cbnz	r3, 10004060 <tu_edpt_stream_read_xfer+0x18>
10004054:	780b      	ldrb	r3, [r1, #0]
10004056:	07de      	lsls	r6, r3, #31
10004058:	d53d      	bpl.n	100040d6 <tu_edpt_stream_read_xfer+0x8e>
1000405a:	2000      	movs	r0, #0
1000405c:	e8bd 81f0 	ldmia.w	sp!, {r4, r5, r6, r7, r8, pc}
10004060:	460e      	mov	r6, r1
10004062:	f816 3b08 	ldrb.w	r3, [r6], #8
10004066:	4a2c      	ldr	r2, [pc, #176]	; (10004118 <tu_edpt_stream_read_xfer+0xd0>)
10004068:	f003 0302 	and.w	r3, r3, #2
1000406c:	2b00      	cmp	r3, #0
1000406e:	4630      	mov	r0, r6
10004070:	bf15      	itete	ne
10004072:	4690      	movne	r8, r2
10004074:	f06f 083f 	mvneq.w	r8, #63	; 0x3f
10004078:	f44f 7700 	movne.w	r7, #512	; 0x200
1000407c:	2740      	moveq	r7, #64	; 0x40
1000407e:	f000 f899 	bl	100041b4 <tu_fifo_remaining>
10004082:	4287      	cmp	r7, r0
10004084:	d8e9      	bhi.n	1000405a <tu_edpt_stream_read_xfer+0x12>
10004086:	7823      	ldrb	r3, [r4, #0]
10004088:	07d9      	lsls	r1, r3, #31
1000408a:	d4e6      	bmi.n	1000405a <tu_edpt_stream_read_xfer+0x12>
1000408c:	4628      	mov	r0, r5
1000408e:	7861      	ldrb	r1, [r4, #1]
10004090:	f7ff f900 	bl	10003294 <usbd_edpt_claim>
10004094:	2800      	cmp	r0, #0
10004096:	d0e0      	beq.n	1000405a <tu_edpt_stream_read_xfer+0x12>
10004098:	4630      	mov	r0, r6
1000409a:	f000 f88b 	bl	100041b4 <tu_fifo_remaining>
1000409e:	4287      	cmp	r7, r0
100040a0:	7823      	ldrb	r3, [r4, #0]
100040a2:	d82b      	bhi.n	100040fc <tu_edpt_stream_read_xfer+0xb4>
100040a4:	07da      	lsls	r2, r3, #31
100040a6:	d40e      	bmi.n	100040c6 <tu_edpt_stream_read_xfer+0x7e>
100040a8:	8866      	ldrh	r6, [r4, #2]
100040aa:	ea08 0200 	and.w	r2, r8, r0
100040ae:	b290      	uxth	r0, r2
100040b0:	4286      	cmp	r6, r0
100040b2:	bf28      	it	cs
100040b4:	4606      	movcs	r6, r0
100040b6:	7861      	ldrb	r1, [r4, #1]
100040b8:	b35e      	cbz	r6, 10004112 <tu_edpt_stream_read_xfer+0xca>
100040ba:	6862      	ldr	r2, [r4, #4]
100040bc:	4633      	mov	r3, r6
100040be:	4628      	mov	r0, r5
100040c0:	f7ff f90c 	bl	100032dc <usbd_edpt_xfer>
100040c4:	bb08      	cbnz	r0, 1000410a <tu_edpt_stream_read_xfer+0xc2>
100040c6:	f04f 23e0 	mov.w	r3, #3758153728	; 0xe000e000
100040ca:	f8d3 3df0 	ldr.w	r3, [r3, #3568]	; 0xdf0
100040ce:	07db      	lsls	r3, r3, #31
100040d0:	d5c3      	bpl.n	1000405a <tu_edpt_stream_read_xfer+0x12>
100040d2:	be00      	bkpt	0x0000
100040d4:	e7c1      	b.n	1000405a <tu_edpt_stream_read_xfer+0x12>
100040d6:	7849      	ldrb	r1, [r1, #1]
100040d8:	f7ff f8dc 	bl	10003294 <usbd_edpt_claim>
100040dc:	2800      	cmp	r0, #0
100040de:	d0bc      	beq.n	1000405a <tu_edpt_stream_read_xfer+0x12>
100040e0:	7823      	ldrb	r3, [r4, #0]
100040e2:	07d8      	lsls	r0, r3, #31
100040e4:	d4ef      	bmi.n	100040c6 <tu_edpt_stream_read_xfer+0x7e>
100040e6:	8863      	ldrh	r3, [r4, #2]
100040e8:	7861      	ldrb	r1, [r4, #1]
100040ea:	b183      	cbz	r3, 1000410e <tu_edpt_stream_read_xfer+0xc6>
100040ec:	6862      	ldr	r2, [r4, #4]
100040ee:	4628      	mov	r0, r5
100040f0:	f7ff f8f4 	bl	100032dc <usbd_edpt_xfer>
100040f4:	2800      	cmp	r0, #0
100040f6:	d0e6      	beq.n	100040c6 <tu_edpt_stream_read_xfer+0x7e>
100040f8:	8860      	ldrh	r0, [r4, #2]
100040fa:	e7af      	b.n	1000405c <tu_edpt_stream_read_xfer+0x14>
100040fc:	f013 0601 	ands.w	r6, r3, #1
10004100:	d1ab      	bne.n	1000405a <tu_edpt_stream_read_xfer+0x12>
10004102:	4628      	mov	r0, r5
10004104:	7861      	ldrb	r1, [r4, #1]
10004106:	f7ff f8d7 	bl	100032b8 <usbd_edpt_release>
1000410a:	4630      	mov	r0, r6
1000410c:	e7a6      	b.n	1000405c <tu_edpt_stream_read_xfer+0x14>
1000410e:	461a      	mov	r2, r3
10004110:	e7ed      	b.n	100040ee <tu_edpt_stream_read_xfer+0xa6>
10004112:	4632      	mov	r2, r6
10004114:	e7d2      	b.n	100040bc <tu_edpt_stream_read_xfer+0x74>
10004116:	bf00      	nop
10004118:	fffffe00 	.word	0xfffffe00

1000411c <tu_fifo_config>:
1000411c:	e92d 41f0 	stmdb	sp!, {r4, r5, r6, r7, r8, lr}
10004120:	f5b2 4f00 	cmp.w	r2, #32768	; 0x8000
10004124:	f89d 8018 	ldrb.w	r8, [sp, #24]
10004128:	d827      	bhi.n	1000417a <tu_fifo_config+0x5e>
1000412a:	4604      	mov	r4, r0
1000412c:	68c0      	ldr	r0, [r0, #12]
1000412e:	4617      	mov	r7, r2
10004130:	460e      	mov	r6, r1
10004132:	461d      	mov	r5, r3
10004134:	b118      	cbz	r0, 1000413e <tu_fifo_config+0x22>
10004136:	f04f 31ff 	mov.w	r1, #4294967295	; 0xffffffff
1000413a:	f003 fde9 	bl	10007d10 <__mutex_enter_timeout_ms_veneer>
1000413e:	6920      	ldr	r0, [r4, #16]
10004140:	b118      	cbz	r0, 1000414a <tu_fifo_config+0x2e>
10004142:	f04f 31ff 	mov.w	r1, #4294967295	; 0xffffffff
10004146:	f003 fde3 	bl	10007d10 <__mutex_enter_timeout_ms_veneer>
1000414a:	2200      	movs	r2, #0
1000414c:	f3c5 030e 	ubfx	r3, r5, #0, #15
10004150:	68e0      	ldr	r0, [r4, #12]
10004152:	ea43 33c8 	orr.w	r3, r3, r8, lsl #15
10004156:	8162      	strh	r2, [r4, #10]
10004158:	6026      	str	r6, [r4, #0]
1000415a:	80a7      	strh	r7, [r4, #4]
1000415c:	80e3      	strh	r3, [r4, #6]
1000415e:	8122      	strh	r2, [r4, #8]
10004160:	b108      	cbz	r0, 10004166 <tu_fifo_config+0x4a>
10004162:	f003 fdbd 	bl	10007ce0 <__mutex_exit_veneer>
10004166:	6920      	ldr	r0, [r4, #16]
10004168:	b120      	cbz	r0, 10004174 <tu_fifo_config+0x58>
1000416a:	f003 fdb9 	bl	10007ce0 <__mutex_exit_veneer>
1000416e:	2001      	movs	r0, #1
10004170:	e8bd 81f0 	ldmia.w	sp!, {r4, r5, r6, r7, r8, pc}
10004174:	2001      	movs	r0, #1
10004176:	e8bd 81f0 	ldmia.w	sp!, {r4, r5, r6, r7, r8, pc}
1000417a:	2000      	movs	r0, #0
1000417c:	e8bd 81f0 	ldmia.w	sp!, {r4, r5, r6, r7, r8, pc}

10004180 <tu_fifo_count>:
10004180:	8903      	ldrh	r3, [r0, #8]
10004182:	8942      	ldrh	r2, [r0, #10]
10004184:	b29b      	uxth	r3, r3
10004186:	b292      	uxth	r2, r2
10004188:	8880      	ldrh	r0, [r0, #4]
1000418a:	4293      	cmp	r3, r2
1000418c:	bf36      	itet	cc
1000418e:	ebc2 0240 	rsbcc	r2, r2, r0, lsl #1
10004192:	1a9b      	subcs	r3, r3, r2
10004194:	189b      	addcc	r3, r3, r2
10004196:	b29b      	uxth	r3, r3
10004198:	4298      	cmp	r0, r3
1000419a:	bf28      	it	cs
1000419c:	4618      	movcs	r0, r3
1000419e:	4770      	bx	lr

100041a0 <tu_fifo_empty>:
100041a0:	8902      	ldrh	r2, [r0, #8]
100041a2:	8943      	ldrh	r3, [r0, #10]
100041a4:	b290      	uxth	r0, r2
100041a6:	b29b      	uxth	r3, r3
100041a8:	1ac0      	subs	r0, r0, r3
100041aa:	fab0 f080 	clz	r0, r0
100041ae:	0940      	lsrs	r0, r0, #5
100041b0:	4770      	bx	lr
100041b2:	bf00      	nop

100041b4 <tu_fifo_remaining>:
100041b4:	8903      	ldrh	r3, [r0, #8]
100041b6:	8942      	ldrh	r2, [r0, #10]
100041b8:	b29b      	uxth	r3, r3
100041ba:	8880      	ldrh	r0, [r0, #4]
100041bc:	b292      	uxth	r2, r2
100041be:	4293      	cmp	r3, r2
100041c0:	bf36      	itet	cc
100041c2:	ebc2 0240 	rsbcc	r2, r2, r0, lsl #1
100041c6:	1a9b      	subcs	r3, r3, r2
100041c8:	189b      	addcc	r3, r3, r2
100041ca:	b29b      	uxth	r3, r3
100041cc:	4298      	cmp	r0, r3
100041ce:	bf86      	itte	hi
100041d0:	1ac0      	subhi	r0, r0, r3
100041d2:	b280      	uxthhi	r0, r0
100041d4:	2000      	movls	r0, #0
100041d6:	4770      	bx	lr

100041d8 <tu_fifo_read>:
100041d8:	b538      	push	{r3, r4, r5, lr}
100041da:	4604      	mov	r4, r0
100041dc:	6900      	ldr	r0, [r0, #16]
100041de:	460d      	mov	r5, r1
100041e0:	b118      	cbz	r0, 100041ea <tu_fifo_read+0x12>
100041e2:	f04f 31ff 	mov.w	r1, #4294967295	; 0xffffffff
100041e6:	f003 fd93 	bl	10007d10 <__mutex_enter_timeout_ms_veneer>
100041ea:	8921      	ldrh	r1, [r4, #8]
100041ec:	8963      	ldrh	r3, [r4, #10]
100041ee:	b289      	uxth	r1, r1
100041f0:	b29b      	uxth	r3, r3
100041f2:	88a2      	ldrh	r2, [r4, #4]
100041f4:	4299      	cmp	r1, r3
100041f6:	bf36      	itet	cc
100041f8:	ebc3 0042 	rsbcc	r0, r3, r2, lsl #1
100041fc:	1ac8      	subcs	r0, r1, r3
100041fe:	1840      	addcc	r0, r0, r1
10004200:	b280      	uxth	r0, r0
10004202:	b350      	cbz	r0, 1000425a <tu_fifo_read+0x82>
10004204:	4282      	cmp	r2, r0
10004206:	d209      	bcs.n	1000421c <tu_fifo_read+0x44>
10004208:	4291      	cmp	r1, r2
1000420a:	bf2c      	ite	cs
1000420c:	1a89      	subcs	r1, r1, r2
1000420e:	1889      	addcc	r1, r1, r2
10004210:	b28b      	uxth	r3, r1
10004212:	429a      	cmp	r2, r3
10004214:	8163      	strh	r3, [r4, #10]
10004216:	d803      	bhi.n	10004220 <tu_fifo_read+0x48>
10004218:	1a9b      	subs	r3, r3, r2
1000421a:	b29b      	uxth	r3, r3
1000421c:	429a      	cmp	r2, r3
1000421e:	d9fb      	bls.n	10004218 <tu_fifo_read+0x40>
10004220:	88e2      	ldrh	r2, [r4, #6]
10004222:	6821      	ldr	r1, [r4, #0]
10004224:	f3c2 020e 	ubfx	r2, r2, #0, #15
10004228:	fb02 1103 	mla	r1, r2, r3, r1
1000422c:	4628      	mov	r0, r5
1000422e:	f003 fc5d 	bl	10007aec <memcpy>
10004232:	8961      	ldrh	r1, [r4, #10]
10004234:	2501      	movs	r5, #1
10004236:	b289      	uxth	r1, r1
10004238:	1c4b      	adds	r3, r1, #1
1000423a:	b29b      	uxth	r3, r3
1000423c:	4299      	cmp	r1, r3
1000423e:	88a2      	ldrh	r2, [r4, #4]
10004240:	d90e      	bls.n	10004260 <tu_fifo_read+0x88>
10004242:	2300      	movs	r3, #0
10004244:	fa02 f105 	lsl.w	r1, r2, r5
10004248:	1a5b      	subs	r3, r3, r1
1000424a:	b29b      	uxth	r3, r3
1000424c:	6920      	ldr	r0, [r4, #16]
1000424e:	8163      	strh	r3, [r4, #10]
10004250:	b108      	cbz	r0, 10004256 <tu_fifo_read+0x7e>
10004252:	f003 fd45 	bl	10007ce0 <__mutex_exit_veneer>
10004256:	4628      	mov	r0, r5
10004258:	bd38      	pop	{r3, r4, r5, pc}
1000425a:	4605      	mov	r5, r0
1000425c:	8963      	ldrh	r3, [r4, #10]
1000425e:	b29b      	uxth	r3, r3
10004260:	ebb3 0f42 	cmp.w	r3, r2, lsl #1
10004264:	ea4f 0142 	mov.w	r1, r2, lsl #1
10004268:	dbf0      	blt.n	1000424c <tu_fifo_read+0x74>
1000426a:	e7ed      	b.n	10004248 <tu_fifo_read+0x70>

1000426c <tu_fifo_read_n>:
1000426c:	e92d 47f0 	stmdb	sp!, {r4, r5, r6, r7, r8, r9, sl, lr}
10004270:	4606      	mov	r6, r0
10004272:	6900      	ldr	r0, [r0, #16]
10004274:	4688      	mov	r8, r1
10004276:	4691      	mov	r9, r2
10004278:	b118      	cbz	r0, 10004282 <tu_fifo_read_n+0x16>
1000427a:	f04f 31ff 	mov.w	r1, #4294967295	; 0xffffffff
1000427e:	f003 fd47 	bl	10007d10 <__mutex_enter_timeout_ms_veneer>
10004282:	8933      	ldrh	r3, [r6, #8]
10004284:	8974      	ldrh	r4, [r6, #10]
10004286:	b29b      	uxth	r3, r3
10004288:	b2a4      	uxth	r4, r4
1000428a:	88b5      	ldrh	r5, [r6, #4]
1000428c:	42a3      	cmp	r3, r4
1000428e:	bf36      	itet	cc
10004290:	ebc4 0745 	rsbcc	r7, r4, r5, lsl #1
10004294:	1b1f      	subcs	r7, r3, r4
10004296:	18ff      	addcc	r7, r7, r3
10004298:	b2bf      	uxth	r7, r7
1000429a:	2f00      	cmp	r7, #0
1000429c:	d048      	beq.n	10004330 <tu_fifo_read_n+0xc4>
1000429e:	42bd      	cmp	r5, r7
100042a0:	d33e      	bcc.n	10004320 <tu_fifo_read_n+0xb4>
100042a2:	454f      	cmp	r7, r9
100042a4:	bf28      	it	cs
100042a6:	464f      	movcs	r7, r9
100042a8:	42a5      	cmp	r5, r4
100042aa:	b2bf      	uxth	r7, r7
100042ac:	d803      	bhi.n	100042b6 <tu_fifo_read_n+0x4a>
100042ae:	1b64      	subs	r4, r4, r5
100042b0:	b2a4      	uxth	r4, r4
100042b2:	42a5      	cmp	r5, r4
100042b4:	d9fb      	bls.n	100042ae <tu_fifo_read_n+0x42>
100042b6:	88f2      	ldrh	r2, [r6, #6]
100042b8:	1b2b      	subs	r3, r5, r4
100042ba:	6831      	ldr	r1, [r6, #0]
100042bc:	b29b      	uxth	r3, r3
100042be:	f3c2 0c0e 	ubfx	ip, r2, #0, #15
100042c2:	429f      	cmp	r7, r3
100042c4:	46e2      	mov	sl, ip
100042c6:	fb0c 1104 	mla	r1, ip, r4, r1
100042ca:	d923      	bls.n	10004314 <tu_fifo_read_n+0xa8>
100042cc:	fb13 f30c 	smulbb	r3, r3, ip
100042d0:	fa1f f983 	uxth.w	r9, r3
100042d4:	464a      	mov	r2, r9
100042d6:	4640      	mov	r0, r8
100042d8:	f003 fc08 	bl	10007aec <memcpy>
100042dc:	1b7a      	subs	r2, r7, r5
100042de:	4422      	add	r2, r4
100042e0:	fb12 f20a 	smulbb	r2, r2, sl
100042e4:	6831      	ldr	r1, [r6, #0]
100042e6:	eb08 0009 	add.w	r0, r8, r9
100042ea:	b292      	uxth	r2, r2
100042ec:	f003 fbfe 	bl	10007aec <memcpy>
100042f0:	8972      	ldrh	r2, [r6, #10]
100042f2:	88b5      	ldrh	r5, [r6, #4]
100042f4:	b292      	uxth	r2, r2
100042f6:	19d3      	adds	r3, r2, r7
100042f8:	b29b      	uxth	r3, r3
100042fa:	429a      	cmp	r2, r3
100042fc:	d91a      	bls.n	10004334 <tu_fifo_read_n+0xc8>
100042fe:	006a      	lsls	r2, r5, #1
10004300:	1a9b      	subs	r3, r3, r2
10004302:	b29b      	uxth	r3, r3
10004304:	6930      	ldr	r0, [r6, #16]
10004306:	8173      	strh	r3, [r6, #10]
10004308:	b108      	cbz	r0, 1000430e <tu_fifo_read_n+0xa2>
1000430a:	f003 fce9 	bl	10007ce0 <__mutex_exit_veneer>
1000430e:	4638      	mov	r0, r7
10004310:	e8bd 87f0 	ldmia.w	sp!, {r4, r5, r6, r7, r8, r9, sl, pc}
10004314:	4640      	mov	r0, r8
10004316:	fb0c f207 	mul.w	r2, ip, r7
1000431a:	f003 fbe7 	bl	10007aec <memcpy>
1000431e:	e7e7      	b.n	100042f0 <tu_fifo_read_n+0x84>
10004320:	42ab      	cmp	r3, r5
10004322:	bf2c      	ite	cs
10004324:	1b5b      	subcs	r3, r3, r5
10004326:	195b      	addcc	r3, r3, r5
10004328:	b29c      	uxth	r4, r3
1000432a:	462f      	mov	r7, r5
1000432c:	8174      	strh	r4, [r6, #10]
1000432e:	e7b8      	b.n	100042a2 <tu_fifo_read_n+0x36>
10004330:	8973      	ldrh	r3, [r6, #10]
10004332:	b29b      	uxth	r3, r3
10004334:	ebb3 0f45 	cmp.w	r3, r5, lsl #1
10004338:	ea4f 0245 	mov.w	r2, r5, lsl #1
1000433c:	dbe2      	blt.n	10004304 <tu_fifo_read_n+0x98>
1000433e:	e7df      	b.n	10004300 <tu_fifo_read_n+0x94>

10004340 <tu_fifo_write>:
10004340:	b5f8      	push	{r3, r4, r5, r6, r7, lr}
10004342:	4604      	mov	r4, r0
10004344:	68c0      	ldr	r0, [r0, #12]
10004346:	460e      	mov	r6, r1
10004348:	b118      	cbz	r0, 10004352 <tu_fifo_write+0x12>
1000434a:	f04f 31ff 	mov.w	r1, #4294967295	; 0xffffffff
1000434e:	f003 fcdf 	bl	10007d10 <__mutex_enter_timeout_ms_veneer>
10004352:	8925      	ldrh	r5, [r4, #8]
10004354:	8923      	ldrh	r3, [r4, #8]
10004356:	8961      	ldrh	r1, [r4, #10]
10004358:	b29b      	uxth	r3, r3
1000435a:	b289      	uxth	r1, r1
1000435c:	88a2      	ldrh	r2, [r4, #4]
1000435e:	428b      	cmp	r3, r1
10004360:	bf36      	itet	cc
10004362:	ebc1 0142 	rsbcc	r1, r1, r2, lsl #1
10004366:	1a5b      	subcs	r3, r3, r1
10004368:	185b      	addcc	r3, r3, r1
1000436a:	b29b      	uxth	r3, r3
1000436c:	429a      	cmp	r2, r3
1000436e:	b2ad      	uxth	r5, r5
10004370:	d808      	bhi.n	10004384 <tu_fifo_write+0x44>
10004372:	79e7      	ldrb	r7, [r4, #7]
10004374:	09ff      	lsrs	r7, r7, #7
10004376:	d105      	bne.n	10004384 <tu_fifo_write+0x44>
10004378:	68e0      	ldr	r0, [r4, #12]
1000437a:	b108      	cbz	r0, 10004380 <tu_fifo_write+0x40>
1000437c:	f003 fcb0 	bl	10007ce0 <__mutex_exit_veneer>
10004380:	4638      	mov	r0, r7
10004382:	bdf8      	pop	{r3, r4, r5, r6, r7, pc}
10004384:	4295      	cmp	r5, r2
10004386:	462b      	mov	r3, r5
10004388:	d303      	bcc.n	10004392 <tu_fifo_write+0x52>
1000438a:	1a9b      	subs	r3, r3, r2
1000438c:	b29b      	uxth	r3, r3
1000438e:	4293      	cmp	r3, r2
10004390:	d2fb      	bcs.n	1000438a <tu_fifo_write+0x4a>
10004392:	88e2      	ldrh	r2, [r4, #6]
10004394:	6820      	ldr	r0, [r4, #0]
10004396:	f3c2 020e 	ubfx	r2, r2, #0, #15
1000439a:	fb02 0003 	mla	r0, r2, r3, r0
1000439e:	4631      	mov	r1, r6
100043a0:	f003 fba4 	bl	10007aec <memcpy>
100043a4:	1c6b      	adds	r3, r5, #1
100043a6:	88a2      	ldrh	r2, [r4, #4]
100043a8:	b29b      	uxth	r3, r3
100043aa:	429d      	cmp	r5, r3
100043ac:	ea4f 0142 	mov.w	r1, r2, lsl #1
100043b0:	d904      	bls.n	100043bc <tu_fifo_write+0x7c>
100043b2:	1a5b      	subs	r3, r3, r1
100043b4:	b29b      	uxth	r3, r3
100043b6:	2701      	movs	r7, #1
100043b8:	8123      	strh	r3, [r4, #8]
100043ba:	e7dd      	b.n	10004378 <tu_fifo_write+0x38>
100043bc:	ebb3 0f42 	cmp.w	r3, r2, lsl #1
100043c0:	dbf9      	blt.n	100043b6 <tu_fifo_write+0x76>
100043c2:	e7f6      	b.n	100043b2 <tu_fifo_write+0x72>

100043c4 <tu_fifo_write_n>:
100043c4:	e92d 4ff0 	stmdb	sp!, {r4, r5, r6, r7, r8, r9, sl, fp, lr}
100043c8:	4614      	mov	r4, r2
100043ca:	b083      	sub	sp, #12
100043cc:	2a00      	cmp	r2, #0
100043ce:	d05c      	beq.n	1000448a <tu_fifo_write_n+0xc6>
100043d0:	4605      	mov	r5, r0
100043d2:	68c0      	ldr	r0, [r0, #12]
100043d4:	468b      	mov	fp, r1
100043d6:	b118      	cbz	r0, 100043e0 <tu_fifo_write_n+0x1c>
100043d8:	f04f 31ff 	mov.w	r1, #4294967295	; 0xffffffff
100043dc:	f003 fc98 	bl	10007d10 <__mutex_enter_timeout_ms_veneer>
100043e0:	79ea      	ldrb	r2, [r5, #7]
100043e2:	892f      	ldrh	r7, [r5, #8]
100043e4:	896b      	ldrh	r3, [r5, #10]
100043e6:	09d2      	lsrs	r2, r2, #7
100043e8:	b2bf      	uxth	r7, r7
100043ea:	b29b      	uxth	r3, r3
100043ec:	d13b      	bne.n	10004466 <tu_fifo_write_n+0xa2>
100043ee:	88ae      	ldrh	r6, [r5, #4]
100043f0:	429f      	cmp	r7, r3
100043f2:	bf36      	itet	cc
100043f4:	ebc3 0346 	rsbcc	r3, r3, r6, lsl #1
100043f8:	1afb      	subcs	r3, r7, r3
100043fa:	19db      	addcc	r3, r3, r7
100043fc:	b29b      	uxth	r3, r3
100043fe:	429e      	cmp	r6, r3
10004400:	d948      	bls.n	10004494 <tu_fifo_write_n+0xd0>
10004402:	eba6 0803 	sub.w	r8, r6, r3
10004406:	fa1f f888 	uxth.w	r8, r8
1000440a:	45a0      	cmp	r8, r4
1000440c:	bf28      	it	cs
1000440e:	46a0      	movcs	r8, r4
10004410:	f8b5 a006 	ldrh.w	sl, [r5, #6]
10004414:	eb08 0907 	add.w	r9, r8, r7
10004418:	fa1f f989 	uxth.w	r9, r9
1000441c:	42be      	cmp	r6, r7
1000441e:	463c      	mov	r4, r7
10004420:	d803      	bhi.n	1000442a <tu_fifo_write_n+0x66>
10004422:	1ba4      	subs	r4, r4, r6
10004424:	b2a4      	uxth	r4, r4
10004426:	42b4      	cmp	r4, r6
10004428:	d2fb      	bcs.n	10004422 <tu_fifo_write_n+0x5e>
1000442a:	1b33      	subs	r3, r6, r4
1000442c:	6828      	ldr	r0, [r5, #0]
1000442e:	b29b      	uxth	r3, r3
10004430:	f3ca 020e 	ubfx	r2, sl, #0, #15
10004434:	4543      	cmp	r3, r8
10004436:	4692      	mov	sl, r2
10004438:	fb02 0004 	mla	r0, r2, r4, r0
1000443c:	d355      	bcc.n	100044ea <tu_fifo_write_n+0x126>
1000443e:	4659      	mov	r1, fp
10004440:	fb02 f208 	mul.w	r2, r2, r8
10004444:	f003 fb52 	bl	10007aec <memcpy>
10004448:	88aa      	ldrh	r2, [r5, #4]
1000444a:	45b9      	cmp	r9, r7
1000444c:	ea4f 0342 	mov.w	r3, r2, lsl #1
10004450:	d302      	bcc.n	10004458 <tu_fifo_write_n+0x94>
10004452:	ebb9 0f42 	cmp.w	r9, r2, lsl #1
10004456:	db03      	blt.n	10004460 <tu_fifo_write_n+0x9c>
10004458:	eba9 0903 	sub.w	r9, r9, r3
1000445c:	fa1f f989 	uxth.w	r9, r9
10004460:	f8a5 9008 	strh.w	r9, [r5, #8]
10004464:	e018      	b.n	10004498 <tu_fifo_write_n+0xd4>
10004466:	f8b5 8004 	ldrh.w	r8, [r5, #4]
1000446a:	4544      	cmp	r4, r8
1000446c:	d31d      	bcc.n	100044aa <tu_fifo_write_n+0xe6>
1000446e:	f8b5 a006 	ldrh.w	sl, [r5, #6]
10004472:	eba4 0408 	sub.w	r4, r4, r8
10004476:	f3ca 020e 	ubfx	r2, sl, #0, #15
1000447a:	fb02 bb04 	mla	fp, r2, r4, fp
1000447e:	f1b8 0f00 	cmp.w	r8, #0
10004482:	d009      	beq.n	10004498 <tu_fifo_write_n+0xd4>
10004484:	461f      	mov	r7, r3
10004486:	4646      	mov	r6, r8
10004488:	e7c4      	b.n	10004414 <tu_fifo_write_n+0x50>
1000448a:	4690      	mov	r8, r2
1000448c:	4640      	mov	r0, r8
1000448e:	b003      	add	sp, #12
10004490:	e8bd 8ff0 	ldmia.w	sp!, {r4, r5, r6, r7, r8, r9, sl, fp, pc}
10004494:	f04f 0800 	mov.w	r8, #0
10004498:	68e8      	ldr	r0, [r5, #12]
1000449a:	2800      	cmp	r0, #0
1000449c:	d0f6      	beq.n	1000448c <tu_fifo_write_n+0xc8>
1000449e:	f003 fc1f 	bl	10007ce0 <__mutex_exit_veneer>
100044a2:	4640      	mov	r0, r8
100044a4:	b003      	add	sp, #12
100044a6:	e8bd 8ff0 	ldmia.w	sp!, {r4, r5, r6, r7, r8, r9, sl, fp, pc}
100044aa:	429f      	cmp	r7, r3
100044ac:	bf36      	itet	cc
100044ae:	ebc3 0248 	rsbcc	r2, r3, r8, lsl #1
100044b2:	1afa      	subcs	r2, r7, r3
100044b4:	19d2      	addcc	r2, r2, r7
100044b6:	b292      	uxth	r2, r2
100044b8:	ea4f 0148 	mov.w	r1, r8, lsl #1
100044bc:	4422      	add	r2, r4
100044be:	428a      	cmp	r2, r1
100044c0:	db0a      	blt.n	100044d8 <tu_fifo_write_n+0x114>
100044c2:	eb03 0908 	add.w	r9, r3, r8
100044c6:	fa1f f989 	uxth.w	r9, r9
100044ca:	eba9 0704 	sub.w	r7, r9, r4
100044ce:	b2bf      	uxth	r7, r7
100044d0:	42bb      	cmp	r3, r7
100044d2:	d91e      	bls.n	10004512 <tu_fifo_write_n+0x14e>
100044d4:	1a7f      	subs	r7, r7, r1
100044d6:	b2bf      	uxth	r7, r7
100044d8:	eb04 0907 	add.w	r9, r4, r7
100044dc:	4646      	mov	r6, r8
100044de:	f8b5 a006 	ldrh.w	sl, [r5, #6]
100044e2:	46a0      	mov	r8, r4
100044e4:	fa1f f989 	uxth.w	r9, r9
100044e8:	e798      	b.n	1000441c <tu_fifo_write_n+0x58>
100044ea:	fb13 f302 	smulbb	r3, r3, r2
100044ee:	4659      	mov	r1, fp
100044f0:	b29a      	uxth	r2, r3
100044f2:	9201      	str	r2, [sp, #4]
100044f4:	f003 fafa 	bl	10007aec <memcpy>
100044f8:	9a01      	ldr	r2, [sp, #4]
100044fa:	6828      	ldr	r0, [r5, #0]
100044fc:	eb0b 0102 	add.w	r1, fp, r2
10004500:	eba8 0206 	sub.w	r2, r8, r6
10004504:	4422      	add	r2, r4
10004506:	fb12 f20a 	smulbb	r2, r2, sl
1000450a:	b292      	uxth	r2, r2
1000450c:	f003 faee 	bl	10007aec <memcpy>
10004510:	e79a      	b.n	10004448 <tu_fifo_write_n+0x84>
10004512:	42b9      	cmp	r1, r7
10004514:	ddde      	ble.n	100044d4 <tu_fifo_write_n+0x110>
10004516:	4646      	mov	r6, r8
10004518:	f8b5 a006 	ldrh.w	sl, [r5, #6]
1000451c:	46a0      	mov	r8, r4
1000451e:	e77d      	b.n	1000441c <tu_fifo_write_n+0x58>

10004520 <tu_fifo_clear>:
10004520:	b510      	push	{r4, lr}
10004522:	4604      	mov	r4, r0
10004524:	68c0      	ldr	r0, [r0, #12]
10004526:	b118      	cbz	r0, 10004530 <tu_fifo_clear+0x10>
10004528:	f04f 31ff 	mov.w	r1, #4294967295	; 0xffffffff
1000452c:	f003 fbf0 	bl	10007d10 <__mutex_enter_timeout_ms_veneer>
10004530:	6920      	ldr	r0, [r4, #16]
10004532:	b118      	cbz	r0, 1000453c <tu_fifo_clear+0x1c>
10004534:	f04f 31ff 	mov.w	r1, #4294967295	; 0xffffffff
10004538:	f003 fbea 	bl	10007d10 <__mutex_enter_timeout_ms_veneer>
1000453c:	2300      	movs	r3, #0
1000453e:	68e0      	ldr	r0, [r4, #12]
10004540:	8163      	strh	r3, [r4, #10]
10004542:	8123      	strh	r3, [r4, #8]
10004544:	b108      	cbz	r0, 1000454a <tu_fifo_clear+0x2a>
10004546:	f003 fbcb 	bl	10007ce0 <__mutex_exit_veneer>
1000454a:	6920      	ldr	r0, [r4, #16]
1000454c:	b108      	cbz	r0, 10004552 <tu_fifo_clear+0x32>
1000454e:	f003 fbc7 	bl	10007ce0 <__mutex_exit_veneer>
10004552:	2001      	movs	r0, #1
10004554:	bd10      	pop	{r4, pc}
10004556:	bf00      	nop

10004558 <tu_fifo_set_overwritable>:
10004558:	b538      	push	{r3, r4, r5, lr}
1000455a:	4604      	mov	r4, r0
1000455c:	68c0      	ldr	r0, [r0, #12]
1000455e:	460d      	mov	r5, r1
10004560:	b118      	cbz	r0, 1000456a <tu_fifo_set_overwritable+0x12>
10004562:	f04f 31ff 	mov.w	r1, #4294967295	; 0xffffffff
10004566:	f003 fbd3 	bl	10007d10 <__mutex_enter_timeout_ms_veneer>
1000456a:	6920      	ldr	r0, [r4, #16]
1000456c:	b118      	cbz	r0, 10004576 <tu_fifo_set_overwritable+0x1e>
1000456e:	f04f 31ff 	mov.w	r1, #4294967295	; 0xffffffff
10004572:	f003 fbcd 	bl	10007d10 <__mutex_enter_timeout_ms_veneer>
10004576:	79e3      	ldrb	r3, [r4, #7]
10004578:	68e0      	ldr	r0, [r4, #12]
1000457a:	f365 13c7 	bfi	r3, r5, #7, #1
1000457e:	71e3      	strb	r3, [r4, #7]
10004580:	b108      	cbz	r0, 10004586 <tu_fifo_set_overwritable+0x2e>
10004582:	f003 fbad 	bl	10007ce0 <__mutex_exit_veneer>
10004586:	6920      	ldr	r0, [r4, #16]
10004588:	b108      	cbz	r0, 1000458e <tu_fifo_set_overwritable+0x36>
1000458a:	f003 fba9 	bl	10007ce0 <__mutex_exit_veneer>
1000458e:	2001      	movs	r0, #1
10004590:	bd38      	pop	{r3, r4, r5, pc}
10004592:	bf00      	nop

10004594 <prvDoorbellInterruptHandler>:
10004594:	4b0a      	ldr	r3, [pc, #40]	; (100045c0 <prvDoorbellInterruptHandler+0x2c>)
10004596:	f993 2000 	ldrsb.w	r2, [r3]
1000459a:	2a00      	cmp	r2, #0
1000459c:	db0f      	blt.n	100045be <prvDoorbellInterruptHandler+0x2a>
1000459e:	f04f 4150 	mov.w	r1, #3489660928	; 0xd0000000
100045a2:	2301      	movs	r3, #1
100045a4:	f8d1 0188 	ldr.w	r0, [r1, #392]	; 0x188
100045a8:	4093      	lsls	r3, r2
100045aa:	4218      	tst	r0, r3
100045ac:	d007      	beq.n	100045be <prvDoorbellInterruptHandler+0x2a>
100045ae:	f04f 22e0 	mov.w	r2, #3758153728	; 0xe000e000
100045b2:	f04f 5080 	mov.w	r0, #268435456	; 0x10000000
100045b6:	f8c1 318c 	str.w	r3, [r1, #396]	; 0x18c
100045ba:	f8c2 0d04 	str.w	r0, [r2, #3332]	; 0xd04
100045be:	4770      	bx	lr
100045c0:	20001269 	.word	0x20001269

100045c4 <prvTaskExitError>:
100045c4:	2300      	movs	r3, #0
100045c6:	b500      	push	{lr}
100045c8:	b083      	sub	sp, #12
100045ca:	9301      	str	r3, [sp, #4]
100045cc:	f000 fa5c 	bl	10004a88 <ulSetInterruptMask>
100045d0:	9b01      	ldr	r3, [sp, #4]
100045d2:	2b00      	cmp	r3, #0
100045d4:	d0fc      	beq.n	100045d0 <prvTaskExitError+0xc>
100045d6:	b003      	add	sp, #12
100045d8:	f85d fb04 	ldr.w	pc, [sp], #4

100045dc <SysTick_Handler>:
100045dc:	b510      	push	{r4, lr}
100045de:	f002 fd93 	bl	10007108 <vTaskEnterCriticalFromISR>
100045e2:	4604      	mov	r4, r0
100045e4:	f001 fb7c 	bl	10005ce0 <xTaskIncrementTick>
100045e8:	b128      	cbz	r0, 100045f6 <SysTick_Handler+0x1a>
100045ea:	f04f 23e0 	mov.w	r3, #3758153728	; 0xe000e000
100045ee:	f04f 5280 	mov.w	r2, #268435456	; 0x10000000
100045f2:	f8c3 2d04 	str.w	r2, [r3, #3332]	; 0xd04
100045f6:	4620      	mov	r0, r4
100045f8:	e8bd 4010 	ldmia.w	sp!, {r4, lr}
100045fc:	f002 be1a 	b.w	10007234 <vTaskExitCriticalFromISR>

10004600 <vPortSetupTimerInterrupt>:
10004600:	b510      	push	{r4, lr}
10004602:	2204      	movs	r2, #4
10004604:	f04f 24e0 	mov.w	r4, #3758153728	; 0xe000e000
10004608:	2300      	movs	r3, #0
1000460a:	6122      	str	r2, [r4, #16]
1000460c:	2005      	movs	r0, #5
1000460e:	61a3      	str	r3, [r4, #24]
10004610:	f7fd f880 	bl	10001714 <clock_get_hz>
10004614:	2207      	movs	r2, #7
10004616:	4b04      	ldr	r3, [pc, #16]	; (10004628 <vPortSetupTimerInterrupt+0x28>)
10004618:	fba3 3000 	umull	r3, r0, r3, r0
1000461c:	0983      	lsrs	r3, r0, #6
1000461e:	3b01      	subs	r3, #1
10004620:	6163      	str	r3, [r4, #20]
10004622:	6122      	str	r2, [r4, #16]
10004624:	bd10      	pop	{r4, pc}
10004626:	bf00      	nop
10004628:	10624dd3 	.word	0x10624dd3

1000462c <xPortStartSchedulerOnCore.isra.0>:
1000462c:	f04f 23e0 	mov.w	r3, #3758153728	; 0xe000e000
10004630:	f04f 427f 	mov.w	r2, #4278190080	; 0xff000000
10004634:	2100      	movs	r1, #0
10004636:	b530      	push	{r4, r5, lr}
10004638:	b085      	sub	sp, #20
1000463a:	9103      	str	r1, [sp, #12]
1000463c:	f8c3 2d1c 	str.w	r2, [r3, #3356]	; 0xd1c
10004640:	f8d3 3d1c 	ldr.w	r3, [r3, #3356]	; 0xd1c
10004644:	0e1b      	lsrs	r3, r3, #24
10004646:	f88d 3007 	strb.w	r3, [sp, #7]
1000464a:	f89d 3007 	ldrb.w	r3, [sp, #7]
1000464e:	f89d 3007 	ldrb.w	r3, [sp, #7]
10004652:	061a      	lsls	r2, r3, #24
10004654:	d50c      	bpl.n	10004670 <xPortStartSchedulerOnCore.isra.0+0x44>
10004656:	9b03      	ldr	r3, [sp, #12]
10004658:	3301      	adds	r3, #1
1000465a:	9303      	str	r3, [sp, #12]
1000465c:	f89d 3007 	ldrb.w	r3, [sp, #7]
10004660:	005b      	lsls	r3, r3, #1
10004662:	b2db      	uxtb	r3, r3
10004664:	f88d 3007 	strb.w	r3, [sp, #7]
10004668:	f89d 3007 	ldrb.w	r3, [sp, #7]
1000466c:	061b      	lsls	r3, r3, #24
1000466e:	d4f2      	bmi.n	10004656 <xPortStartSchedulerOnCore.isra.0+0x2a>
10004670:	9b03      	ldr	r3, [sp, #12]
10004672:	2b08      	cmp	r3, #8
10004674:	d040      	beq.n	100046f8 <xPortStartSchedulerOnCore.isra.0+0xcc>
10004676:	9b03      	ldr	r3, [sp, #12]
10004678:	f1c3 0307 	rsb	r3, r3, #7
1000467c:	021b      	lsls	r3, r3, #8
1000467e:	f403 63e0 	and.w	r3, r3, #1792	; 0x700
10004682:	f04f 4150 	mov.w	r1, #3489660928	; 0xd0000000
10004686:	4825      	ldr	r0, [pc, #148]	; (1000471c <xPortStartSchedulerOnCore.isra.0+0xf0>)
10004688:	4a25      	ldr	r2, [pc, #148]	; (10004720 <xPortStartSchedulerOnCore.isra.0+0xf4>)
1000468a:	6003      	str	r3, [r0, #0]
1000468c:	7812      	ldrb	r2, [r2, #0]
1000468e:	680b      	ldr	r3, [r1, #0]
10004690:	429a      	cmp	r2, r3
10004692:	d033      	beq.n	100046fc <xPortStartSchedulerOnCore.isra.0+0xd0>
10004694:	f04f 23e0 	mov.w	r3, #3758153728	; 0xe000e000
10004698:	2400      	movs	r4, #0
1000469a:	f04f 4550 	mov.w	r5, #3489660928	; 0xd0000000
1000469e:	f8d3 2d20 	ldr.w	r2, [r3, #3360]	; 0xd20
100046a2:	4920      	ldr	r1, [pc, #128]	; (10004724 <xPortStartSchedulerOnCore.isra.0+0xf8>)
100046a4:	f442 027f 	orr.w	r2, r2, #16711680	; 0xff0000
100046a8:	f8c3 2d20 	str.w	r2, [r3, #3360]	; 0xd20
100046ac:	200e      	movs	r0, #14
100046ae:	f8c3 4d1c 	str.w	r4, [r3, #3356]	; 0xd1c
100046b2:	f003 f83b 	bl	1000772c <exception_set_exclusive_handler>
100046b6:	491c      	ldr	r1, [pc, #112]	; (10004728 <xPortStartSchedulerOnCore.isra.0+0xfc>)
100046b8:	200b      	movs	r0, #11
100046ba:	f003 f837 	bl	1000772c <exception_set_exclusive_handler>
100046be:	682a      	ldr	r2, [r5, #0]
100046c0:	4b1a      	ldr	r3, [pc, #104]	; (1000472c <xPortStartSchedulerOnCore.isra.0+0x100>)
100046c2:	21ff      	movs	r1, #255	; 0xff
100046c4:	f843 4022 	str.w	r4, [r3, r2, lsl #2]
100046c8:	201a      	movs	r0, #26
100046ca:	f7fc fb15 	bl	10000cf8 <irq_set_priority>
100046ce:	201a      	movs	r0, #26
100046d0:	4917      	ldr	r1, [pc, #92]	; (10004730 <xPortStartSchedulerOnCore.isra.0+0x104>)
100046d2:	f7fc f8f7 	bl	100008c4 <irq_set_exclusive_handler>
100046d6:	2101      	movs	r1, #1
100046d8:	201a      	movs	r0, #26
100046da:	f7fc f8af 	bl	1000083c <irq_set_enabled>
100046de:	f000 f9cb 	bl	10004a78 <vStartFirstTask>
100046e2:	6828      	ldr	r0, [r5, #0]
100046e4:	f001 fc38 	bl	10005f58 <vTaskSwitchContext>
100046e8:	9402      	str	r4, [sp, #8]
100046ea:	f000 f9cd 	bl	10004a88 <ulSetInterruptMask>
100046ee:	9b02      	ldr	r3, [sp, #8]
100046f0:	2b00      	cmp	r3, #0
100046f2:	d0fc      	beq.n	100046ee <xPortStartSchedulerOnCore.isra.0+0xc2>
100046f4:	b005      	add	sp, #20
100046f6:	bd30      	pop	{r4, r5, pc}
100046f8:	2300      	movs	r3, #0
100046fa:	e7c2      	b.n	10004682 <xPortStartSchedulerOnCore.isra.0+0x56>
100046fc:	f7ff ff80 	bl	10004600 <vPortSetupTimerInterrupt>
10004700:	f04f 22e0 	mov.w	r2, #3758153728	; 0xe000e000
10004704:	f8d2 3d20 	ldr.w	r3, [r2, #3360]	; 0xd20
10004708:	490a      	ldr	r1, [pc, #40]	; (10004734 <xPortStartSchedulerOnCore.isra.0+0x108>)
1000470a:	f043 437f 	orr.w	r3, r3, #4278190080	; 0xff000000
1000470e:	f8c2 3d20 	str.w	r3, [r2, #3360]	; 0xd20
10004712:	200f      	movs	r0, #15
10004714:	f003 f80a 	bl	1000772c <exception_set_exclusive_handler>
10004718:	e7bc      	b.n	10004694 <xPortStartSchedulerOnCore.isra.0+0x68>
1000471a:	bf00      	nop
1000471c:	20022190 	.word	0x20022190
10004720:	2000126a 	.word	0x2000126a
10004724:	10004ab1 	.word	0x10004ab1
10004728:	10004b49 	.word	0x10004b49
1000472c:	20022188 	.word	0x20022188
10004730:	10004595 	.word	0x10004595
10004734:	100045dd 	.word	0x100045dd

10004738 <prvDisableInterruptsAndPortStartSchedulerOnCore>:
10004738:	b508      	push	{r3, lr}
1000473a:	f000 f9a5 	bl	10004a88 <ulSetInterruptMask>
1000473e:	e8bd 4008 	ldmia.w	sp!, {r3, lr}
10004742:	f7ff bf73 	b.w	1000462c <xPortStartSchedulerOnCore.isra.0>
10004746:	bf00      	nop

10004748 <vPortYield>:
10004748:	f04f 23e0 	mov.w	r3, #3758153728	; 0xe000e000
1000474c:	f04f 5280 	mov.w	r2, #268435456	; 0x10000000
10004750:	f8c3 2d04 	str.w	r2, [r3, #3332]	; 0xd04
10004754:	f3bf 8f4f 	dsb	sy
10004758:	f3bf 8f6f 	isb	sy
1000475c:	4770      	bx	lr
1000475e:	bf00      	nop

10004760 <vPortSVCHandler_C>:
10004760:	6983      	ldr	r3, [r0, #24]
10004762:	f813 3c02 	ldrb.w	r3, [r3, #-2]
10004766:	2b66      	cmp	r3, #102	; 0x66
10004768:	d000      	beq.n	1000476c <vPortSVCHandler_C+0xc>
1000476a:	4770      	bx	lr
1000476c:	f04f 23e0 	mov.w	r3, #3758153728	; 0xe000e000
10004770:	f8d3 2d88 	ldr.w	r2, [r3, #3464]	; 0xd88
10004774:	f442 0270 	orr.w	r2, r2, #15728640	; 0xf00000
10004778:	f8c3 2d88 	str.w	r2, [r3, #3464]	; 0xd88
1000477c:	f8d3 2f34 	ldr.w	r2, [r3, #3892]	; 0xf34
10004780:	f042 4240 	orr.w	r2, r2, #3221225472	; 0xc0000000
10004784:	f8c3 2f34 	str.w	r2, [r3, #3892]	; 0xf34
10004788:	f000 b95a 	b.w	10004a40 <vRestoreContextOfFirstTask>

1000478c <pxPortInitialiseStack>:
1000478c:	e92d 47f0 	stmdb	sp!, {r4, r5, r6, r7, r8, r9, sl, lr}
10004790:	f04f 7480 	mov.w	r4, #16777216	; 0x1000000
10004794:	f04f 3710 	mov.w	r7, #269488144	; 0x10101010
10004798:	f04f 3509 	mov.w	r5, #151587081	; 0x9090909
1000479c:	f840 4c04 	str.w	r4, [r0, #-4]
100047a0:	f04f 3407 	mov.w	r4, #117901063	; 0x7070707
100047a4:	e940 570b 	strd	r5, r7, [r0, #-44]	; 0x2c
100047a8:	4d16      	ldr	r5, [pc, #88]	; (10004804 <pxPortInitialiseStack+0x78>)
100047aa:	f840 4c34 	str.w	r4, [r0, #-52]
100047ae:	e940 5203 	strd	r5, r2, [r0, #-12]
100047b2:	f04f 3c11 	mov.w	ip, #286331153	; 0x11111111
100047b6:	f04f 3406 	mov.w	r4, #101058054	; 0x6060606
100047ba:	f04f 3205 	mov.w	r2, #84215045	; 0x5050505
100047be:	e940 c309 	strd	ip, r3, [r0, #-36]	; 0x24
100047c2:	e940 240f 	strd	r2, r4, [r0, #-60]	; 0x3c
100047c6:	4603      	mov	r3, r0
100047c8:	f04f 3a12 	mov.w	sl, #303174162	; 0x12121212
100047cc:	f04f 3903 	mov.w	r9, #50529027	; 0x3030303
100047d0:	f04f 3802 	mov.w	r8, #33686018	; 0x2020202
100047d4:	f04f 3e01 	mov.w	lr, #16843009	; 0x1010101
100047d8:	f04f 3608 	mov.w	r6, #134744072	; 0x8080808
100047dc:	f04f 3504 	mov.w	r5, #67372036	; 0x4040404
100047e0:	f06f 0202 	mvn.w	r2, #2
100047e4:	e940 9a05 	strd	r9, sl, [r0, #-20]
100047e8:	e940 e807 	strd	lr, r8, [r0, #-28]
100047ec:	f840 6c30 	str.w	r6, [r0, #-48]
100047f0:	f840 5c40 	str.w	r5, [r0, #-64]
100047f4:	f840 2c44 	str.w	r2, [r0, #-68]
100047f8:	f843 1d48 	str.w	r1, [r3, #-72]!
100047fc:	4618      	mov	r0, r3
100047fe:	e8bd 87f0 	ldmia.w	sp!, {r4, r5, r6, r7, r8, r9, sl, pc}
10004802:	bf00      	nop
10004804:	100045c5 	.word	0x100045c5

10004808 <xPortStartScheduler>:
10004808:	b570      	push	{r4, r5, r6, lr}
1000480a:	200e      	movs	r0, #14
1000480c:	f7fb ffc8 	bl	100007a0 <spin_lock_claim>
10004810:	200f      	movs	r0, #15
10004812:	f7fb ffc5 	bl	100007a0 <spin_lock_claim>
10004816:	2101      	movs	r1, #1
10004818:	2003      	movs	r0, #3
1000481a:	f003 f81d 	bl	10007858 <multicore_doorbell_claim_unused>
1000481e:	4602      	mov	r2, r0
10004820:	2301      	movs	r3, #1
10004822:	f04f 4150 	mov.w	r1, #3489660928	; 0xd0000000
10004826:	2400      	movs	r4, #0
10004828:	b252      	sxtb	r2, r2
1000482a:	4e08      	ldr	r6, [pc, #32]	; (1000484c <xPortStartScheduler+0x44>)
1000482c:	4093      	lsls	r3, r2
1000482e:	4d08      	ldr	r5, [pc, #32]	; (10004850 <xPortStartScheduler+0x48>)
10004830:	7032      	strb	r2, [r6, #0]
10004832:	4808      	ldr	r0, [pc, #32]	; (10004854 <xPortStartScheduler+0x4c>)
10004834:	f8c1 318c 	str.w	r3, [r1, #396]	; 0x18c
10004838:	f8c1 3184 	str.w	r3, [r1, #388]	; 0x184
1000483c:	702c      	strb	r4, [r5, #0]
1000483e:	f002 ffe9 	bl	10007814 <multicore_launch_core1>
10004842:	f7ff fef3 	bl	1000462c <xPortStartSchedulerOnCore.isra.0>
10004846:	4620      	mov	r0, r4
10004848:	bd70      	pop	{r4, r5, r6, pc}
1000484a:	bf00      	nop
1000484c:	20001269 	.word	0x20001269
10004850:	2000126a 	.word	0x2000126a
10004854:	10004739 	.word	0x10004739

10004858 <vPortValidateInterruptPriority>:
10004858:	f3ef 8305 	mrs	r3, IPSR
1000485c:	2b0f      	cmp	r3, #15
1000485e:	bf84      	itt	hi
10004860:	4a01      	ldrhi	r2, [pc, #4]	; (10004868 <vPortValidateInterruptPriority+0x10>)
10004862:	5c9b      	ldrbhi	r3, [r3, r2]
10004864:	4770      	bx	lr
10004866:	bf00      	nop
10004868:	e000e3f0 	.word	0xe000e3f0

1000486c <ulPortLockGetCurrentOwnerId>:
1000486c:	4b09      	ldr	r3, [pc, #36]	; (10004894 <ulPortLockGetCurrentOwnerId+0x28>)
1000486e:	781b      	ldrb	r3, [r3, #0]
10004870:	2bff      	cmp	r3, #255	; 0xff
10004872:	d00b      	beq.n	1000488c <ulPortLockGetCurrentOwnerId+0x20>
10004874:	f3ef 8305 	mrs	r3, IPSR
10004878:	b2db      	uxtb	r3, r3
1000487a:	b12b      	cbz	r3, 10004888 <ulPortLockGetCurrentOwnerId+0x1c>
1000487c:	f04f 4250 	mov.w	r2, #3489660928	; 0xd0000000
10004880:	6810      	ldr	r0, [r2, #0]
10004882:	eb00 0043 	add.w	r0, r0, r3, lsl #1
10004886:	4770      	bx	lr
10004888:	f001 be14 	b.w	100064b4 <xTaskGetCurrentTaskHandle>
1000488c:	f04f 4350 	mov.w	r3, #3489660928	; 0xd0000000
10004890:	6818      	ldr	r0, [r3, #0]
10004892:	4770      	bx	lr
10004894:	2000126a 	.word	0x2000126a

10004898 <vPortLockInternalSpinUnlockWithNotify>:
10004898:	b510      	push	{r4, lr}
1000489a:	4b20      	ldr	r3, [pc, #128]	; (1000491c <vPortLockInternalSpinUnlockWithNotify+0x84>)
1000489c:	468e      	mov	lr, r1
1000489e:	781b      	ldrb	r3, [r3, #0]
100048a0:	b082      	sub	sp, #8
100048a2:	2bff      	cmp	r3, #255	; 0xff
100048a4:	d030      	beq.n	10004908 <vPortLockInternalSpinUnlockWithNotify+0x70>
100048a6:	f04f 0c01 	mov.w	ip, #1
100048aa:	491d      	ldr	r1, [pc, #116]	; (10004920 <vPortLockInternalSpinUnlockWithNotify+0x88>)
100048ac:	6802      	ldr	r2, [r0, #0]
100048ae:	4b1d      	ldr	r3, [pc, #116]	; (10004924 <vPortLockInternalSpinUnlockWithNotify+0x8c>)
100048b0:	1a52      	subs	r2, r2, r1
100048b2:	fba3 1302 	umull	r1, r3, r3, r2
100048b6:	091b      	lsrs	r3, r3, #4
100048b8:	eb03 0343 	add.w	r3, r3, r3, lsl #1
100048bc:	eba2 03c3 	sub.w	r3, r2, r3, lsl #3
100048c0:	fa0c f103 	lsl.w	r1, ip, r3
100048c4:	bf40      	sev
100048c6:	2400      	movs	r4, #0
100048c8:	6803      	ldr	r3, [r0, #0]
100048ca:	e8c3 4f8f 	stlb	r4, [r3]
100048ce:	f38e 8810 	msr	PRIMASK, lr
100048d2:	f3ef 8305 	mrs	r3, IPSR
100048d6:	b2db      	uxtb	r3, r3
100048d8:	b933      	cbnz	r3, 100048e8 <vPortLockInternalSpinUnlockWithNotify+0x50>
100048da:	4b13      	ldr	r3, [pc, #76]	; (10004928 <vPortLockInternalSpinUnlockWithNotify+0x90>)
100048dc:	6818      	ldr	r0, [r3, #0]
100048de:	b002      	add	sp, #8
100048e0:	e8bd 4010 	ldmia.w	sp!, {r4, lr}
100048e4:	f000 b9d6 	b.w	10004c94 <xEventGroupSetBits>
100048e8:	4b0f      	ldr	r3, [pc, #60]	; (10004928 <vPortLockInternalSpinUnlockWithNotify+0x90>)
100048ea:	aa01      	add	r2, sp, #4
100048ec:	6818      	ldr	r0, [r3, #0]
100048ee:	9401      	str	r4, [sp, #4]
100048f0:	f000 fa04 	bl	10004cfc <xEventGroupSetBitsFromISR>
100048f4:	9b01      	ldr	r3, [sp, #4]
100048f6:	b12b      	cbz	r3, 10004904 <vPortLockInternalSpinUnlockWithNotify+0x6c>
100048f8:	f04f 23e0 	mov.w	r3, #3758153728	; 0xe000e000
100048fc:	f04f 5280 	mov.w	r2, #268435456	; 0x10000000
10004900:	f8c3 2d04 	str.w	r2, [r3, #3332]	; 0xd04
10004904:	b002      	add	sp, #8
10004906:	bd10      	pop	{r4, pc}
10004908:	bf40      	sev
1000490a:	2300      	movs	r3, #0
1000490c:	6802      	ldr	r2, [r0, #0]
1000490e:	e8c2 3f8f 	stlb	r3, [r2]
10004912:	f381 8810 	msr	PRIMASK, r1
10004916:	b002      	add	sp, #8
10004918:	bd10      	pop	{r4, pc}
1000491a:	bf00      	nop
1000491c:	2000126a 	.word	0x2000126a
10004920:	20001608 	.word	0x20001608
10004924:	aaaaaaab 	.word	0xaaaaaaab
10004928:	20022210 	.word	0x20022210

1000492c <xPortLockInternalSpinUnlockWithBestEffortWaitOrTimeout>:
1000492c:	b5f0      	push	{r4, r5, r6, r7, lr}
1000492e:	4c35      	ldr	r4, [pc, #212]	; (10004a04 <xPortLockInternalSpinUnlockWithBestEffortWaitOrTimeout+0xd8>)
10004930:	4606      	mov	r6, r0
10004932:	f894 c000 	ldrb.w	ip, [r4]
10004936:	460f      	mov	r7, r1
10004938:	f1bc 0fff 	cmp.w	ip, #255	; 0xff
1000493c:	4614      	mov	r4, r2
1000493e:	461d      	mov	r5, r3
10004940:	b083      	sub	sp, #12
10004942:	d04e      	beq.n	100049e2 <xPortLockInternalSpinUnlockWithBestEffortWaitOrTimeout+0xb6>
10004944:	f7fc fe74 	bl	10001630 <time_us_64>
10004948:	f240 33e7 	movw	r3, #999	; 0x3e7
1000494c:	ebb4 0c00 	subs.w	ip, r4, r0
10004950:	eb65 0e01 	sbc.w	lr, r5, r1
10004954:	eb1c 0003 	adds.w	r0, ip, r3
10004958:	f14e 0100 	adc.w	r1, lr, #0
1000495c:	f5b0 7f7a 	cmp.w	r0, #1000	; 0x3e8
10004960:	f171 0300 	sbcs.w	r3, r1, #0
10004964:	da1c      	bge.n	100049a0 <xPortLockInternalSpinUnlockWithBestEffortWaitOrTimeout+0x74>
10004966:	2300      	movs	r3, #0
10004968:	6832      	ldr	r2, [r6, #0]
1000496a:	e8c2 3f8f 	stlb	r3, [r2]
1000496e:	f387 8810 	msr	PRIMASK, r7
10004972:	4b25      	ldr	r3, [pc, #148]	; (10004a08 <xPortLockInternalSpinUnlockWithBestEffortWaitOrTimeout+0xdc>)
10004974:	6a5a      	ldr	r2, [r3, #36]	; 0x24
10004976:	4295      	cmp	r5, r2
10004978:	d90c      	bls.n	10004994 <xPortLockInternalSpinUnlockWithBestEffortWaitOrTimeout+0x68>
1000497a:	f04f 23e0 	mov.w	r3, #3758153728	; 0xe000e000
1000497e:	f04f 5280 	mov.w	r2, #268435456	; 0x10000000
10004982:	f8c3 2d04 	str.w	r2, [r3, #3332]	; 0xd04
10004986:	f3bf 8f4f 	dsb	sy
1000498a:	f3bf 8f6f 	isb	sy
1000498e:	2000      	movs	r0, #0
10004990:	b003      	add	sp, #12
10004992:	bdf0      	pop	{r4, r5, r6, r7, pc}
10004994:	6a9b      	ldr	r3, [r3, #40]	; 0x28
10004996:	42a3      	cmp	r3, r4
10004998:	d330      	bcc.n	100049fc <xPortLockInternalSpinUnlockWithBestEffortWaitOrTimeout+0xd0>
1000499a:	2001      	movs	r0, #1
1000499c:	b003      	add	sp, #12
1000499e:	bdf0      	pop	{r4, r5, r6, r7, pc}
100049a0:	f44f 727a 	mov.w	r2, #1000	; 0x3e8
100049a4:	2300      	movs	r3, #0
100049a6:	f003 f9bb 	bl	10007d20 <____aeabi_ldivmod_veneer>
100049aa:	2800      	cmp	r0, #0
100049ac:	d0db      	beq.n	10004966 <xPortLockInternalSpinUnlockWithBestEffortWaitOrTimeout+0x3a>
100049ae:	2300      	movs	r3, #0
100049b0:	6832      	ldr	r2, [r6, #0]
100049b2:	e8c2 3f8f 	stlb	r3, [r2]
100049b6:	f387 8810 	msr	PRIMASK, r7
100049ba:	2201      	movs	r2, #1
100049bc:	9000      	str	r0, [sp, #0]
100049be:	6830      	ldr	r0, [r6, #0]
100049c0:	4912      	ldr	r1, [pc, #72]	; (10004a0c <xPortLockInternalSpinUnlockWithBestEffortWaitOrTimeout+0xe0>)
100049c2:	1a40      	subs	r0, r0, r1
100049c4:	4912      	ldr	r1, [pc, #72]	; (10004a10 <xPortLockInternalSpinUnlockWithBestEffortWaitOrTimeout+0xe4>)
100049c6:	fba1 6100 	umull	r6, r1, r1, r0
100049ca:	0909      	lsrs	r1, r1, #4
100049cc:	eb01 0141 	add.w	r1, r1, r1, lsl #1
100049d0:	eba0 01c1 	sub.w	r1, r0, r1, lsl #3
100049d4:	480f      	ldr	r0, [pc, #60]	; (10004a14 <xPortLockInternalSpinUnlockWithBestEffortWaitOrTimeout+0xe8>)
100049d6:	fa02 f101 	lsl.w	r1, r2, r1
100049da:	6800      	ldr	r0, [r0, #0]
100049dc:	f000 f900 	bl	10004be0 <xEventGroupWaitBits>
100049e0:	e7c7      	b.n	10004972 <xPortLockInternalSpinUnlockWithBestEffortWaitOrTimeout+0x46>
100049e2:	2300      	movs	r3, #0
100049e4:	6802      	ldr	r2, [r0, #0]
100049e6:	e8c2 3f8f 	stlb	r3, [r2]
100049ea:	f381 8810 	msr	PRIMASK, r1
100049ee:	4620      	mov	r0, r4
100049f0:	4629      	mov	r1, r5
100049f2:	b003      	add	sp, #12
100049f4:	e8bd 40f0 	ldmia.w	sp!, {r4, r5, r6, r7, lr}
100049f8:	f7fc bd92 	b.w	10001520 <best_effort_wfe_or_timeout>
100049fc:	4295      	cmp	r5, r2
100049fe:	d0bc      	beq.n	1000497a <xPortLockInternalSpinUnlockWithBestEffortWaitOrTimeout+0x4e>
10004a00:	2001      	movs	r0, #1
10004a02:	e7cb      	b.n	1000499c <xPortLockInternalSpinUnlockWithBestEffortWaitOrTimeout+0x70>
10004a04:	2000126a 	.word	0x2000126a
10004a08:	400b0000 	.word	0x400b0000
10004a0c:	20001608 	.word	0x20001608
10004a10:	aaaaaaab 	.word	0xaaaaaaab
10004a14:	20022210 	.word	0x20022210

10004a18 <prvRuntimeInitializer>:
10004a18:	b508      	push	{r3, lr}
10004a1a:	f000 f8d3 	bl	10004bc4 <xEventGroupCreate>
10004a1e:	4b01      	ldr	r3, [pc, #4]	; (10004a24 <prvRuntimeInitializer+0xc>)
10004a20:	6018      	str	r0, [r3, #0]
10004a22:	bd08      	pop	{r3, pc}
10004a24:	20022210 	.word	0x20022210

10004a28 <vYieldCore>:
10004a28:	2301      	movs	r3, #1
10004a2a:	f04f 4250 	mov.w	r2, #3489660928	; 0xd0000000
10004a2e:	4903      	ldr	r1, [pc, #12]	; (10004a3c <vYieldCore+0x14>)
10004a30:	f991 1000 	ldrsb.w	r1, [r1]
10004a34:	408b      	lsls	r3, r1
10004a36:	f8c2 3180 	str.w	r3, [r2, #384]	; 0x180
10004a3a:	4770      	bx	lr
10004a3c:	20001269 	.word	0x20001269

10004a40 <vRestoreContextOfFirstTask>:
10004a40:	a10b      	add	r1, pc, #44	; (adr r1, 10004a70 <ulAsmLocals>)
10004a42:	c90c      	ldmia	r1!, {r2, r3}
10004a44:	6812      	ldr	r2, [r2, #0]
10004a46:	f853 1022 	ldr.w	r1, [r3, r2, lsl #2]
10004a4a:	6808      	ldr	r0, [r1, #0]
10004a4c:	c806      	ldmia	r0!, {r1, r2}
10004a4e:	f381 880b 	msr	PSPLIM, r1
10004a52:	2102      	movs	r1, #2
10004a54:	f381 8814 	msr	CONTROL, r1
10004a58:	3020      	adds	r0, #32
10004a5a:	f380 8809 	msr	PSP, r0
10004a5e:	f3bf 8f6f 	isb	sy
10004a62:	f04f 0000 	mov.w	r0, #0
10004a66:	f380 8811 	msr	BASEPRI, r0
10004a6a:	4710      	bx	r2
10004a6c:	f3af 8000 	nop.w

10004a70 <ulAsmLocals>:
10004a70:	d0000000 	.word	0xd0000000
10004a74:	20001ec8 	.word	0x20001ec8

10004a78 <vStartFirstTask>:
10004a78:	b662      	cpsie	i
10004a7a:	b661      	cpsie	f
10004a7c:	f3bf 8f4f 	dsb	sy
10004a80:	f3bf 8f6f 	isb	sy
10004a84:	df66      	svc	102	; 0x66
10004a86:	bf00      	nop

10004a88 <ulSetInterruptMask>:
10004a88:	f3ef 8011 	mrs	r0, BASEPRI
10004a8c:	f04f 0110 	mov.w	r1, #16
10004a90:	f381 8811 	msr	BASEPRI, r1
10004a94:	f3bf 8f4f 	dsb	sy
10004a98:	f3bf 8f6f 	isb	sy
10004a9c:	4770      	bx	lr
10004a9e:	bf00      	nop

10004aa0 <vClearInterruptMask>:
10004aa0:	f380 8811 	msr	BASEPRI, r0
10004aa4:	f3bf 8f4f 	dsb	sy
10004aa8:	f3bf 8f6f 	isb	sy
10004aac:	4770      	bx	lr
10004aae:	bf00      	nop

10004ab0 <PendSV_Handler>:
10004ab0:	f3ef 8109 	mrs	r1, PSP
10004ab4:	f01e 0f10 	tst.w	lr, #16
10004ab8:	bf08      	it	eq
10004aba:	ed21 8a10 	vstmdbeq	r1!, {s16-s31}
10004abe:	f3ef 820b 	mrs	r2, PSPLIM
10004ac2:	4673      	mov	r3, lr
10004ac4:	e921 0ffc 	stmdb	r1!, {r2, r3, r4, r5, r6, r7, r8, r9, sl, fp}
10004ac8:	fc55 4408 	dcp_pxmd r4, r5
10004acc:	fc57 6409 	dcp_pymd r6, r7
10004ad0:	fc59 840a 	dcp_pefd r8, r9
10004ad4:	e901 03f0 	stmdb	r1, {r4, r5, r6, r7, r8, r9}
10004ad8:	a019      	add	r0, pc, #100	; (adr r0, 10004b40 <ulAsmLocals2>)
10004ada:	c80c      	ldmia	r0!, {r2, r3}
10004adc:	6810      	ldr	r0, [r2, #0]
10004ade:	f853 3020 	ldr.w	r3, [r3, r0, lsl #2]
10004ae2:	6019      	str	r1, [r3, #0]
10004ae4:	f04f 0110 	mov.w	r1, #16
10004ae8:	f381 8811 	msr	BASEPRI, r1
10004aec:	f3bf 8f4f 	dsb	sy
10004af0:	f3bf 8f6f 	isb	sy
10004af4:	f001 fa30 	bl	10005f58 <vTaskSwitchContext>
10004af8:	f04f 0000 	mov.w	r0, #0
10004afc:	f380 8811 	msr	BASEPRI, r0
10004b00:	a10f      	add	r1, pc, #60	; (adr r1, 10004b40 <ulAsmLocals2>)
10004b02:	c90c      	ldmia	r1!, {r2, r3}
10004b04:	6812      	ldr	r2, [r2, #0]
10004b06:	f853 1022 	ldr.w	r1, [r3, r2, lsl #2]
10004b0a:	6808      	ldr	r0, [r1, #0]
10004b0c:	3818      	subs	r0, #24
10004b0e:	e8b0 03f0 	ldmia.w	r0!, {r4, r5, r6, r7, r8, r9}
10004b12:	ec45 4400 	dcp_wxmd r4, r5
10004b16:	ec47 6401 	dcp_wymd r6, r7
10004b1a:	ec49 8402 	dcp_wefd r8, r9
10004b1e:	e8b0 0ffc 	ldmia.w	r0!, {r2, r3, r4, r5, r6, r7, r8, r9, sl, fp}
10004b22:	f013 0f10 	tst.w	r3, #16
10004b26:	bf08      	it	eq
10004b28:	ecb0 8a10 	vldmiaeq	r0!, {s16-s31}
10004b2c:	f382 880b 	msr	PSPLIM, r2
10004b30:	f380 8809 	msr	PSP, r0
10004b34:	4718      	bx	r3
10004b36:	bf00      	nop
10004b38:	f3af 8000 	nop.w
10004b3c:	f3af 8000 	nop.w

10004b40 <ulAsmLocals2>:
10004b40:	d0000000 	.word	0xd0000000
10004b44:	20001ec8 	.word	0x20001ec8

10004b48 <SVC_Handler>:
10004b48:	f01e 0f04 	tst.w	lr, #4
10004b4c:	bf0c      	ite	eq
10004b4e:	f3ef 8008 	mrseq	r0, MSP
10004b52:	f3ef 8009 	mrsne	r0, PSP
10004b56:	4901      	ldr	r1, [pc, #4]	; (10004b5c <SVC_Handler+0x14>)
10004b58:	4708      	bx	r1
10004b5a:	0000      	.short	0x0000
10004b5c:	10004761 	.word	0x10004761

10004b60 <vEventGroupSetBitsCallback>:
10004b60:	e92d 41f0 	stmdb	sp!, {r4, r5, r6, r7, r8, lr}
10004b64:	4606      	mov	r6, r0
10004b66:	460d      	mov	r5, r1
10004b68:	f001 f89e 	bl	10005ca8 <vTaskSuspendAll>
10004b6c:	6833      	ldr	r3, [r6, #0]
10004b6e:	6934      	ldr	r4, [r6, #16]
10004b70:	f106 070c 	add.w	r7, r6, #12
10004b74:	432b      	orrs	r3, r5
10004b76:	42a7      	cmp	r7, r4
10004b78:	6033      	str	r3, [r6, #0]
10004b7a:	d01e      	beq.n	10004bba <vEventGroupSetBitsCallback+0x5a>
10004b7c:	f04f 0800 	mov.w	r8, #0
10004b80:	e00a      	b.n	10004b98 <vEventGroupSetBitsCallback+0x38>
10004b82:	422b      	tst	r3, r5
10004b84:	d006      	beq.n	10004b94 <vEventGroupSetBitsCallback+0x34>
10004b86:	01d3      	lsls	r3, r2, #7
10004b88:	bf48      	it	mi
10004b8a:	ea48 0805 	orrmi.w	r8, r8, r5
10004b8e:	f002 fa19 	bl	10006fc4 <vTaskRemoveFromUnorderedEventList>
10004b92:	6833      	ldr	r3, [r6, #0]
10004b94:	42a7      	cmp	r7, r4
10004b96:	d00e      	beq.n	10004bb6 <vEventGroupSetBitsCallback+0x56>
10004b98:	4620      	mov	r0, r4
10004b9a:	6802      	ldr	r2, [r0, #0]
10004b9c:	6864      	ldr	r4, [r4, #4]
10004b9e:	f012 6f80 	tst.w	r2, #67108864	; 0x4000000
10004ba2:	f043 7100 	orr.w	r1, r3, #33554432	; 0x2000000
10004ba6:	f022 457f 	bic.w	r5, r2, #4278190080	; 0xff000000
10004baa:	d0ea      	beq.n	10004b82 <vEventGroupSetBitsCallback+0x22>
10004bac:	ea35 0c03 	bics.w	ip, r5, r3
10004bb0:	d0e9      	beq.n	10004b86 <vEventGroupSetBitsCallback+0x26>
10004bb2:	42a7      	cmp	r7, r4
10004bb4:	d1f0      	bne.n	10004b98 <vEventGroupSetBitsCallback+0x38>
10004bb6:	ea23 0308 	bic.w	r3, r3, r8
10004bba:	6033      	str	r3, [r6, #0]
10004bbc:	e8bd 41f0 	ldmia.w	sp!, {r4, r5, r6, r7, r8, lr}
10004bc0:	f002 b9c4 	b.w	10006f4c <xTaskResumeAll>

10004bc4 <xEventGroupCreate>:
10004bc4:	b510      	push	{r4, lr}
10004bc6:	201c      	movs	r0, #28
10004bc8:	f002 fec2 	bl	10007950 <pvPortMalloc>
10004bcc:	4604      	mov	r4, r0
10004bce:	b120      	cbz	r0, 10004bda <xEventGroupCreate+0x16>
10004bd0:	2300      	movs	r3, #0
10004bd2:	f840 3b04 	str.w	r3, [r0], #4
10004bd6:	f000 f89f 	bl	10004d18 <vListInitialise>
10004bda:	4620      	mov	r0, r4
10004bdc:	bd10      	pop	{r4, pc}
10004bde:	bf00      	nop

10004be0 <xEventGroupWaitBits>:
10004be0:	e92d 41f0 	stmdb	sp!, {r4, r5, r6, r7, r8, lr}
10004be4:	4606      	mov	r6, r0
10004be6:	461f      	mov	r7, r3
10004be8:	460d      	mov	r5, r1
10004bea:	4690      	mov	r8, r2
10004bec:	f001 f85c 	bl	10005ca8 <vTaskSuspendAll>
10004bf0:	6834      	ldr	r4, [r6, #0]
10004bf2:	b967      	cbnz	r7, 10004c0e <xEventGroupWaitBits+0x2e>
10004bf4:	422c      	tst	r4, r5
10004bf6:	d00d      	beq.n	10004c14 <xEventGroupWaitBits+0x34>
10004bf8:	f1b8 0f00 	cmp.w	r8, #0
10004bfc:	d00c      	beq.n	10004c18 <xEventGroupWaitBits+0x38>
10004bfe:	ea24 0505 	bic.w	r5, r4, r5
10004c02:	6035      	str	r5, [r6, #0]
10004c04:	f002 f9a2 	bl	10006f4c <xTaskResumeAll>
10004c08:	4620      	mov	r0, r4
10004c0a:	e8bd 81f0 	ldmia.w	sp!, {r4, r5, r6, r7, r8, pc}
10004c0e:	ea35 0304 	bics.w	r3, r5, r4
10004c12:	d0f1      	beq.n	10004bf8 <xEventGroupWaitBits+0x18>
10004c14:	9b06      	ldr	r3, [sp, #24]
10004c16:	b923      	cbnz	r3, 10004c22 <xEventGroupWaitBits+0x42>
10004c18:	f002 f998 	bl	10006f4c <xTaskResumeAll>
10004c1c:	4620      	mov	r0, r4
10004c1e:	e8bd 81f0 	ldmia.w	sp!, {r4, r5, r6, r7, r8, pc}
10004c22:	f1b8 0f00 	cmp.w	r8, #0
10004c26:	461a      	mov	r2, r3
10004c28:	bf0b      	itete	eq
10004c2a:	f04f 6180 	moveq.w	r1, #67108864	; 0x4000000
10004c2e:	f04f 61a0 	movne.w	r1, #83886080	; 0x5000000
10004c32:	2300      	moveq	r3, #0
10004c34:	f04f 7380 	movne.w	r3, #16777216	; 0x1000000
10004c38:	2f00      	cmp	r7, #0
10004c3a:	bf08      	it	eq
10004c3c:	4619      	moveq	r1, r3
10004c3e:	1d30      	adds	r0, r6, #4
10004c40:	4329      	orrs	r1, r5
10004c42:	f001 fb1f 	bl	10006284 <vTaskPlaceOnUnorderedEventList>
10004c46:	f002 f981 	bl	10006f4c <xTaskResumeAll>
10004c4a:	b148      	cbz	r0, 10004c60 <xEventGroupWaitBits+0x80>
10004c4c:	f002 fb24 	bl	10007298 <uxTaskResetEventItemValue>
10004c50:	0183      	lsls	r3, r0, #6
10004c52:	4604      	mov	r4, r0
10004c54:	d50b      	bpl.n	10004c6e <xEventGroupWaitBits+0x8e>
10004c56:	f024 447f 	bic.w	r4, r4, #4278190080	; 0xff000000
10004c5a:	4620      	mov	r0, r4
10004c5c:	e8bd 81f0 	ldmia.w	sp!, {r4, r5, r6, r7, r8, pc}
10004c60:	f001 fd7e 	bl	10006760 <vTaskYieldWithinAPI>
10004c64:	f002 fb18 	bl	10007298 <uxTaskResetEventItemValue>
10004c68:	0183      	lsls	r3, r0, #6
10004c6a:	4604      	mov	r4, r0
10004c6c:	d4f3      	bmi.n	10004c56 <xEventGroupWaitBits+0x76>
10004c6e:	f001 fd89 	bl	10006784 <vTaskEnterCritical>
10004c72:	6834      	ldr	r4, [r6, #0]
10004c74:	b957      	cbnz	r7, 10004c8c <xEventGroupWaitBits+0xac>
10004c76:	4225      	tst	r5, r4
10004c78:	d005      	beq.n	10004c86 <xEventGroupWaitBits+0xa6>
10004c7a:	f1b8 0f00 	cmp.w	r8, #0
10004c7e:	d002      	beq.n	10004c86 <xEventGroupWaitBits+0xa6>
10004c80:	ea24 0505 	bic.w	r5, r4, r5
10004c84:	6035      	str	r5, [r6, #0]
10004c86:	f002 fa89 	bl	1000719c <vTaskExitCritical>
10004c8a:	e7e4      	b.n	10004c56 <xEventGroupWaitBits+0x76>
10004c8c:	ea35 0304 	bics.w	r3, r5, r4
10004c90:	d1f9      	bne.n	10004c86 <xEventGroupWaitBits+0xa6>
10004c92:	e7f2      	b.n	10004c7a <xEventGroupWaitBits+0x9a>

10004c94 <xEventGroupSetBits>:
10004c94:	e92d 41f0 	stmdb	sp!, {r4, r5, r6, r7, r8, lr}
10004c98:	4606      	mov	r6, r0
10004c9a:	460d      	mov	r5, r1
10004c9c:	f001 f804 	bl	10005ca8 <vTaskSuspendAll>
10004ca0:	6833      	ldr	r3, [r6, #0]
10004ca2:	6934      	ldr	r4, [r6, #16]
10004ca4:	f106 070c 	add.w	r7, r6, #12
10004ca8:	432b      	orrs	r3, r5
10004caa:	42a7      	cmp	r7, r4
10004cac:	6033      	str	r3, [r6, #0]
10004cae:	d01e      	beq.n	10004cee <xEventGroupSetBits+0x5a>
10004cb0:	f04f 0800 	mov.w	r8, #0
10004cb4:	e00a      	b.n	10004ccc <xEventGroupSetBits+0x38>
10004cb6:	421d      	tst	r5, r3
10004cb8:	d006      	beq.n	10004cc8 <xEventGroupSetBits+0x34>
10004cba:	01d3      	lsls	r3, r2, #7
10004cbc:	bf48      	it	mi
10004cbe:	ea48 0805 	orrmi.w	r8, r8, r5
10004cc2:	f002 f97f 	bl	10006fc4 <vTaskRemoveFromUnorderedEventList>
10004cc6:	6833      	ldr	r3, [r6, #0]
10004cc8:	42a7      	cmp	r7, r4
10004cca:	d00e      	beq.n	10004cea <xEventGroupSetBits+0x56>
10004ccc:	4620      	mov	r0, r4
10004cce:	6802      	ldr	r2, [r0, #0]
10004cd0:	6864      	ldr	r4, [r4, #4]
10004cd2:	f012 6f80 	tst.w	r2, #67108864	; 0x4000000
10004cd6:	f043 7100 	orr.w	r1, r3, #33554432	; 0x2000000
10004cda:	f022 457f 	bic.w	r5, r2, #4278190080	; 0xff000000
10004cde:	d0ea      	beq.n	10004cb6 <xEventGroupSetBits+0x22>
10004ce0:	ea35 0c03 	bics.w	ip, r5, r3
10004ce4:	d0e9      	beq.n	10004cba <xEventGroupSetBits+0x26>
10004ce6:	42a7      	cmp	r7, r4
10004ce8:	d1f0      	bne.n	10004ccc <xEventGroupSetBits+0x38>
10004cea:	ea23 0308 	bic.w	r3, r3, r8
10004cee:	6033      	str	r3, [r6, #0]
10004cf0:	f002 f92c 	bl	10006f4c <xTaskResumeAll>
10004cf4:	6830      	ldr	r0, [r6, #0]
10004cf6:	e8bd 81f0 	ldmia.w	sp!, {r4, r5, r6, r7, r8, pc}
10004cfa:	bf00      	nop

10004cfc <xEventGroupSetBitsFromISR>:
10004cfc:	468c      	mov	ip, r1
10004cfe:	b500      	push	{lr}
10004d00:	4686      	mov	lr, r0
10004d02:	4613      	mov	r3, r2
10004d04:	4671      	mov	r1, lr
10004d06:	4662      	mov	r2, ip
10004d08:	4802      	ldr	r0, [pc, #8]	; (10004d14 <xEventGroupSetBitsFromISR+0x18>)
10004d0a:	f85d eb04 	ldr.w	lr, [sp], #4
10004d0e:	f002 bcf5 	b.w	100076fc <xTimerPendFunctionCallFromISR>
10004d12:	bf00      	nop
10004d14:	10004b61 	.word	0x10004b61

10004d18 <vListInitialise>:
10004d18:	f04f 31ff 	mov.w	r1, #4294967295	; 0xffffffff
10004d1c:	2200      	movs	r2, #0
10004d1e:	f100 0308 	add.w	r3, r0, #8
10004d22:	e9c0 3101 	strd	r3, r1, [r0, #4]
10004d26:	e9c0 3303 	strd	r3, r3, [r0, #12]
10004d2a:	6002      	str	r2, [r0, #0]
10004d2c:	4770      	bx	lr
10004d2e:	bf00      	nop

10004d30 <vListInitialiseItem>:
10004d30:	2300      	movs	r3, #0
10004d32:	6103      	str	r3, [r0, #16]
10004d34:	4770      	bx	lr
10004d36:	bf00      	nop

10004d38 <vListInsertEnd>:
10004d38:	e9d0 2300 	ldrd	r2, r3, [r0]
10004d3c:	b410      	push	{r4}
10004d3e:	689c      	ldr	r4, [r3, #8]
10004d40:	3201      	adds	r2, #1
10004d42:	608c      	str	r4, [r1, #8]
10004d44:	689c      	ldr	r4, [r3, #8]
10004d46:	604b      	str	r3, [r1, #4]
10004d48:	6061      	str	r1, [r4, #4]
10004d4a:	6099      	str	r1, [r3, #8]
10004d4c:	f85d 4b04 	ldr.w	r4, [sp], #4
10004d50:	6108      	str	r0, [r1, #16]
10004d52:	6002      	str	r2, [r0, #0]
10004d54:	4770      	bx	lr
10004d56:	bf00      	nop

10004d58 <vListInsert>:
10004d58:	b430      	push	{r4, r5}
10004d5a:	680d      	ldr	r5, [r1, #0]
10004d5c:	1c6b      	adds	r3, r5, #1
10004d5e:	d010      	beq.n	10004d82 <vListInsert+0x2a>
10004d60:	f100 0308 	add.w	r3, r0, #8
10004d64:	461c      	mov	r4, r3
10004d66:	685b      	ldr	r3, [r3, #4]
10004d68:	681a      	ldr	r2, [r3, #0]
10004d6a:	42aa      	cmp	r2, r5
10004d6c:	d9fa      	bls.n	10004d64 <vListInsert+0xc>
10004d6e:	6802      	ldr	r2, [r0, #0]
10004d70:	604b      	str	r3, [r1, #4]
10004d72:	3201      	adds	r2, #1
10004d74:	6099      	str	r1, [r3, #8]
10004d76:	608c      	str	r4, [r1, #8]
10004d78:	6061      	str	r1, [r4, #4]
10004d7a:	6108      	str	r0, [r1, #16]
10004d7c:	bc30      	pop	{r4, r5}
10004d7e:	6002      	str	r2, [r0, #0]
10004d80:	4770      	bx	lr
10004d82:	6904      	ldr	r4, [r0, #16]
10004d84:	6863      	ldr	r3, [r4, #4]
10004d86:	e7f2      	b.n	10004d6e <vListInsert+0x16>

10004d88 <uxListRemove>:
10004d88:	4603      	mov	r3, r0
10004d8a:	6902      	ldr	r2, [r0, #16]
10004d8c:	b410      	push	{r4}
10004d8e:	6854      	ldr	r4, [r2, #4]
10004d90:	6840      	ldr	r0, [r0, #4]
10004d92:	6899      	ldr	r1, [r3, #8]
10004d94:	429c      	cmp	r4, r3
10004d96:	6081      	str	r1, [r0, #8]
10004d98:	6048      	str	r0, [r1, #4]
10004d9a:	bf08      	it	eq
10004d9c:	6051      	streq	r1, [r2, #4]
10004d9e:	2100      	movs	r1, #0
10004da0:	6810      	ldr	r0, [r2, #0]
10004da2:	f85d 4b04 	ldr.w	r4, [sp], #4
10004da6:	3801      	subs	r0, #1
10004da8:	6119      	str	r1, [r3, #16]
10004daa:	6010      	str	r0, [r2, #0]
10004dac:	4770      	bx	lr
10004dae:	bf00      	nop

10004db0 <prvCopyDataToQueue>:
10004db0:	b570      	push	{r4, r5, r6, lr}
10004db2:	4615      	mov	r5, r2
10004db4:	6c02      	ldr	r2, [r0, #64]	; 0x40
10004db6:	4604      	mov	r4, r0
10004db8:	6b86      	ldr	r6, [r0, #56]	; 0x38
10004dba:	b92a      	cbnz	r2, 10004dc8 <prvCopyDataToQueue+0x18>
10004dbc:	6805      	ldr	r5, [r0, #0]
10004dbe:	b34d      	cbz	r5, 10004e14 <prvCopyDataToQueue+0x64>
10004dc0:	2000      	movs	r0, #0
10004dc2:	3601      	adds	r6, #1
10004dc4:	63a6      	str	r6, [r4, #56]	; 0x38
10004dc6:	bd70      	pop	{r4, r5, r6, pc}
10004dc8:	b97d      	cbnz	r5, 10004dea <prvCopyDataToQueue+0x3a>
10004dca:	6840      	ldr	r0, [r0, #4]
10004dcc:	f002 fe8e 	bl	10007aec <memcpy>
10004dd0:	6863      	ldr	r3, [r4, #4]
10004dd2:	6c22      	ldr	r2, [r4, #64]	; 0x40
10004dd4:	4413      	add	r3, r2
10004dd6:	68a2      	ldr	r2, [r4, #8]
10004dd8:	6063      	str	r3, [r4, #4]
10004dda:	4293      	cmp	r3, r2
10004ddc:	d3f0      	bcc.n	10004dc0 <prvCopyDataToQueue+0x10>
10004dde:	6823      	ldr	r3, [r4, #0]
10004de0:	3601      	adds	r6, #1
10004de2:	4628      	mov	r0, r5
10004de4:	6063      	str	r3, [r4, #4]
10004de6:	63a6      	str	r6, [r4, #56]	; 0x38
10004de8:	bd70      	pop	{r4, r5, r6, pc}
10004dea:	68c0      	ldr	r0, [r0, #12]
10004dec:	f002 fe7e 	bl	10007aec <memcpy>
10004df0:	6c22      	ldr	r2, [r4, #64]	; 0x40
10004df2:	68e3      	ldr	r3, [r4, #12]
10004df4:	4251      	negs	r1, r2
10004df6:	1a9b      	subs	r3, r3, r2
10004df8:	6822      	ldr	r2, [r4, #0]
10004dfa:	60e3      	str	r3, [r4, #12]
10004dfc:	4293      	cmp	r3, r2
10004dfe:	d202      	bcs.n	10004e06 <prvCopyDataToQueue+0x56>
10004e00:	68a3      	ldr	r3, [r4, #8]
10004e02:	440b      	add	r3, r1
10004e04:	60e3      	str	r3, [r4, #12]
10004e06:	2d02      	cmp	r5, #2
10004e08:	d1da      	bne.n	10004dc0 <prvCopyDataToQueue+0x10>
10004e0a:	2e01      	cmp	r6, #1
10004e0c:	bf38      	it	cc
10004e0e:	2601      	movcc	r6, #1
10004e10:	2000      	movs	r0, #0
10004e12:	e7d7      	b.n	10004dc4 <prvCopyDataToQueue+0x14>
10004e14:	6880      	ldr	r0, [r0, #8]
10004e16:	f001 fbdd 	bl	100065d4 <xTaskPriorityDisinherit>
10004e1a:	3601      	adds	r6, #1
10004e1c:	60a5      	str	r5, [r4, #8]
10004e1e:	e7d1      	b.n	10004dc4 <prvCopyDataToQueue+0x14>

10004e20 <prvUnlockQueue>:
10004e20:	e92d 47f0 	stmdb	sp!, {r4, r5, r6, r7, r8, r9, sl, lr}
10004e24:	4606      	mov	r6, r0
10004e26:	b084      	sub	sp, #16
10004e28:	f001 fcac 	bl	10006784 <vTaskEnterCritical>
10004e2c:	f896 3045 	ldrb.w	r3, [r6, #69]	; 0x45
10004e30:	b25d      	sxtb	r5, r3
10004e32:	2d00      	cmp	r5, #0
10004e34:	dd1c      	ble.n	10004e70 <prvUnlockQueue+0x50>
10004e36:	f106 0724 	add.w	r7, r6, #36	; 0x24
10004e3a:	e008      	b.n	10004e4e <prvUnlockQueue+0x2e>
10004e3c:	6ba2      	ldr	r2, [r4, #56]	; 0x38
10004e3e:	6be3      	ldr	r3, [r4, #60]	; 0x3c
10004e40:	9603      	str	r6, [sp, #12]
10004e42:	429a      	cmp	r2, r3
10004e44:	d33d      	bcc.n	10004ec2 <prvUnlockQueue+0xa2>
10004e46:	1e6b      	subs	r3, r5, #1
10004e48:	b2da      	uxtb	r2, r3
10004e4a:	b25d      	sxtb	r5, r3
10004e4c:	b182      	cbz	r2, 10004e70 <prvUnlockQueue+0x50>
10004e4e:	6cb4      	ldr	r4, [r6, #72]	; 0x48
10004e50:	2c00      	cmp	r4, #0
10004e52:	d1f3      	bne.n	10004e3c <prvUnlockQueue+0x1c>
10004e54:	6a73      	ldr	r3, [r6, #36]	; 0x24
10004e56:	b15b      	cbz	r3, 10004e70 <prvUnlockQueue+0x50>
10004e58:	4638      	mov	r0, r7
10004e5a:	f001 fab1 	bl	100063c0 <xTaskRemoveFromEventList>
10004e5e:	2800      	cmp	r0, #0
10004e60:	d0f1      	beq.n	10004e46 <prvUnlockQueue+0x26>
10004e62:	f001 fb1d 	bl	100064a0 <vTaskMissedYield>
10004e66:	1e6b      	subs	r3, r5, #1
10004e68:	b2da      	uxtb	r2, r3
10004e6a:	b25d      	sxtb	r5, r3
10004e6c:	2a00      	cmp	r2, #0
10004e6e:	d1ee      	bne.n	10004e4e <prvUnlockQueue+0x2e>
10004e70:	23ff      	movs	r3, #255	; 0xff
10004e72:	f886 3045 	strb.w	r3, [r6, #69]	; 0x45
10004e76:	f002 f991 	bl	1000719c <vTaskExitCritical>
10004e7a:	f001 fc83 	bl	10006784 <vTaskEnterCritical>
10004e7e:	f896 3044 	ldrb.w	r3, [r6, #68]	; 0x44
10004e82:	b25c      	sxtb	r4, r3
10004e84:	2c00      	cmp	r4, #0
10004e86:	dd14      	ble.n	10004eb2 <prvUnlockQueue+0x92>
10004e88:	f106 0510 	add.w	r5, r6, #16
10004e8c:	e003      	b.n	10004e96 <prvUnlockQueue+0x76>
10004e8e:	1e63      	subs	r3, r4, #1
10004e90:	b2da      	uxtb	r2, r3
10004e92:	b25c      	sxtb	r4, r3
10004e94:	b16a      	cbz	r2, 10004eb2 <prvUnlockQueue+0x92>
10004e96:	6933      	ldr	r3, [r6, #16]
10004e98:	b15b      	cbz	r3, 10004eb2 <prvUnlockQueue+0x92>
10004e9a:	4628      	mov	r0, r5
10004e9c:	f001 fa90 	bl	100063c0 <xTaskRemoveFromEventList>
10004ea0:	2800      	cmp	r0, #0
10004ea2:	d0f4      	beq.n	10004e8e <prvUnlockQueue+0x6e>
10004ea4:	f001 fafc 	bl	100064a0 <vTaskMissedYield>
10004ea8:	1e63      	subs	r3, r4, #1
10004eaa:	b2da      	uxtb	r2, r3
10004eac:	b25c      	sxtb	r4, r3
10004eae:	2a00      	cmp	r2, #0
10004eb0:	d1f1      	bne.n	10004e96 <prvUnlockQueue+0x76>
10004eb2:	23ff      	movs	r3, #255	; 0xff
10004eb4:	f886 3044 	strb.w	r3, [r6, #68]	; 0x44
10004eb8:	b004      	add	sp, #16
10004eba:	e8bd 47f0 	ldmia.w	sp!, {r4, r5, r6, r7, r8, r9, sl, lr}
10004ebe:	f002 b96d 	b.w	1000719c <vTaskExitCritical>
10004ec2:	f894 8045 	ldrb.w	r8, [r4, #69]	; 0x45
10004ec6:	6c22      	ldr	r2, [r4, #64]	; 0x40
10004ec8:	f8d4 9038 	ldr.w	r9, [r4, #56]	; 0x38
10004ecc:	fa4f f888 	sxtb.w	r8, r8
10004ed0:	b992      	cbnz	r2, 10004ef8 <prvUnlockQueue+0xd8>
10004ed2:	6823      	ldr	r3, [r4, #0]
10004ed4:	2b00      	cmp	r3, #0
10004ed6:	d03b      	beq.n	10004f50 <prvUnlockQueue+0x130>
10004ed8:	f04f 0a00 	mov.w	sl, #0
10004edc:	f109 0301 	add.w	r3, r9, #1
10004ee0:	f1b8 3fff 	cmp.w	r8, #4294967295	; 0xffffffff
10004ee4:	63a3      	str	r3, [r4, #56]	; 0x38
10004ee6:	d11c      	bne.n	10004f22 <prvUnlockQueue+0x102>
10004ee8:	6a63      	ldr	r3, [r4, #36]	; 0x24
10004eea:	bb43      	cbnz	r3, 10004f3e <prvUnlockQueue+0x11e>
10004eec:	f1ba 0f00 	cmp.w	sl, #0
10004ef0:	d0a9      	beq.n	10004e46 <prvUnlockQueue+0x26>
10004ef2:	f001 fad5 	bl	100064a0 <vTaskMissedYield>
10004ef6:	e7b6      	b.n	10004e66 <prvUnlockQueue+0x46>
10004ef8:	6860      	ldr	r0, [r4, #4]
10004efa:	a903      	add	r1, sp, #12
10004efc:	f002 fdf6 	bl	10007aec <memcpy>
10004f00:	6863      	ldr	r3, [r4, #4]
10004f02:	6c22      	ldr	r2, [r4, #64]	; 0x40
10004f04:	4413      	add	r3, r2
10004f06:	68a2      	ldr	r2, [r4, #8]
10004f08:	6063      	str	r3, [r4, #4]
10004f0a:	4293      	cmp	r3, r2
10004f0c:	d3e4      	bcc.n	10004ed8 <prvUnlockQueue+0xb8>
10004f0e:	6823      	ldr	r3, [r4, #0]
10004f10:	f1b8 3fff 	cmp.w	r8, #4294967295	; 0xffffffff
10004f14:	6063      	str	r3, [r4, #4]
10004f16:	f109 0301 	add.w	r3, r9, #1
10004f1a:	f04f 0a00 	mov.w	sl, #0
10004f1e:	63a3      	str	r3, [r4, #56]	; 0x38
10004f20:	d0e2      	beq.n	10004ee8 <prvUnlockQueue+0xc8>
10004f22:	f000 fed7 	bl	10005cd4 <uxTaskGetNumberOfTasks>
10004f26:	4540      	cmp	r0, r8
10004f28:	d9e0      	bls.n	10004eec <prvUnlockQueue+0xcc>
10004f2a:	f108 0801 	add.w	r8, r8, #1
10004f2e:	fa4f f888 	sxtb.w	r8, r8
10004f32:	f884 8045 	strb.w	r8, [r4, #69]	; 0x45
10004f36:	f1ba 0f00 	cmp.w	sl, #0
10004f3a:	d1da      	bne.n	10004ef2 <prvUnlockQueue+0xd2>
10004f3c:	e783      	b.n	10004e46 <prvUnlockQueue+0x26>
10004f3e:	f104 0024 	add.w	r0, r4, #36	; 0x24
10004f42:	f001 fa3d 	bl	100063c0 <xTaskRemoveFromEventList>
10004f46:	2800      	cmp	r0, #0
10004f48:	d0d0      	beq.n	10004eec <prvUnlockQueue+0xcc>
10004f4a:	f001 faa9 	bl	100064a0 <vTaskMissedYield>
10004f4e:	e78a      	b.n	10004e66 <prvUnlockQueue+0x46>
10004f50:	68a0      	ldr	r0, [r4, #8]
10004f52:	9301      	str	r3, [sp, #4]
10004f54:	f001 fb3e 	bl	100065d4 <xTaskPriorityDisinherit>
10004f58:	9b01      	ldr	r3, [sp, #4]
10004f5a:	4682      	mov	sl, r0
10004f5c:	60a3      	str	r3, [r4, #8]
10004f5e:	e7bd      	b.n	10004edc <prvUnlockQueue+0xbc>

10004f60 <prvNotifyQueueSetContainer>:
10004f60:	b5f0      	push	{r4, r5, r6, r7, lr}
10004f62:	6c84      	ldr	r4, [r0, #72]	; 0x48
10004f64:	b083      	sub	sp, #12
10004f66:	6ba2      	ldr	r2, [r4, #56]	; 0x38
10004f68:	6be3      	ldr	r3, [r4, #60]	; 0x3c
10004f6a:	9001      	str	r0, [sp, #4]
10004f6c:	429a      	cmp	r2, r3
10004f6e:	d303      	bcc.n	10004f78 <prvNotifyQueueSetContainer+0x18>
10004f70:	2500      	movs	r5, #0
10004f72:	4628      	mov	r0, r5
10004f74:	b003      	add	sp, #12
10004f76:	bdf0      	pop	{r4, r5, r6, r7, pc}
10004f78:	f894 6045 	ldrb.w	r6, [r4, #69]	; 0x45
10004f7c:	6c22      	ldr	r2, [r4, #64]	; 0x40
10004f7e:	6ba7      	ldr	r7, [r4, #56]	; 0x38
10004f80:	b276      	sxtb	r6, r6
10004f82:	b1e2      	cbz	r2, 10004fbe <prvNotifyQueueSetContainer+0x5e>
10004f84:	6860      	ldr	r0, [r4, #4]
10004f86:	a901      	add	r1, sp, #4
10004f88:	f002 fdb0 	bl	10007aec <memcpy>
10004f8c:	6862      	ldr	r2, [r4, #4]
10004f8e:	6c23      	ldr	r3, [r4, #64]	; 0x40
10004f90:	441a      	add	r2, r3
10004f92:	68a3      	ldr	r3, [r4, #8]
10004f94:	6062      	str	r2, [r4, #4]
10004f96:	429a      	cmp	r2, r3
10004f98:	d313      	bcc.n	10004fc2 <prvNotifyQueueSetContainer+0x62>
10004f9a:	2500      	movs	r5, #0
10004f9c:	6823      	ldr	r3, [r4, #0]
10004f9e:	6063      	str	r3, [r4, #4]
10004fa0:	3701      	adds	r7, #1
10004fa2:	1c73      	adds	r3, r6, #1
10004fa4:	63a7      	str	r7, [r4, #56]	; 0x38
10004fa6:	d112      	bne.n	10004fce <prvNotifyQueueSetContainer+0x6e>
10004fa8:	6a63      	ldr	r3, [r4, #36]	; 0x24
10004faa:	2b00      	cmp	r3, #0
10004fac:	d0e1      	beq.n	10004f72 <prvNotifyQueueSetContainer+0x12>
10004fae:	f104 0024 	add.w	r0, r4, #36	; 0x24
10004fb2:	f001 fa05 	bl	100063c0 <xTaskRemoveFromEventList>
10004fb6:	2800      	cmp	r0, #0
10004fb8:	bf18      	it	ne
10004fba:	2501      	movne	r5, #1
10004fbc:	e7d9      	b.n	10004f72 <prvNotifyQueueSetContainer+0x12>
10004fbe:	6825      	ldr	r5, [r4, #0]
10004fc0:	b175      	cbz	r5, 10004fe0 <prvNotifyQueueSetContainer+0x80>
10004fc2:	3701      	adds	r7, #1
10004fc4:	1c73      	adds	r3, r6, #1
10004fc6:	f04f 0500 	mov.w	r5, #0
10004fca:	63a7      	str	r7, [r4, #56]	; 0x38
10004fcc:	d0ec      	beq.n	10004fa8 <prvNotifyQueueSetContainer+0x48>
10004fce:	f000 fe81 	bl	10005cd4 <uxTaskGetNumberOfTasks>
10004fd2:	4286      	cmp	r6, r0
10004fd4:	d2cd      	bcs.n	10004f72 <prvNotifyQueueSetContainer+0x12>
10004fd6:	3601      	adds	r6, #1
10004fd8:	b276      	sxtb	r6, r6
10004fda:	f884 6045 	strb.w	r6, [r4, #69]	; 0x45
10004fde:	e7c8      	b.n	10004f72 <prvNotifyQueueSetContainer+0x12>
10004fe0:	68a0      	ldr	r0, [r4, #8]
10004fe2:	f001 faf7 	bl	100065d4 <xTaskPriorityDisinherit>
10004fe6:	60a5      	str	r5, [r4, #8]
10004fe8:	4605      	mov	r5, r0
10004fea:	e7d9      	b.n	10004fa0 <prvNotifyQueueSetContainer+0x40>

10004fec <xQueueGenericCreate>:
10004fec:	b5f8      	push	{r3, r4, r5, r6, r7, lr}
10004fee:	b3c0      	cbz	r0, 10005062 <xQueueGenericCreate+0x76>
10004ff0:	4617      	mov	r7, r2
10004ff2:	fba0 2301 	umull	r2, r3, r0, r1
10004ff6:	4605      	mov	r5, r0
10004ff8:	460e      	mov	r6, r1
10004ffa:	bb93      	cbnz	r3, 10005062 <xQueueGenericCreate+0x76>
10004ffc:	fb01 f000 	mul.w	r0, r1, r0
10005000:	f110 0f55 	cmn.w	r0, #85	; 0x55
10005004:	d82d      	bhi.n	10005062 <xQueueGenericCreate+0x76>
10005006:	3054      	adds	r0, #84	; 0x54
10005008:	f002 fca2 	bl	10007950 <pvPortMalloc>
1000500c:	4604      	mov	r4, r0
1000500e:	b340      	cbz	r0, 10005062 <xQueueGenericCreate+0x76>
10005010:	b356      	cbz	r6, 10005068 <xQueueGenericCreate+0x7c>
10005012:	f100 0354 	add.w	r3, r0, #84	; 0x54
10005016:	e9c4 560f 	strd	r5, r6, [r4, #60]	; 0x3c
1000501a:	6023      	str	r3, [r4, #0]
1000501c:	f001 fbb2 	bl	10006784 <vTaskEnterCritical>
10005020:	e9d4 310f 	ldrd	r3, r1, [r4, #60]	; 0x3c
10005024:	fb01 f303 	mul.w	r3, r1, r3
10005028:	6822      	ldr	r2, [r4, #0]
1000502a:	1a59      	subs	r1, r3, r1
1000502c:	4413      	add	r3, r2
1000502e:	2500      	movs	r5, #0
10005030:	60a3      	str	r3, [r4, #8]
10005032:	23ff      	movs	r3, #255	; 0xff
10005034:	6062      	str	r2, [r4, #4]
10005036:	440a      	add	r2, r1
10005038:	60e2      	str	r2, [r4, #12]
1000503a:	63a5      	str	r5, [r4, #56]	; 0x38
1000503c:	f104 0010 	add.w	r0, r4, #16
10005040:	f884 3044 	strb.w	r3, [r4, #68]	; 0x44
10005044:	f884 3045 	strb.w	r3, [r4, #69]	; 0x45
10005048:	f7ff fe66 	bl	10004d18 <vListInitialise>
1000504c:	f104 0024 	add.w	r0, r4, #36	; 0x24
10005050:	f7ff fe62 	bl	10004d18 <vListInitialise>
10005054:	f002 f8a2 	bl	1000719c <vTaskExitCritical>
10005058:	f884 7050 	strb.w	r7, [r4, #80]	; 0x50
1000505c:	4620      	mov	r0, r4
1000505e:	64a5      	str	r5, [r4, #72]	; 0x48
10005060:	bdf8      	pop	{r3, r4, r5, r6, r7, pc}
10005062:	2400      	movs	r4, #0
10005064:	4620      	mov	r0, r4
10005066:	bdf8      	pop	{r3, r4, r5, r6, r7, pc}
10005068:	4603      	mov	r3, r0
1000506a:	e7d4      	b.n	10005016 <xQueueGenericCreate+0x2a>

1000506c <xQueueCreateCountingSemaphore>:
1000506c:	b5f8      	push	{r3, r4, r5, r6, r7, lr}
1000506e:	4605      	mov	r5, r0
10005070:	b378      	cbz	r0, 100050d2 <xQueueCreateCountingSemaphore+0x66>
10005072:	4288      	cmp	r0, r1
10005074:	460e      	mov	r6, r1
10005076:	d32c      	bcc.n	100050d2 <xQueueCreateCountingSemaphore+0x66>
10005078:	2054      	movs	r0, #84	; 0x54
1000507a:	f002 fc69 	bl	10007950 <pvPortMalloc>
1000507e:	4604      	mov	r4, r0
10005080:	b340      	cbz	r0, 100050d4 <xQueueCreateCountingSemaphore+0x68>
10005082:	2700      	movs	r7, #0
10005084:	e9c0 570f 	strd	r5, r7, [r0, #60]	; 0x3c
10005088:	25ff      	movs	r5, #255	; 0xff
1000508a:	6000      	str	r0, [r0, #0]
1000508c:	f001 fb7a 	bl	10006784 <vTaskEnterCritical>
10005090:	6c21      	ldr	r1, [r4, #64]	; 0x40
10005092:	6be3      	ldr	r3, [r4, #60]	; 0x3c
10005094:	6822      	ldr	r2, [r4, #0]
10005096:	fb01 f303 	mul.w	r3, r1, r3
1000509a:	1a59      	subs	r1, r3, r1
1000509c:	6062      	str	r2, [r4, #4]
1000509e:	4413      	add	r3, r2
100050a0:	440a      	add	r2, r1
100050a2:	e9c4 3202 	strd	r3, r2, [r4, #8]
100050a6:	63a7      	str	r7, [r4, #56]	; 0x38
100050a8:	f104 0010 	add.w	r0, r4, #16
100050ac:	f884 5044 	strb.w	r5, [r4, #68]	; 0x44
100050b0:	f884 5045 	strb.w	r5, [r4, #69]	; 0x45
100050b4:	f7ff fe30 	bl	10004d18 <vListInitialise>
100050b8:	f104 0024 	add.w	r0, r4, #36	; 0x24
100050bc:	f7ff fe2c 	bl	10004d18 <vListInitialise>
100050c0:	f002 f86c 	bl	1000719c <vTaskExitCritical>
100050c4:	2302      	movs	r3, #2
100050c6:	f884 3050 	strb.w	r3, [r4, #80]	; 0x50
100050ca:	4620      	mov	r0, r4
100050cc:	64a7      	str	r7, [r4, #72]	; 0x48
100050ce:	63a6      	str	r6, [r4, #56]	; 0x38
100050d0:	bdf8      	pop	{r3, r4, r5, r6, r7, pc}
100050d2:	2400      	movs	r4, #0
100050d4:	4620      	mov	r0, r4
100050d6:	bdf8      	pop	{r3, r4, r5, r6, r7, pc}

100050d8 <xQueueGenericSendFromISR>:
100050d8:	e92d 43f8 	stmdb	sp!, {r3, r4, r5, r6, r7, r8, r9, lr}
100050dc:	4604      	mov	r4, r0
100050de:	4690      	mov	r8, r2
100050e0:	461d      	mov	r5, r3
100050e2:	460f      	mov	r7, r1
100050e4:	f7ff fbb8 	bl	10004858 <vPortValidateInterruptPriority>
100050e8:	f002 f80e 	bl	10007108 <vTaskEnterCriticalFromISR>
100050ec:	6ba2      	ldr	r2, [r4, #56]	; 0x38
100050ee:	6be3      	ldr	r3, [r4, #60]	; 0x3c
100050f0:	4606      	mov	r6, r0
100050f2:	429a      	cmp	r2, r3
100050f4:	d308      	bcc.n	10005108 <xQueueGenericSendFromISR+0x30>
100050f6:	2d02      	cmp	r5, #2
100050f8:	d006      	beq.n	10005108 <xQueueGenericSendFromISR+0x30>
100050fa:	2500      	movs	r5, #0
100050fc:	4630      	mov	r0, r6
100050fe:	f002 f899 	bl	10007234 <vTaskExitCriticalFromISR>
10005102:	4628      	mov	r0, r5
10005104:	e8bd 83f8 	ldmia.w	sp!, {r3, r4, r5, r6, r7, r8, r9, pc}
10005108:	4639      	mov	r1, r7
1000510a:	f894 7045 	ldrb.w	r7, [r4, #69]	; 0x45
1000510e:	462a      	mov	r2, r5
10005110:	4620      	mov	r0, r4
10005112:	b27f      	sxtb	r7, r7
10005114:	f8d4 9038 	ldr.w	r9, [r4, #56]	; 0x38
10005118:	f7ff fe4a 	bl	10004db0 <prvCopyDataToQueue>
1000511c:	1c7b      	adds	r3, r7, #1
1000511e:	d112      	bne.n	10005146 <xQueueGenericSendFromISR+0x6e>
10005120:	6ca3      	ldr	r3, [r4, #72]	; 0x48
10005122:	b1fb      	cbz	r3, 10005164 <xQueueGenericSendFromISR+0x8c>
10005124:	2d02      	cmp	r5, #2
10005126:	d102      	bne.n	1000512e <xQueueGenericSendFromISR+0x56>
10005128:	f1b9 0f00 	cmp.w	r9, #0
1000512c:	d11c      	bne.n	10005168 <xQueueGenericSendFromISR+0x90>
1000512e:	4620      	mov	r0, r4
10005130:	f7ff ff16 	bl	10004f60 <prvNotifyQueueSetContainer>
10005134:	b1c0      	cbz	r0, 10005168 <xQueueGenericSendFromISR+0x90>
10005136:	f1b8 0f00 	cmp.w	r8, #0
1000513a:	d015      	beq.n	10005168 <xQueueGenericSendFromISR+0x90>
1000513c:	2301      	movs	r3, #1
1000513e:	461d      	mov	r5, r3
10005140:	f8c8 3000 	str.w	r3, [r8]
10005144:	e7da      	b.n	100050fc <xQueueGenericSendFromISR+0x24>
10005146:	f000 fdc5 	bl	10005cd4 <uxTaskGetNumberOfTasks>
1000514a:	4287      	cmp	r7, r0
1000514c:	d20c      	bcs.n	10005168 <xQueueGenericSendFromISR+0x90>
1000514e:	2501      	movs	r5, #1
10005150:	3701      	adds	r7, #1
10005152:	b27f      	sxtb	r7, r7
10005154:	4630      	mov	r0, r6
10005156:	f884 7045 	strb.w	r7, [r4, #69]	; 0x45
1000515a:	f002 f86b 	bl	10007234 <vTaskExitCriticalFromISR>
1000515e:	4628      	mov	r0, r5
10005160:	e8bd 83f8 	ldmia.w	sp!, {r3, r4, r5, r6, r7, r8, r9, pc}
10005164:	6a63      	ldr	r3, [r4, #36]	; 0x24
10005166:	b933      	cbnz	r3, 10005176 <xQueueGenericSendFromISR+0x9e>
10005168:	2501      	movs	r5, #1
1000516a:	4630      	mov	r0, r6
1000516c:	f002 f862 	bl	10007234 <vTaskExitCriticalFromISR>
10005170:	4628      	mov	r0, r5
10005172:	e8bd 83f8 	ldmia.w	sp!, {r3, r4, r5, r6, r7, r8, r9, pc}
10005176:	f104 0024 	add.w	r0, r4, #36	; 0x24
1000517a:	f001 f921 	bl	100063c0 <xTaskRemoveFromEventList>
1000517e:	2800      	cmp	r0, #0
10005180:	d1d9      	bne.n	10005136 <xQueueGenericSendFromISR+0x5e>
10005182:	e7f1      	b.n	10005168 <xQueueGenericSendFromISR+0x90>

10005184 <xQueueGiveFromISR>:
10005184:	b5f8      	push	{r3, r4, r5, r6, r7, lr}
10005186:	4604      	mov	r4, r0
10005188:	460e      	mov	r6, r1
1000518a:	f7ff fb65 	bl	10004858 <vPortValidateInterruptPriority>
1000518e:	f001 ffbb 	bl	10007108 <vTaskEnterCriticalFromISR>
10005192:	6ba3      	ldr	r3, [r4, #56]	; 0x38
10005194:	6be2      	ldr	r2, [r4, #60]	; 0x3c
10005196:	4605      	mov	r5, r0
10005198:	429a      	cmp	r2, r3
1000519a:	d911      	bls.n	100051c0 <xQueueGiveFromISR+0x3c>
1000519c:	f894 2045 	ldrb.w	r2, [r4, #69]	; 0x45
100051a0:	3301      	adds	r3, #1
100051a2:	2aff      	cmp	r2, #255	; 0xff
100051a4:	63a3      	str	r3, [r4, #56]	; 0x38
100051a6:	b257      	sxtb	r7, r2
100051a8:	d110      	bne.n	100051cc <xQueueGiveFromISR+0x48>
100051aa:	6ca3      	ldr	r3, [r4, #72]	; 0x48
100051ac:	b1e3      	cbz	r3, 100051e8 <xQueueGiveFromISR+0x64>
100051ae:	4620      	mov	r0, r4
100051b0:	f7ff fed6 	bl	10004f60 <prvNotifyQueueSetContainer>
100051b4:	b1d0      	cbz	r0, 100051ec <xQueueGiveFromISR+0x68>
100051b6:	b1ce      	cbz	r6, 100051ec <xQueueGiveFromISR+0x68>
100051b8:	2301      	movs	r3, #1
100051ba:	461f      	mov	r7, r3
100051bc:	6033      	str	r3, [r6, #0]
100051be:	e000      	b.n	100051c2 <xQueueGiveFromISR+0x3e>
100051c0:	2700      	movs	r7, #0
100051c2:	4628      	mov	r0, r5
100051c4:	f002 f836 	bl	10007234 <vTaskExitCriticalFromISR>
100051c8:	4638      	mov	r0, r7
100051ca:	bdf8      	pop	{r3, r4, r5, r6, r7, pc}
100051cc:	f000 fd82 	bl	10005cd4 <uxTaskGetNumberOfTasks>
100051d0:	4287      	cmp	r7, r0
100051d2:	d20b      	bcs.n	100051ec <xQueueGiveFromISR+0x68>
100051d4:	3701      	adds	r7, #1
100051d6:	b27b      	sxtb	r3, r7
100051d8:	2701      	movs	r7, #1
100051da:	4628      	mov	r0, r5
100051dc:	f884 3045 	strb.w	r3, [r4, #69]	; 0x45
100051e0:	f002 f828 	bl	10007234 <vTaskExitCriticalFromISR>
100051e4:	4638      	mov	r0, r7
100051e6:	bdf8      	pop	{r3, r4, r5, r6, r7, pc}
100051e8:	6a63      	ldr	r3, [r4, #36]	; 0x24
100051ea:	b92b      	cbnz	r3, 100051f8 <xQueueGiveFromISR+0x74>
100051ec:	2701      	movs	r7, #1
100051ee:	4628      	mov	r0, r5
100051f0:	f002 f820 	bl	10007234 <vTaskExitCriticalFromISR>
100051f4:	4638      	mov	r0, r7
100051f6:	bdf8      	pop	{r3, r4, r5, r6, r7, pc}
100051f8:	f104 0024 	add.w	r0, r4, #36	; 0x24
100051fc:	f001 f8e0 	bl	100063c0 <xTaskRemoveFromEventList>
10005200:	2800      	cmp	r0, #0
10005202:	d1d8      	bne.n	100051b6 <xQueueGiveFromISR+0x32>
10005204:	e7f2      	b.n	100051ec <xQueueGiveFromISR+0x68>
10005206:	bf00      	nop

10005208 <xQueueReceive>:
10005208:	e92d 41f0 	stmdb	sp!, {r4, r5, r6, r7, r8, lr}
1000520c:	4604      	mov	r4, r0
1000520e:	b084      	sub	sp, #16
10005210:	460f      	mov	r7, r1
10005212:	9201      	str	r2, [sp, #4]
10005214:	f001 fab6 	bl	10006784 <vTaskEnterCritical>
10005218:	6ba5      	ldr	r5, [r4, #56]	; 0x38
1000521a:	2d00      	cmp	r5, #0
1000521c:	d155      	bne.n	100052ca <xQueueReceive+0xc2>
1000521e:	9b01      	ldr	r3, [sp, #4]
10005220:	b3ab      	cbz	r3, 1000528e <xQueueReceive+0x86>
10005222:	a802      	add	r0, sp, #8
10005224:	f001 f930 	bl	10006488 <vTaskInternalSetTimeOutState>
10005228:	462e      	mov	r6, r5
1000522a:	f104 0824 	add.w	r8, r4, #36	; 0x24
1000522e:	f001 ffb5 	bl	1000719c <vTaskExitCritical>
10005232:	f000 fd39 	bl	10005ca8 <vTaskSuspendAll>
10005236:	f001 faa5 	bl	10006784 <vTaskEnterCritical>
1000523a:	f894 3044 	ldrb.w	r3, [r4, #68]	; 0x44
1000523e:	2bff      	cmp	r3, #255	; 0xff
10005240:	bf08      	it	eq
10005242:	f884 6044 	strbeq.w	r6, [r4, #68]	; 0x44
10005246:	f894 3045 	ldrb.w	r3, [r4, #69]	; 0x45
1000524a:	2bff      	cmp	r3, #255	; 0xff
1000524c:	bf08      	it	eq
1000524e:	f884 6045 	strbeq.w	r6, [r4, #69]	; 0x45
10005252:	f001 ffa3 	bl	1000719c <vTaskExitCritical>
10005256:	a901      	add	r1, sp, #4
10005258:	a802      	add	r0, sp, #8
1000525a:	f001 ff01 	bl	10007060 <xTaskCheckForTimeOut>
1000525e:	b9e0      	cbnz	r0, 1000529a <xQueueReceive+0x92>
10005260:	f001 fa90 	bl	10006784 <vTaskEnterCritical>
10005264:	6ba3      	ldr	r3, [r4, #56]	; 0x38
10005266:	bb2b      	cbnz	r3, 100052b4 <xQueueReceive+0xac>
10005268:	f001 ff98 	bl	1000719c <vTaskExitCritical>
1000526c:	4640      	mov	r0, r8
1000526e:	9901      	ldr	r1, [sp, #4]
10005270:	f000 ffee 	bl	10006250 <vTaskPlaceOnEventList>
10005274:	4620      	mov	r0, r4
10005276:	f7ff fdd3 	bl	10004e20 <prvUnlockQueue>
1000527a:	f001 fe67 	bl	10006f4c <xTaskResumeAll>
1000527e:	b308      	cbz	r0, 100052c4 <xQueueReceive+0xbc>
10005280:	f001 fa80 	bl	10006784 <vTaskEnterCritical>
10005284:	6ba5      	ldr	r5, [r4, #56]	; 0x38
10005286:	bb05      	cbnz	r5, 100052ca <xQueueReceive+0xc2>
10005288:	9b01      	ldr	r3, [sp, #4]
1000528a:	2b00      	cmp	r3, #0
1000528c:	d1cf      	bne.n	1000522e <xQueueReceive+0x26>
1000528e:	f001 ff85 	bl	1000719c <vTaskExitCritical>
10005292:	2000      	movs	r0, #0
10005294:	b004      	add	sp, #16
10005296:	e8bd 81f0 	ldmia.w	sp!, {r4, r5, r6, r7, r8, pc}
1000529a:	4620      	mov	r0, r4
1000529c:	f7ff fdc0 	bl	10004e20 <prvUnlockQueue>
100052a0:	f001 fe54 	bl	10006f4c <xTaskResumeAll>
100052a4:	f001 fa6e 	bl	10006784 <vTaskEnterCritical>
100052a8:	6ba3      	ldr	r3, [r4, #56]	; 0x38
100052aa:	2b00      	cmp	r3, #0
100052ac:	d0ef      	beq.n	1000528e <xQueueReceive+0x86>
100052ae:	f001 ff75 	bl	1000719c <vTaskExitCritical>
100052b2:	e7e5      	b.n	10005280 <xQueueReceive+0x78>
100052b4:	f001 ff72 	bl	1000719c <vTaskExitCritical>
100052b8:	4620      	mov	r0, r4
100052ba:	f7ff fdb1 	bl	10004e20 <prvUnlockQueue>
100052be:	f001 fe45 	bl	10006f4c <xTaskResumeAll>
100052c2:	e7dd      	b.n	10005280 <xQueueReceive+0x78>
100052c4:	f001 fa4c 	bl	10006760 <vTaskYieldWithinAPI>
100052c8:	e7da      	b.n	10005280 <xQueueReceive+0x78>
100052ca:	6c22      	ldr	r2, [r4, #64]	; 0x40
100052cc:	b15a      	cbz	r2, 100052e6 <xQueueReceive+0xde>
100052ce:	68e1      	ldr	r1, [r4, #12]
100052d0:	68a3      	ldr	r3, [r4, #8]
100052d2:	4411      	add	r1, r2
100052d4:	4299      	cmp	r1, r3
100052d6:	60e1      	str	r1, [r4, #12]
100052d8:	bf28      	it	cs
100052da:	6821      	ldrcs	r1, [r4, #0]
100052dc:	4638      	mov	r0, r7
100052de:	bf28      	it	cs
100052e0:	60e1      	strcs	r1, [r4, #12]
100052e2:	f002 fc03 	bl	10007aec <memcpy>
100052e6:	6923      	ldr	r3, [r4, #16]
100052e8:	3d01      	subs	r5, #1
100052ea:	63a5      	str	r5, [r4, #56]	; 0x38
100052ec:	b92b      	cbnz	r3, 100052fa <xQueueReceive+0xf2>
100052ee:	f001 ff55 	bl	1000719c <vTaskExitCritical>
100052f2:	2001      	movs	r0, #1
100052f4:	b004      	add	sp, #16
100052f6:	e8bd 81f0 	ldmia.w	sp!, {r4, r5, r6, r7, r8, pc}
100052fa:	f104 0010 	add.w	r0, r4, #16
100052fe:	f001 f85f 	bl	100063c0 <xTaskRemoveFromEventList>
10005302:	2800      	cmp	r0, #0
10005304:	d0f3      	beq.n	100052ee <xQueueReceive+0xe6>
10005306:	f001 fa2b 	bl	10006760 <vTaskYieldWithinAPI>
1000530a:	e7f0      	b.n	100052ee <xQueueReceive+0xe6>

1000530c <xQueueSemaphoreTake>:
1000530c:	e92d 41f0 	stmdb	sp!, {r4, r5, r6, r7, r8, lr}
10005310:	4604      	mov	r4, r0
10005312:	2700      	movs	r7, #0
10005314:	b084      	sub	sp, #16
10005316:	9101      	str	r1, [sp, #4]
10005318:	f001 fa34 	bl	10006784 <vTaskEnterCritical>
1000531c:	6ba3      	ldr	r3, [r4, #56]	; 0x38
1000531e:	463e      	mov	r6, r7
10005320:	46b8      	mov	r8, r7
10005322:	2b00      	cmp	r3, #0
10005324:	d13a      	bne.n	1000539c <xQueueSemaphoreTake+0x90>
10005326:	9d01      	ldr	r5, [sp, #4]
10005328:	2d00      	cmp	r5, #0
1000532a:	f000 8083 	beq.w	10005434 <xQueueSemaphoreTake+0x128>
1000532e:	2e00      	cmp	r6, #0
10005330:	d04f      	beq.n	100053d2 <xQueueSemaphoreTake+0xc6>
10005332:	f001 ff33 	bl	1000719c <vTaskExitCritical>
10005336:	f000 fcb7 	bl	10005ca8 <vTaskSuspendAll>
1000533a:	f001 fa23 	bl	10006784 <vTaskEnterCritical>
1000533e:	f894 3044 	ldrb.w	r3, [r4, #68]	; 0x44
10005342:	2bff      	cmp	r3, #255	; 0xff
10005344:	bf08      	it	eq
10005346:	f884 8044 	strbeq.w	r8, [r4, #68]	; 0x44
1000534a:	f894 3045 	ldrb.w	r3, [r4, #69]	; 0x45
1000534e:	2bff      	cmp	r3, #255	; 0xff
10005350:	bf08      	it	eq
10005352:	f884 8045 	strbeq.w	r8, [r4, #69]	; 0x45
10005356:	f001 ff21 	bl	1000719c <vTaskExitCritical>
1000535a:	a901      	add	r1, sp, #4
1000535c:	a802      	add	r0, sp, #8
1000535e:	f001 fe7f 	bl	10007060 <xTaskCheckForTimeOut>
10005362:	bb50      	cbnz	r0, 100053ba <xQueueSemaphoreTake+0xae>
10005364:	f001 fa0e 	bl	10006784 <vTaskEnterCritical>
10005368:	6ba3      	ldr	r3, [r4, #56]	; 0x38
1000536a:	2b00      	cmp	r3, #0
1000536c:	d135      	bne.n	100053da <xQueueSemaphoreTake+0xce>
1000536e:	f001 ff15 	bl	1000719c <vTaskExitCritical>
10005372:	6823      	ldr	r3, [r4, #0]
10005374:	2b00      	cmp	r3, #0
10005376:	d054      	beq.n	10005422 <xQueueSemaphoreTake+0x116>
10005378:	9901      	ldr	r1, [sp, #4]
1000537a:	f104 0024 	add.w	r0, r4, #36	; 0x24
1000537e:	f000 ff67 	bl	10006250 <vTaskPlaceOnEventList>
10005382:	4620      	mov	r0, r4
10005384:	f7ff fd4c 	bl	10004e20 <prvUnlockQueue>
10005388:	f001 fde0 	bl	10006f4c <xTaskResumeAll>
1000538c:	2800      	cmp	r0, #0
1000538e:	d045      	beq.n	1000541c <xQueueSemaphoreTake+0x110>
10005390:	f001 f9f8 	bl	10006784 <vTaskEnterCritical>
10005394:	6ba3      	ldr	r3, [r4, #56]	; 0x38
10005396:	2601      	movs	r6, #1
10005398:	2b00      	cmp	r3, #0
1000539a:	d0c4      	beq.n	10005326 <xQueueSemaphoreTake+0x1a>
1000539c:	6822      	ldr	r2, [r4, #0]
1000539e:	3b01      	subs	r3, #1
100053a0:	63a3      	str	r3, [r4, #56]	; 0x38
100053a2:	2a00      	cmp	r2, #0
100053a4:	d056      	beq.n	10005454 <xQueueSemaphoreTake+0x148>
100053a6:	6923      	ldr	r3, [r4, #16]
100053a8:	2b00      	cmp	r3, #0
100053aa:	d14a      	bne.n	10005442 <xQueueSemaphoreTake+0x136>
100053ac:	2701      	movs	r7, #1
100053ae:	f001 fef5 	bl	1000719c <vTaskExitCritical>
100053b2:	4638      	mov	r0, r7
100053b4:	b004      	add	sp, #16
100053b6:	e8bd 81f0 	ldmia.w	sp!, {r4, r5, r6, r7, r8, pc}
100053ba:	4620      	mov	r0, r4
100053bc:	f7ff fd30 	bl	10004e20 <prvUnlockQueue>
100053c0:	f001 fdc4 	bl	10006f4c <xTaskResumeAll>
100053c4:	f001 f9de 	bl	10006784 <vTaskEnterCritical>
100053c8:	6ba3      	ldr	r3, [r4, #56]	; 0x38
100053ca:	b173      	cbz	r3, 100053ea <xQueueSemaphoreTake+0xde>
100053cc:	f001 fee6 	bl	1000719c <vTaskExitCritical>
100053d0:	e7de      	b.n	10005390 <xQueueSemaphoreTake+0x84>
100053d2:	a802      	add	r0, sp, #8
100053d4:	f001 f858 	bl	10006488 <vTaskInternalSetTimeOutState>
100053d8:	e7ab      	b.n	10005332 <xQueueSemaphoreTake+0x26>
100053da:	f001 fedf 	bl	1000719c <vTaskExitCritical>
100053de:	4620      	mov	r0, r4
100053e0:	f7ff fd1e 	bl	10004e20 <prvUnlockQueue>
100053e4:	f001 fdb2 	bl	10006f4c <xTaskResumeAll>
100053e8:	e7d2      	b.n	10005390 <xQueueSemaphoreTake+0x84>
100053ea:	f001 fed7 	bl	1000719c <vTaskExitCritical>
100053ee:	b91f      	cbnz	r7, 100053f8 <xQueueSemaphoreTake+0xec>
100053f0:	4638      	mov	r0, r7
100053f2:	b004      	add	sp, #16
100053f4:	e8bd 81f0 	ldmia.w	sp!, {r4, r5, r6, r7, r8, pc}
100053f8:	f001 f9c4 	bl	10006784 <vTaskEnterCritical>
100053fc:	6a61      	ldr	r1, [r4, #36]	; 0x24
100053fe:	b119      	cbz	r1, 10005408 <xQueueSemaphoreTake+0xfc>
10005400:	6b23      	ldr	r3, [r4, #48]	; 0x30
10005402:	6819      	ldr	r1, [r3, #0]
10005404:	f1c1 0120 	rsb	r1, r1, #32
10005408:	2700      	movs	r7, #0
1000540a:	68a0      	ldr	r0, [r4, #8]
1000540c:	f001 f944 	bl	10006698 <vTaskPriorityDisinheritAfterTimeout>
10005410:	f001 fec4 	bl	1000719c <vTaskExitCritical>
10005414:	4638      	mov	r0, r7
10005416:	b004      	add	sp, #16
10005418:	e8bd 81f0 	ldmia.w	sp!, {r4, r5, r6, r7, r8, pc}
1000541c:	f001 f9a0 	bl	10006760 <vTaskYieldWithinAPI>
10005420:	e7b6      	b.n	10005390 <xQueueSemaphoreTake+0x84>
10005422:	f001 f9af 	bl	10006784 <vTaskEnterCritical>
10005426:	68a0      	ldr	r0, [r4, #8]
10005428:	f001 f854 	bl	100064d4 <xTaskPriorityInherit>
1000542c:	4607      	mov	r7, r0
1000542e:	f001 feb5 	bl	1000719c <vTaskExitCritical>
10005432:	e7a1      	b.n	10005378 <xQueueSemaphoreTake+0x6c>
10005434:	462f      	mov	r7, r5
10005436:	f001 feb1 	bl	1000719c <vTaskExitCritical>
1000543a:	4638      	mov	r0, r7
1000543c:	b004      	add	sp, #16
1000543e:	e8bd 81f0 	ldmia.w	sp!, {r4, r5, r6, r7, r8, pc}
10005442:	f104 0010 	add.w	r0, r4, #16
10005446:	f000 ffbb 	bl	100063c0 <xTaskRemoveFromEventList>
1000544a:	2800      	cmp	r0, #0
1000544c:	d0ae      	beq.n	100053ac <xQueueSemaphoreTake+0xa0>
1000544e:	f001 f987 	bl	10006760 <vTaskYieldWithinAPI>
10005452:	e7ab      	b.n	100053ac <xQueueSemaphoreTake+0xa0>
10005454:	f001 ff42 	bl	100072dc <pvTaskIncrementMutexHeldCount>
10005458:	60a0      	str	r0, [r4, #8]
1000545a:	e7a4      	b.n	100053a6 <xQueueSemaphoreTake+0x9a>

1000545c <vQueueAddToRegistry>:
1000545c:	2900      	cmp	r1, #0
1000545e:	d07e      	beq.n	1000555e <vQueueAddToRegistry+0x102>
10005460:	b430      	push	{r4, r5}
10005462:	2400      	movs	r4, #0
10005464:	4623      	mov	r3, r4
10005466:	4d44      	ldr	r5, [pc, #272]	; (10005578 <vQueueAddToRegistry+0x11c>)
10005468:	eb05 02c3 	add.w	r2, r5, r3, lsl #3
1000546c:	6852      	ldr	r2, [r2, #4]
1000546e:	ea4f 0cc3 	mov.w	ip, r3, lsl #3
10005472:	4282      	cmp	r2, r0
10005474:	d070      	beq.n	10005558 <vQueueAddToRegistry+0xfc>
10005476:	b134      	cbz	r4, 10005486 <vQueueAddToRegistry+0x2a>
10005478:	3301      	adds	r3, #1
1000547a:	2b08      	cmp	r3, #8
1000547c:	d1f4      	bne.n	10005468 <vQueueAddToRegistry+0xc>
1000547e:	e9c4 1000 	strd	r1, r0, [r4]
10005482:	bc30      	pop	{r4, r5}
10005484:	4770      	bx	lr
10005486:	f855 2033 	ldr.w	r2, [r5, r3, lsl #3]
1000548a:	2a00      	cmp	r2, #0
1000548c:	d05f      	beq.n	1000554e <vQueueAddToRegistry+0xf2>
1000548e:	2b07      	cmp	r3, #7
10005490:	f103 0201 	add.w	r2, r3, #1
10005494:	d0f5      	beq.n	10005482 <vQueueAddToRegistry+0x26>
10005496:	eb05 04c2 	add.w	r4, r5, r2, lsl #3
1000549a:	6864      	ldr	r4, [r4, #4]
1000549c:	ea4f 0cc2 	mov.w	ip, r2, lsl #3
100054a0:	42a0      	cmp	r0, r4
100054a2:	d059      	beq.n	10005558 <vQueueAddToRegistry+0xfc>
100054a4:	f855 4032 	ldr.w	r4, [r5, r2, lsl #3]
100054a8:	2c00      	cmp	r4, #0
100054aa:	d059      	beq.n	10005560 <vQueueAddToRegistry+0x104>
100054ac:	2b06      	cmp	r3, #6
100054ae:	f103 0202 	add.w	r2, r3, #2
100054b2:	d0e6      	beq.n	10005482 <vQueueAddToRegistry+0x26>
100054b4:	eb05 04c2 	add.w	r4, r5, r2, lsl #3
100054b8:	6864      	ldr	r4, [r4, #4]
100054ba:	ea4f 0cc2 	mov.w	ip, r2, lsl #3
100054be:	42a0      	cmp	r0, r4
100054c0:	d04a      	beq.n	10005558 <vQueueAddToRegistry+0xfc>
100054c2:	f855 4032 	ldr.w	r4, [r5, r2, lsl #3]
100054c6:	2c00      	cmp	r4, #0
100054c8:	d04a      	beq.n	10005560 <vQueueAddToRegistry+0x104>
100054ca:	2b05      	cmp	r3, #5
100054cc:	f103 0203 	add.w	r2, r3, #3
100054d0:	d0d7      	beq.n	10005482 <vQueueAddToRegistry+0x26>
100054d2:	eb05 04c2 	add.w	r4, r5, r2, lsl #3
100054d6:	6864      	ldr	r4, [r4, #4]
100054d8:	ea4f 0cc2 	mov.w	ip, r2, lsl #3
100054dc:	4284      	cmp	r4, r0
100054de:	d03b      	beq.n	10005558 <vQueueAddToRegistry+0xfc>
100054e0:	f855 4032 	ldr.w	r4, [r5, r2, lsl #3]
100054e4:	2c00      	cmp	r4, #0
100054e6:	d03b      	beq.n	10005560 <vQueueAddToRegistry+0x104>
100054e8:	2b04      	cmp	r3, #4
100054ea:	f103 0204 	add.w	r2, r3, #4
100054ee:	d0c8      	beq.n	10005482 <vQueueAddToRegistry+0x26>
100054f0:	eb05 04c2 	add.w	r4, r5, r2, lsl #3
100054f4:	6864      	ldr	r4, [r4, #4]
100054f6:	ea4f 0cc2 	mov.w	ip, r2, lsl #3
100054fa:	42a0      	cmp	r0, r4
100054fc:	d02c      	beq.n	10005558 <vQueueAddToRegistry+0xfc>
100054fe:	f855 4032 	ldr.w	r4, [r5, r2, lsl #3]
10005502:	b36c      	cbz	r4, 10005560 <vQueueAddToRegistry+0x104>
10005504:	2b03      	cmp	r3, #3
10005506:	f103 0205 	add.w	r2, r3, #5
1000550a:	d0ba      	beq.n	10005482 <vQueueAddToRegistry+0x26>
1000550c:	eb05 04c2 	add.w	r4, r5, r2, lsl #3
10005510:	6864      	ldr	r4, [r4, #4]
10005512:	ea4f 0cc2 	mov.w	ip, r2, lsl #3
10005516:	42a0      	cmp	r0, r4
10005518:	d01e      	beq.n	10005558 <vQueueAddToRegistry+0xfc>
1000551a:	f855 4032 	ldr.w	r4, [r5, r2, lsl #3]
1000551e:	b1fc      	cbz	r4, 10005560 <vQueueAddToRegistry+0x104>
10005520:	2b02      	cmp	r3, #2
10005522:	f103 0c06 	add.w	ip, r3, #6
10005526:	d0ac      	beq.n	10005482 <vQueueAddToRegistry+0x26>
10005528:	eb05 02cc 	add.w	r2, r5, ip, lsl #3
1000552c:	6852      	ldr	r2, [r2, #4]
1000552e:	4290      	cmp	r0, r2
10005530:	d010      	beq.n	10005554 <vQueueAddToRegistry+0xf8>
10005532:	f855 203c 	ldr.w	r2, [r5, ip, lsl #3]
10005536:	b1ba      	cbz	r2, 10005568 <vQueueAddToRegistry+0x10c>
10005538:	2b01      	cmp	r3, #1
1000553a:	d0a2      	beq.n	10005482 <vQueueAddToRegistry+0x26>
1000553c:	6beb      	ldr	r3, [r5, #60]	; 0x3c
1000553e:	4298      	cmp	r0, r3
10005540:	d016      	beq.n	10005570 <vQueueAddToRegistry+0x114>
10005542:	6bab      	ldr	r3, [r5, #56]	; 0x38
10005544:	2b00      	cmp	r3, #0
10005546:	d19c      	bne.n	10005482 <vQueueAddToRegistry+0x26>
10005548:	2307      	movs	r3, #7
1000554a:	f04f 0c38 	mov.w	ip, #56	; 0x38
1000554e:	eb05 040c 	add.w	r4, r5, ip
10005552:	e791      	b.n	10005478 <vQueueAddToRegistry+0x1c>
10005554:	ea4f 0ccc 	mov.w	ip, ip, lsl #3
10005558:	eb05 040c 	add.w	r4, r5, ip
1000555c:	e78f      	b.n	1000547e <vQueueAddToRegistry+0x22>
1000555e:	4770      	bx	lr
10005560:	4613      	mov	r3, r2
10005562:	eb05 040c 	add.w	r4, r5, ip
10005566:	e787      	b.n	10005478 <vQueueAddToRegistry+0x1c>
10005568:	4663      	mov	r3, ip
1000556a:	ea4f 0ccc 	mov.w	ip, ip, lsl #3
1000556e:	e7ee      	b.n	1000554e <vQueueAddToRegistry+0xf2>
10005570:	f04f 0c38 	mov.w	ip, #56	; 0x38
10005574:	e7f0      	b.n	10005558 <vQueueAddToRegistry+0xfc>
10005576:	bf00      	nop
10005578:	20001408 	.word	0x20001408

1000557c <vQueueWaitForMessageRestricted>:
1000557c:	b570      	push	{r4, r5, r6, lr}
1000557e:	4604      	mov	r4, r0
10005580:	460e      	mov	r6, r1
10005582:	4615      	mov	r5, r2
10005584:	f001 f8fe 	bl	10006784 <vTaskEnterCritical>
10005588:	f894 3044 	ldrb.w	r3, [r4, #68]	; 0x44
1000558c:	2bff      	cmp	r3, #255	; 0xff
1000558e:	bf04      	itt	eq
10005590:	2300      	moveq	r3, #0
10005592:	f884 3044 	strbeq.w	r3, [r4, #68]	; 0x44
10005596:	f894 3045 	ldrb.w	r3, [r4, #69]	; 0x45
1000559a:	2bff      	cmp	r3, #255	; 0xff
1000559c:	bf04      	itt	eq
1000559e:	2300      	moveq	r3, #0
100055a0:	f884 3045 	strbeq.w	r3, [r4, #69]	; 0x45
100055a4:	f001 fdfa 	bl	1000719c <vTaskExitCritical>
100055a8:	6ba3      	ldr	r3, [r4, #56]	; 0x38
100055aa:	b123      	cbz	r3, 100055b6 <vQueueWaitForMessageRestricted+0x3a>
100055ac:	4620      	mov	r0, r4
100055ae:	e8bd 4070 	ldmia.w	sp!, {r4, r5, r6, lr}
100055b2:	f7ff bc35 	b.w	10004e20 <prvUnlockQueue>
100055b6:	f104 0024 	add.w	r0, r4, #36	; 0x24
100055ba:	462a      	mov	r2, r5
100055bc:	4631      	mov	r1, r6
100055be:	f000 feb1 	bl	10006324 <vTaskPlaceOnEventListRestricted>
100055c2:	4620      	mov	r0, r4
100055c4:	e8bd 4070 	ldmia.w	sp!, {r4, r5, r6, lr}
100055c8:	f7ff bc2a 	b.w	10004e20 <prvUnlockQueue>

100055cc <prvPassiveIdleTask>:
100055cc:	4c06      	ldr	r4, [pc, #24]	; (100055e8 <prvPassiveIdleTask+0x1c>)
100055ce:	b508      	push	{r3, lr}
100055d0:	f7ff f8ba 	bl	10004748 <vPortYield>
100055d4:	6823      	ldr	r3, [r4, #0]
100055d6:	2b02      	cmp	r3, #2
100055d8:	d800      	bhi.n	100055dc <prvPassiveIdleTask+0x10>
100055da:	e7fe      	b.n	100055da <prvPassiveIdleTask+0xe>
100055dc:	f7ff f8b4 	bl	10004748 <vPortYield>
100055e0:	6823      	ldr	r3, [r4, #0]
100055e2:	2b02      	cmp	r3, #2
100055e4:	d8fa      	bhi.n	100055dc <prvPassiveIdleTask+0x10>
100055e6:	e7f8      	b.n	100055da <prvPassiveIdleTask+0xe>
100055e8:	20001ee4 	.word	0x20001ee4

100055ec <prvYieldForTask>:
100055ec:	b538      	push	{r3, r4, r5, lr}
100055ee:	6b83      	ldr	r3, [r0, #56]	; 0x38
100055f0:	2b00      	cmp	r3, #0
100055f2:	db02      	blt.n	100055fa <prvYieldForTask+0xe>
100055f4:	6b83      	ldr	r3, [r0, #56]	; 0x38
100055f6:	2b01      	cmp	r3, #1
100055f8:	dd31      	ble.n	1000565e <prvYieldForTask+0x72>
100055fa:	4c2d      	ldr	r4, [pc, #180]	; (100056b0 <prvYieldForTask+0xc4>)
100055fc:	6b01      	ldr	r1, [r0, #48]	; 0x30
100055fe:	6822      	ldr	r2, [r4, #0]
10005600:	6823      	ldr	r3, [r4, #0]
10005602:	6b12      	ldr	r2, [r2, #48]	; 0x30
10005604:	6bdb      	ldr	r3, [r3, #60]	; 0x3c
10005606:	1e4d      	subs	r5, r1, #1
10005608:	07db      	lsls	r3, r3, #31
1000560a:	6823      	ldr	r3, [r4, #0]
1000560c:	bf48      	it	mi
1000560e:	f102 32ff 	addmi.w	r2, r2, #4294967295	; 0xffffffff
10005612:	6b9b      	ldr	r3, [r3, #56]	; 0x38
10005614:	2b00      	cmp	r3, #0
10005616:	db03      	blt.n	10005620 <prvYieldForTask+0x34>
10005618:	6823      	ldr	r3, [r4, #0]
1000561a:	6b9b      	ldr	r3, [r3, #56]	; 0x38
1000561c:	2b01      	cmp	r3, #1
1000561e:	dd1f      	ble.n	10005660 <prvYieldForTask+0x74>
10005620:	f04f 33ff 	mov.w	r3, #4294967295	; 0xffffffff
10005624:	6862      	ldr	r2, [r4, #4]
10005626:	6861      	ldr	r1, [r4, #4]
10005628:	6b12      	ldr	r2, [r2, #48]	; 0x30
1000562a:	6bc9      	ldr	r1, [r1, #60]	; 0x3c
1000562c:	07c9      	lsls	r1, r1, #31
1000562e:	6861      	ldr	r1, [r4, #4]
10005630:	bf48      	it	mi
10005632:	f102 32ff 	addmi.w	r2, r2, #4294967295	; 0xffffffff
10005636:	6b89      	ldr	r1, [r1, #56]	; 0x38
10005638:	2900      	cmp	r1, #0
1000563a:	db03      	blt.n	10005644 <prvYieldForTask+0x58>
1000563c:	6861      	ldr	r1, [r4, #4]
1000563e:	6b89      	ldr	r1, [r1, #56]	; 0x38
10005640:	2901      	cmp	r1, #1
10005642:	dd1c      	ble.n	1000567e <prvYieldForTask+0x92>
10005644:	3301      	adds	r3, #1
10005646:	d00a      	beq.n	1000565e <prvYieldForTask+0x72>
10005648:	2500      	movs	r5, #0
1000564a:	f04f 4350 	mov.w	r3, #3489660928	; 0xd0000000
1000564e:	681b      	ldr	r3, [r3, #0]
10005650:	429d      	cmp	r5, r3
10005652:	d028      	beq.n	100056a6 <prvYieldForTask+0xba>
10005654:	f854 3025 	ldr.w	r3, [r4, r5, lsl #2]
10005658:	6b9b      	ldr	r3, [r3, #56]	; 0x38
1000565a:	3302      	adds	r3, #2
1000565c:	d11a      	bne.n	10005694 <prvYieldForTask+0xa8>
1000565e:	bd38      	pop	{r3, r4, r5, pc}
10005660:	4b14      	ldr	r3, [pc, #80]	; (100056b4 <prvYieldForTask+0xc8>)
10005662:	681b      	ldr	r3, [r3, #0]
10005664:	2b00      	cmp	r3, #0
10005666:	d1db      	bne.n	10005620 <prvYieldForTask+0x34>
10005668:	4295      	cmp	r5, r2
1000566a:	dbd9      	blt.n	10005620 <prvYieldForTask+0x34>
1000566c:	6841      	ldr	r1, [r0, #4]
1000566e:	f001 0101 	and.w	r1, r1, #1
10005672:	2900      	cmp	r1, #0
10005674:	bf14      	ite	ne
10005676:	4615      	movne	r5, r2
10005678:	f04f 33ff 	moveq.w	r3, #4294967295	; 0xffffffff
1000567c:	e7d2      	b.n	10005624 <prvYieldForTask+0x38>
1000567e:	490d      	ldr	r1, [pc, #52]	; (100056b4 <prvYieldForTask+0xc8>)
10005680:	6849      	ldr	r1, [r1, #4]
10005682:	2900      	cmp	r1, #0
10005684:	d1de      	bne.n	10005644 <prvYieldForTask+0x58>
10005686:	42aa      	cmp	r2, r5
10005688:	dcdc      	bgt.n	10005644 <prvYieldForTask+0x58>
1000568a:	6842      	ldr	r2, [r0, #4]
1000568c:	0792      	lsls	r2, r2, #30
1000568e:	d5d9      	bpl.n	10005644 <prvYieldForTask+0x58>
10005690:	2501      	movs	r5, #1
10005692:	e7da      	b.n	1000564a <prvYieldForTask+0x5e>
10005694:	4628      	mov	r0, r5
10005696:	f7ff f9c7 	bl	10004a28 <vYieldCore>
1000569a:	f06f 0201 	mvn.w	r2, #1
1000569e:	f854 3025 	ldr.w	r3, [r4, r5, lsl #2]
100056a2:	639a      	str	r2, [r3, #56]	; 0x38
100056a4:	bd38      	pop	{r3, r4, r5, pc}
100056a6:	2201      	movs	r2, #1
100056a8:	4b02      	ldr	r3, [pc, #8]	; (100056b4 <prvYieldForTask+0xc8>)
100056aa:	f843 2025 	str.w	r2, [r3, r5, lsl #2]
100056ae:	bd38      	pop	{r3, r4, r5, pc}
100056b0:	20001ec8 	.word	0x20001ec8
100056b4:	20022294 	.word	0x20022294

100056b8 <vTaskExitCritical.part.0>:
100056b8:	f04f 4150 	mov.w	r1, #3489660928	; 0xd0000000
100056bc:	4b1b      	ldr	r3, [pc, #108]	; (1000572c <vTaskExitCritical.part.0+0x74>)
100056be:	680a      	ldr	r2, [r1, #0]
100056c0:	f853 0022 	ldr.w	r0, [r3, r2, lsl #2]
100056c4:	2800      	cmp	r0, #0
100056c6:	d02c      	beq.n	10005722 <vTaskExitCritical.part.0+0x6a>
100056c8:	f853 0022 	ldr.w	r0, [r3, r2, lsl #2]
100056cc:	3801      	subs	r0, #1
100056ce:	f843 0022 	str.w	r0, [r3, r2, lsl #2]
100056d2:	680a      	ldr	r2, [r1, #0]
100056d4:	f853 3022 	ldr.w	r3, [r3, r2, lsl #2]
100056d8:	bb1b      	cbnz	r3, 10005722 <vTaskExitCritical.part.0+0x6a>
100056da:	b510      	push	{r4, lr}
100056dc:	4914      	ldr	r1, [pc, #80]	; (10005730 <vTaskExitCritical.part.0+0x78>)
100056de:	4b15      	ldr	r3, [pc, #84]	; (10005734 <vTaskExitCritical.part.0+0x7c>)
100056e0:	f853 4022 	ldr.w	r4, [r3, r2, lsl #2]
100056e4:	780b      	ldrb	r3, [r1, #0]
100056e6:	3b01      	subs	r3, #1
100056e8:	b2db      	uxtb	r3, r3
100056ea:	700b      	strb	r3, [r1, #0]
100056ec:	b92b      	cbnz	r3, 100056fa <vTaskExitCritical.part.0+0x42>
100056ee:	4812      	ldr	r0, [pc, #72]	; (10005738 <vTaskExitCritical.part.0+0x80>)
100056f0:	f800 3012 	strb.w	r3, [r0, r2, lsl #1]
100056f4:	4a11      	ldr	r2, [pc, #68]	; (1000573c <vTaskExitCritical.part.0+0x84>)
100056f6:	e8c2 3f8f 	stlb	r3, [r2]
100056fa:	f04f 4250 	mov.w	r2, #3489660928	; 0xd0000000
100056fe:	784b      	ldrb	r3, [r1, #1]
10005700:	6810      	ldr	r0, [r2, #0]
10005702:	3b01      	subs	r3, #1
10005704:	b2db      	uxtb	r3, r3
10005706:	704b      	strb	r3, [r1, #1]
10005708:	b933      	cbnz	r3, 10005718 <vTaskExitCritical.part.0+0x60>
1000570a:	4a0b      	ldr	r2, [pc, #44]	; (10005738 <vTaskExitCritical.part.0+0x80>)
1000570c:	490c      	ldr	r1, [pc, #48]	; (10005740 <vTaskExitCritical.part.0+0x88>)
1000570e:	eb02 0240 	add.w	r2, r2, r0, lsl #1
10005712:	7053      	strb	r3, [r2, #1]
10005714:	e8c1 3f8f 	stlb	r3, [r1]
10005718:	2000      	movs	r0, #0
1000571a:	f7ff f9c1 	bl	10004aa0 <vClearInterruptMask>
1000571e:	b90c      	cbnz	r4, 10005724 <vTaskExitCritical.part.0+0x6c>
10005720:	bd10      	pop	{r4, pc}
10005722:	4770      	bx	lr
10005724:	e8bd 4010 	ldmia.w	sp!, {r4, lr}
10005728:	f7ff b80e 	b.w	10004748 <vPortYield>
1000572c:	20022188 	.word	0x20022188
10005730:	20022184 	.word	0x20022184
10005734:	20022294 	.word	0x20022294
10005738:	20022180 	.word	0x20022180
1000573c:	20001616 	.word	0x20001616
10005740:	20001617 	.word	0x20001617

10005744 <prvCheckForRunStateChange>:
10005744:	f04f 4250 	mov.w	r2, #3489660928	; 0xd0000000
10005748:	4b50      	ldr	r3, [pc, #320]	; (1000588c <prvCheckForRunStateChange+0x148>)
1000574a:	6812      	ldr	r2, [r2, #0]
1000574c:	e92d 47f0 	stmdb	sp!, {r4, r5, r6, r7, r8, r9, sl, lr}
10005750:	f8df 9144 	ldr.w	r9, [pc, #324]	; 10005898 <prvCheckForRunStateChange+0x154>
10005754:	4c4e      	ldr	r4, [pc, #312]	; (10005890 <prvCheckForRunStateChange+0x14c>)
10005756:	f8df 8144 	ldr.w	r8, [pc, #324]	; 1000589c <prvCheckForRunStateChange+0x158>
1000575a:	f853 6022 	ldr.w	r6, [r3, r2, lsl #2]
1000575e:	4d4d      	ldr	r5, [pc, #308]	; (10005894 <prvCheckForRunStateChange+0x150>)
10005760:	e040      	b.n	100057e4 <prvCheckForRunStateChange+0xa0>
10005762:	f8df a13c 	ldr.w	sl, [pc, #316]	; 100058a0 <prvCheckForRunStateChange+0x15c>
10005766:	2000      	movs	r0, #0
10005768:	f7ff f99a 	bl	10004aa0 <vClearInterruptMask>
1000576c:	f7ff f98c 	bl	10004a88 <ulSetInterruptMask>
10005770:	f04f 4350 	mov.w	r3, #3489660928	; 0xd0000000
10005774:	681b      	ldr	r3, [r3, #0]
10005776:	e8da 2fcf 	ldaexb	r2, [sl]
1000577a:	2101      	movs	r1, #1
1000577c:	2a00      	cmp	r2, #0
1000577e:	d101      	bne.n	10005784 <prvCheckForRunStateChange+0x40>
10005780:	e8ca 1f42 	strexb	r2, r1, [sl]
10005784:	f3bf 8f5f 	dmb	sy
10005788:	2a00      	cmp	r2, #0
1000578a:	d150      	bne.n	1000582e <prvCheckForRunStateChange+0xea>
1000578c:	005b      	lsls	r3, r3, #1
1000578e:	2201      	movs	r2, #1
10005790:	4443      	add	r3, r8
10005792:	7062      	strb	r2, [r4, #1]
10005794:	705a      	strb	r2, [r3, #1]
10005796:	f04f 4350 	mov.w	r3, #3489660928	; 0xd0000000
1000579a:	681a      	ldr	r2, [r3, #0]
1000579c:	e8d5 3fcf 	ldaexb	r3, [r5]
100057a0:	2101      	movs	r1, #1
100057a2:	2b00      	cmp	r3, #0
100057a4:	d101      	bne.n	100057aa <prvCheckForRunStateChange+0x66>
100057a6:	e8c5 1f43 	strexb	r3, r1, [r5]
100057aa:	f3bf 8f5f 	dmb	sy
100057ae:	b173      	cbz	r3, 100057ce <prvCheckForRunStateChange+0x8a>
100057b0:	f818 3012 	ldrb.w	r3, [r8, r2, lsl #1]
100057b4:	2b00      	cmp	r3, #0
100057b6:	d14b      	bne.n	10005850 <prvCheckForRunStateChange+0x10c>
100057b8:	e8d5 1fcf 	ldaexb	r1, [r5]
100057bc:	2301      	movs	r3, #1
100057be:	2900      	cmp	r1, #0
100057c0:	d1fa      	bne.n	100057b8 <prvCheckForRunStateChange+0x74>
100057c2:	e8c5 3f41 	strexb	r1, r3, [r5]
100057c6:	2900      	cmp	r1, #0
100057c8:	d1f6      	bne.n	100057b8 <prvCheckForRunStateChange+0x74>
100057ca:	f3bf 8f5f 	dmb	sy
100057ce:	2301      	movs	r3, #1
100057d0:	7023      	strb	r3, [r4, #0]
100057d2:	f808 3012 	strb.w	r3, [r8, r2, lsl #1]
100057d6:	f04f 4350 	mov.w	r3, #3489660928	; 0xd0000000
100057da:	681a      	ldr	r2, [r3, #0]
100057dc:	f849 7022 	str.w	r7, [r9, r2, lsl #2]
100057e0:	2f00      	cmp	r7, #0
100057e2:	d040      	beq.n	10005866 <prvCheckForRunStateChange+0x122>
100057e4:	6bb3      	ldr	r3, [r6, #56]	; 0x38
100057e6:	3302      	adds	r3, #2
100057e8:	d14e      	bne.n	10005888 <prvCheckForRunStateChange+0x144>
100057ea:	f04f 4150 	mov.w	r1, #3489660928	; 0xd0000000
100057ee:	680a      	ldr	r2, [r1, #0]
100057f0:	f859 7022 	ldr.w	r7, [r9, r2, lsl #2]
100057f4:	b16f      	cbz	r7, 10005812 <prvCheckForRunStateChange+0xce>
100057f6:	2300      	movs	r3, #0
100057f8:	f849 3022 	str.w	r3, [r9, r2, lsl #2]
100057fc:	7823      	ldrb	r3, [r4, #0]
100057fe:	680a      	ldr	r2, [r1, #0]
10005800:	3b01      	subs	r3, #1
10005802:	b2db      	uxtb	r3, r3
10005804:	7023      	strb	r3, [r4, #0]
10005806:	b91b      	cbnz	r3, 10005810 <prvCheckForRunStateChange+0xcc>
10005808:	f808 3012 	strb.w	r3, [r8, r2, lsl #1]
1000580c:	e8c5 3f8f 	stlb	r3, [r5]
10005810:	680a      	ldr	r2, [r1, #0]
10005812:	7863      	ldrb	r3, [r4, #1]
10005814:	3b01      	subs	r3, #1
10005816:	b2db      	uxtb	r3, r3
10005818:	7063      	strb	r3, [r4, #1]
1000581a:	2b00      	cmp	r3, #0
1000581c:	d1a1      	bne.n	10005762 <prvCheckForRunStateChange+0x1e>
1000581e:	eb08 0242 	add.w	r2, r8, r2, lsl #1
10005822:	f8df a07c 	ldr.w	sl, [pc, #124]	; 100058a0 <prvCheckForRunStateChange+0x15c>
10005826:	7053      	strb	r3, [r2, #1]
10005828:	e8ca 3f8f 	stlb	r3, [sl]
1000582c:	e79b      	b.n	10005766 <prvCheckForRunStateChange+0x22>
1000582e:	eb08 0243 	add.w	r2, r8, r3, lsl #1
10005832:	7852      	ldrb	r2, [r2, #1]
10005834:	005b      	lsls	r3, r3, #1
10005836:	bb12      	cbnz	r2, 1000587e <prvCheckForRunStateChange+0x13a>
10005838:	e8da 1fcf 	ldaexb	r1, [sl]
1000583c:	2201      	movs	r2, #1
1000583e:	2900      	cmp	r1, #0
10005840:	d1fa      	bne.n	10005838 <prvCheckForRunStateChange+0xf4>
10005842:	e8ca 2f41 	strexb	r1, r2, [sl]
10005846:	2900      	cmp	r1, #0
10005848:	d1f6      	bne.n	10005838 <prvCheckForRunStateChange+0xf4>
1000584a:	f3bf 8f5f 	dmb	sy
1000584e:	e79e      	b.n	1000578e <prvCheckForRunStateChange+0x4a>
10005850:	7823      	ldrb	r3, [r4, #0]
10005852:	3301      	adds	r3, #1
10005854:	b2db      	uxtb	r3, r3
10005856:	7023      	strb	r3, [r4, #0]
10005858:	f04f 4350 	mov.w	r3, #3489660928	; 0xd0000000
1000585c:	681a      	ldr	r2, [r3, #0]
1000585e:	f849 7022 	str.w	r7, [r9, r2, lsl #2]
10005862:	2f00      	cmp	r7, #0
10005864:	d1be      	bne.n	100057e4 <prvCheckForRunStateChange+0xa0>
10005866:	681a      	ldr	r2, [r3, #0]
10005868:	7823      	ldrb	r3, [r4, #0]
1000586a:	3b01      	subs	r3, #1
1000586c:	b2db      	uxtb	r3, r3
1000586e:	7023      	strb	r3, [r4, #0]
10005870:	2b00      	cmp	r3, #0
10005872:	d1b7      	bne.n	100057e4 <prvCheckForRunStateChange+0xa0>
10005874:	f808 7012 	strb.w	r7, [r8, r2, lsl #1]
10005878:	e8c5 7f8f 	stlb	r7, [r5]
1000587c:	e76f      	b.n	1000575e <prvCheckForRunStateChange+0x1a>
1000587e:	7863      	ldrb	r3, [r4, #1]
10005880:	3301      	adds	r3, #1
10005882:	b2db      	uxtb	r3, r3
10005884:	7063      	strb	r3, [r4, #1]
10005886:	e786      	b.n	10005796 <prvCheckForRunStateChange+0x52>
10005888:	e8bd 87f0 	ldmia.w	sp!, {r4, r5, r6, r7, r8, r9, sl, pc}
1000588c:	20001ec8 	.word	0x20001ec8
10005890:	20022184 	.word	0x20022184
10005894:	20001616 	.word	0x20001616
10005898:	20022188 	.word	0x20022188
1000589c:	20022180 	.word	0x20022180
100058a0:	20001617 	.word	0x20001617

100058a4 <vTaskSuspendAll.part.0>:
100058a4:	b570      	push	{r4, r5, r6, lr}
100058a6:	b082      	sub	sp, #8
100058a8:	f7ff f8ee 	bl	10004a88 <ulSetInterruptMask>
100058ac:	f04f 4250 	mov.w	r2, #3489660928	; 0xd0000000
100058b0:	4b38      	ldr	r3, [pc, #224]	; (10005994 <vTaskSuspendAll.part.0+0xf0>)
100058b2:	6812      	ldr	r2, [r2, #0]
100058b4:	e8d3 1fcf 	ldaexb	r1, [r3]
100058b8:	2401      	movs	r4, #1
100058ba:	2900      	cmp	r1, #0
100058bc:	d101      	bne.n	100058c2 <vTaskSuspendAll.part.0+0x1e>
100058be:	e8c3 4f41 	strexb	r1, r4, [r3]
100058c2:	f3bf 8f5f 	dmb	sy
100058c6:	4d34      	ldr	r5, [pc, #208]	; (10005998 <vTaskSuspendAll.part.0+0xf4>)
100058c8:	2900      	cmp	r1, #0
100058ca:	d141      	bne.n	10005950 <vTaskSuspendAll.part.0+0xac>
100058cc:	0051      	lsls	r1, r2, #1
100058ce:	2301      	movs	r3, #1
100058d0:	4c32      	ldr	r4, [pc, #200]	; (1000599c <vTaskSuspendAll.part.0+0xf8>)
100058d2:	4429      	add	r1, r5
100058d4:	7063      	strb	r3, [r4, #1]
100058d6:	704b      	strb	r3, [r1, #1]
100058d8:	4e31      	ldr	r6, [pc, #196]	; (100059a0 <vTaskSuspendAll.part.0+0xfc>)
100058da:	6833      	ldr	r3, [r6, #0]
100058dc:	2b00      	cmp	r3, #0
100058de:	d048      	beq.n	10005972 <vTaskSuspendAll.part.0+0xce>
100058e0:	f04f 4350 	mov.w	r3, #3489660928	; 0xd0000000
100058e4:	4a2f      	ldr	r2, [pc, #188]	; (100059a4 <vTaskSuspendAll.part.0+0x100>)
100058e6:	6819      	ldr	r1, [r3, #0]
100058e8:	e8d2 3fcf 	ldaexb	r3, [r2]
100058ec:	f05f 0c01 	movs.w	ip, #1
100058f0:	2b00      	cmp	r3, #0
100058f2:	d101      	bne.n	100058f8 <vTaskSuspendAll.part.0+0x54>
100058f4:	e8c2 cf43 	strexb	r3, ip, [r2]
100058f8:	f3bf 8f5f 	dmb	sy
100058fc:	b183      	cbz	r3, 10005920 <vTaskSuspendAll.part.0+0x7c>
100058fe:	f815 3011 	ldrb.w	r3, [r5, r1, lsl #1]
10005902:	2b00      	cmp	r3, #0
10005904:	d140      	bne.n	10005988 <vTaskSuspendAll.part.0+0xe4>
10005906:	e8d2 cfcf 	ldaexb	ip, [r2]
1000590a:	2301      	movs	r3, #1
1000590c:	f1bc 0f00 	cmp.w	ip, #0
10005910:	d1f9      	bne.n	10005906 <vTaskSuspendAll.part.0+0x62>
10005912:	e8c2 3f4c 	strexb	ip, r3, [r2]
10005916:	f1bc 0f00 	cmp.w	ip, #0
1000591a:	d1f4      	bne.n	10005906 <vTaskSuspendAll.part.0+0x62>
1000591c:	f3bf 8f5f 	dmb	sy
10005920:	2301      	movs	r3, #1
10005922:	7023      	strb	r3, [r4, #0]
10005924:	f805 3011 	strb.w	r3, [r5, r1, lsl #1]
10005928:	f04f 4150 	mov.w	r1, #3489660928	; 0xd0000000
1000592c:	6833      	ldr	r3, [r6, #0]
1000592e:	3301      	adds	r3, #1
10005930:	6033      	str	r3, [r6, #0]
10005932:	7823      	ldrb	r3, [r4, #0]
10005934:	6809      	ldr	r1, [r1, #0]
10005936:	3b01      	subs	r3, #1
10005938:	b2db      	uxtb	r3, r3
1000593a:	7023      	strb	r3, [r4, #0]
1000593c:	b91b      	cbnz	r3, 10005946 <vTaskSuspendAll.part.0+0xa2>
1000593e:	f805 3011 	strb.w	r3, [r5, r1, lsl #1]
10005942:	e8c2 3f8f 	stlb	r3, [r2]
10005946:	b002      	add	sp, #8
10005948:	e8bd 4070 	ldmia.w	sp!, {r4, r5, r6, lr}
1000594c:	f7ff b8a8 	b.w	10004aa0 <vClearInterruptMask>
10005950:	0051      	lsls	r1, r2, #1
10005952:	eb05 0242 	add.w	r2, r5, r2, lsl #1
10005956:	7852      	ldrb	r2, [r2, #1]
10005958:	b982      	cbnz	r2, 1000597c <vTaskSuspendAll.part.0+0xd8>
1000595a:	e8d3 4fcf 	ldaexb	r4, [r3]
1000595e:	2201      	movs	r2, #1
10005960:	2c00      	cmp	r4, #0
10005962:	d1fa      	bne.n	1000595a <vTaskSuspendAll.part.0+0xb6>
10005964:	e8c3 2f44 	strexb	r4, r2, [r3]
10005968:	2c00      	cmp	r4, #0
1000596a:	d1f6      	bne.n	1000595a <vTaskSuspendAll.part.0+0xb6>
1000596c:	f3bf 8f5f 	dmb	sy
10005970:	e7ad      	b.n	100058ce <vTaskSuspendAll.part.0+0x2a>
10005972:	9001      	str	r0, [sp, #4]
10005974:	f7ff fee6 	bl	10005744 <prvCheckForRunStateChange>
10005978:	9801      	ldr	r0, [sp, #4]
1000597a:	e7b1      	b.n	100058e0 <vTaskSuspendAll.part.0+0x3c>
1000597c:	4c07      	ldr	r4, [pc, #28]	; (1000599c <vTaskSuspendAll.part.0+0xf8>)
1000597e:	7863      	ldrb	r3, [r4, #1]
10005980:	3301      	adds	r3, #1
10005982:	b2db      	uxtb	r3, r3
10005984:	7063      	strb	r3, [r4, #1]
10005986:	e7a7      	b.n	100058d8 <vTaskSuspendAll.part.0+0x34>
10005988:	7823      	ldrb	r3, [r4, #0]
1000598a:	3301      	adds	r3, #1
1000598c:	b2db      	uxtb	r3, r3
1000598e:	7023      	strb	r3, [r4, #0]
10005990:	e7ca      	b.n	10005928 <vTaskSuspendAll.part.0+0x84>
10005992:	bf00      	nop
10005994:	20001617 	.word	0x20001617
10005998:	20022180 	.word	0x20022180
1000599c:	20022184 	.word	0x20022184
100059a0:	200221b0 	.word	0x200221b0
100059a4:	20001616 	.word	0x20001616

100059a8 <prvCheckTasksWaitingTermination>:
100059a8:	e92d 43f8 	stmdb	sp!, {r3, r4, r5, r6, r7, r8, r9, lr}
100059ac:	4c5e      	ldr	r4, [pc, #376]	; (10005b28 <prvCheckTasksWaitingTermination+0x180>)
100059ae:	4d5f      	ldr	r5, [pc, #380]	; (10005b2c <prvCheckTasksWaitingTermination+0x184>)
100059b0:	4e5f      	ldr	r6, [pc, #380]	; (10005b30 <prvCheckTasksWaitingTermination+0x188>)
100059b2:	f8df 8198 	ldr.w	r8, [pc, #408]	; 10005b4c <prvCheckTasksWaitingTermination+0x1a4>
100059b6:	4f5f      	ldr	r7, [pc, #380]	; (10005b34 <prvCheckTasksWaitingTermination+0x18c>)
100059b8:	6823      	ldr	r3, [r4, #0]
100059ba:	2b00      	cmp	r3, #0
100059bc:	d03a      	beq.n	10005a34 <prvCheckTasksWaitingTermination+0x8c>
100059be:	f7ff f863 	bl	10004a88 <ulSetInterruptMask>
100059c2:	682b      	ldr	r3, [r5, #0]
100059c4:	b193      	cbz	r3, 100059ec <prvCheckTasksWaitingTermination+0x44>
100059c6:	f04f 4350 	mov.w	r3, #3489660928	; 0xd0000000
100059ca:	681b      	ldr	r3, [r3, #0]
100059cc:	f856 2023 	ldr.w	r2, [r6, r3, lsl #2]
100059d0:	2a00      	cmp	r2, #0
100059d2:	d041      	beq.n	10005a58 <prvCheckTasksWaitingTermination+0xb0>
100059d4:	f04f 4150 	mov.w	r1, #3489660928	; 0xd0000000
100059d8:	f856 2023 	ldr.w	r2, [r6, r3, lsl #2]
100059dc:	3201      	adds	r2, #1
100059de:	f846 2023 	str.w	r2, [r6, r3, lsl #2]
100059e2:	680b      	ldr	r3, [r1, #0]
100059e4:	f856 3023 	ldr.w	r3, [r6, r3, lsl #2]
100059e8:	2b01      	cmp	r3, #1
100059ea:	d02e      	beq.n	10005a4a <prvCheckTasksWaitingTermination+0xa2>
100059ec:	6823      	ldr	r3, [r4, #0]
100059ee:	b31b      	cbz	r3, 10005a38 <prvCheckTasksWaitingTermination+0x90>
100059f0:	4b51      	ldr	r3, [pc, #324]	; (10005b38 <prvCheckTasksWaitingTermination+0x190>)
100059f2:	68db      	ldr	r3, [r3, #12]
100059f4:	f8d3 900c 	ldr.w	r9, [r3, #12]
100059f8:	f8d9 3038 	ldr.w	r3, [r9, #56]	; 0x38
100059fc:	3301      	adds	r3, #1
100059fe:	f040 808b 	bne.w	10005b18 <prvCheckTasksWaitingTermination+0x170>
10005a02:	f109 0008 	add.w	r0, r9, #8
10005a06:	f7ff f9bf 	bl	10004d88 <uxListRemove>
10005a0a:	4a4c      	ldr	r2, [pc, #304]	; (10005b3c <prvCheckTasksWaitingTermination+0x194>)
10005a0c:	6813      	ldr	r3, [r2, #0]
10005a0e:	3b01      	subs	r3, #1
10005a10:	6013      	str	r3, [r2, #0]
10005a12:	6823      	ldr	r3, [r4, #0]
10005a14:	3b01      	subs	r3, #1
10005a16:	6023      	str	r3, [r4, #0]
10005a18:	682b      	ldr	r3, [r5, #0]
10005a1a:	b10b      	cbz	r3, 10005a20 <prvCheckTasksWaitingTermination+0x78>
10005a1c:	f7ff fe4c 	bl	100056b8 <vTaskExitCritical.part.0>
10005a20:	f8d9 0034 	ldr.w	r0, [r9, #52]	; 0x34
10005a24:	f002 f818 	bl	10007a58 <vPortFree>
10005a28:	4648      	mov	r0, r9
10005a2a:	f002 f815 	bl	10007a58 <vPortFree>
10005a2e:	6823      	ldr	r3, [r4, #0]
10005a30:	2b00      	cmp	r3, #0
10005a32:	d1c4      	bne.n	100059be <prvCheckTasksWaitingTermination+0x16>
10005a34:	e8bd 83f8 	ldmia.w	sp!, {r3, r4, r5, r6, r7, r8, r9, pc}
10005a38:	682b      	ldr	r3, [r5, #0]
10005a3a:	2b00      	cmp	r3, #0
10005a3c:	d0bc      	beq.n	100059b8 <prvCheckTasksWaitingTermination+0x10>
10005a3e:	f7ff fe3b 	bl	100056b8 <vTaskExitCritical.part.0>
10005a42:	6823      	ldr	r3, [r4, #0]
10005a44:	2b00      	cmp	r3, #0
10005a46:	d1ba      	bne.n	100059be <prvCheckTasksWaitingTermination+0x16>
10005a48:	e7f4      	b.n	10005a34 <prvCheckTasksWaitingTermination+0x8c>
10005a4a:	f8d8 3000 	ldr.w	r3, [r8]
10005a4e:	2b00      	cmp	r3, #0
10005a50:	d1cc      	bne.n	100059ec <prvCheckTasksWaitingTermination+0x44>
10005a52:	f7ff fe77 	bl	10005744 <prvCheckForRunStateChange>
10005a56:	e7c9      	b.n	100059ec <prvCheckTasksWaitingTermination+0x44>
10005a58:	e8d7 2fcf 	ldaexb	r2, [r7]
10005a5c:	2101      	movs	r1, #1
10005a5e:	2a00      	cmp	r2, #0
10005a60:	d101      	bne.n	10005a66 <prvCheckTasksWaitingTermination+0xbe>
10005a62:	e8c7 1f42 	strexb	r2, r1, [r7]
10005a66:	f3bf 8f5f 	dmb	sy
10005a6a:	2a00      	cmp	r2, #0
10005a6c:	d135      	bne.n	10005ada <prvCheckTasksWaitingTermination+0x132>
10005a6e:	4a34      	ldr	r2, [pc, #208]	; (10005b40 <prvCheckTasksWaitingTermination+0x198>)
10005a70:	0059      	lsls	r1, r3, #1
10005a72:	2301      	movs	r3, #1
10005a74:	4833      	ldr	r0, [pc, #204]	; (10005b44 <prvCheckTasksWaitingTermination+0x19c>)
10005a76:	4411      	add	r1, r2
10005a78:	7043      	strb	r3, [r0, #1]
10005a7a:	704b      	strb	r3, [r1, #1]
10005a7c:	f04f 4c50 	mov.w	ip, #3489660928	; 0xd0000000
10005a80:	4b31      	ldr	r3, [pc, #196]	; (10005b48 <prvCheckTasksWaitingTermination+0x1a0>)
10005a82:	f8dc 1000 	ldr.w	r1, [ip]
10005a86:	e8d3 efcf 	ldaexb	lr, [r3]
10005a8a:	f05f 0901 	movs.w	r9, #1
10005a8e:	f1be 0f00 	cmp.w	lr, #0
10005a92:	d101      	bne.n	10005a98 <prvCheckTasksWaitingTermination+0xf0>
10005a94:	e8c3 9f4e 	strexb	lr, r9, [r3]
10005a98:	f3bf 8f5f 	dmb	sy
10005a9c:	f1be 0f00 	cmp.w	lr, #0
10005aa0:	d012      	beq.n	10005ac8 <prvCheckTasksWaitingTermination+0x120>
10005aa2:	f812 e011 	ldrb.w	lr, [r2, r1, lsl #1]
10005aa6:	f1be 0f00 	cmp.w	lr, #0
10005aaa:	d128      	bne.n	10005afe <prvCheckTasksWaitingTermination+0x156>
10005aac:	e8d3 efcf 	ldaexb	lr, [r3]
10005ab0:	f05f 0c01 	movs.w	ip, #1
10005ab4:	f1be 0f00 	cmp.w	lr, #0
10005ab8:	d1f8      	bne.n	10005aac <prvCheckTasksWaitingTermination+0x104>
10005aba:	e8c3 cf4e 	strexb	lr, ip, [r3]
10005abe:	f1be 0f00 	cmp.w	lr, #0
10005ac2:	d1f3      	bne.n	10005aac <prvCheckTasksWaitingTermination+0x104>
10005ac4:	f3bf 8f5f 	dmb	sy
10005ac8:	2301      	movs	r3, #1
10005aca:	f04f 4c50 	mov.w	ip, #3489660928	; 0xd0000000
10005ace:	7003      	strb	r3, [r0, #0]
10005ad0:	f802 3011 	strb.w	r3, [r2, r1, lsl #1]
10005ad4:	f8dc 3000 	ldr.w	r3, [ip]
10005ad8:	e77c      	b.n	100059d4 <prvCheckTasksWaitingTermination+0x2c>
10005ada:	4a19      	ldr	r2, [pc, #100]	; (10005b40 <prvCheckTasksWaitingTermination+0x198>)
10005adc:	0059      	lsls	r1, r3, #1
10005ade:	eb02 0343 	add.w	r3, r2, r3, lsl #1
10005ae2:	785b      	ldrb	r3, [r3, #1]
10005ae4:	b993      	cbnz	r3, 10005b0c <prvCheckTasksWaitingTermination+0x164>
10005ae6:	e8d7 0fcf 	ldaexb	r0, [r7]
10005aea:	2301      	movs	r3, #1
10005aec:	2800      	cmp	r0, #0
10005aee:	d1fa      	bne.n	10005ae6 <prvCheckTasksWaitingTermination+0x13e>
10005af0:	e8c7 3f40 	strexb	r0, r3, [r7]
10005af4:	2800      	cmp	r0, #0
10005af6:	d1f6      	bne.n	10005ae6 <prvCheckTasksWaitingTermination+0x13e>
10005af8:	f3bf 8f5f 	dmb	sy
10005afc:	e7b9      	b.n	10005a72 <prvCheckTasksWaitingTermination+0xca>
10005afe:	7803      	ldrb	r3, [r0, #0]
10005b00:	3301      	adds	r3, #1
10005b02:	b2db      	uxtb	r3, r3
10005b04:	7003      	strb	r3, [r0, #0]
10005b06:	f8dc 3000 	ldr.w	r3, [ip]
10005b0a:	e763      	b.n	100059d4 <prvCheckTasksWaitingTermination+0x2c>
10005b0c:	480d      	ldr	r0, [pc, #52]	; (10005b44 <prvCheckTasksWaitingTermination+0x19c>)
10005b0e:	7843      	ldrb	r3, [r0, #1]
10005b10:	3301      	adds	r3, #1
10005b12:	b2db      	uxtb	r3, r3
10005b14:	7043      	strb	r3, [r0, #1]
10005b16:	e7b1      	b.n	10005a7c <prvCheckTasksWaitingTermination+0xd4>
10005b18:	682b      	ldr	r3, [r5, #0]
10005b1a:	2b00      	cmp	r3, #0
10005b1c:	d08a      	beq.n	10005a34 <prvCheckTasksWaitingTermination+0x8c>
10005b1e:	e8bd 43f8 	ldmia.w	sp!, {r3, r4, r5, r6, r7, r8, r9, lr}
10005b22:	f7ff bdc9 	b.w	100056b8 <vTaskExitCritical.part.0>
10005b26:	bf00      	nop
10005b28:	200221ac 	.word	0x200221ac
10005b2c:	20022254 	.word	0x20022254
10005b30:	20022188 	.word	0x20022188
10005b34:	20001617 	.word	0x20001617
10005b38:	20022274 	.word	0x20022274
10005b3c:	200221a8 	.word	0x200221a8
10005b40:	20022180 	.word	0x20022180
10005b44:	20022184 	.word	0x20022184
10005b48:	20001616 	.word	0x20001616
10005b4c:	200221b0 	.word	0x200221b0

10005b50 <prvIdleTask>:
10005b50:	b508      	push	{r3, lr}
10005b52:	f7fe fdf9 	bl	10004748 <vPortYield>
10005b56:	4c04      	ldr	r4, [pc, #16]	; (10005b68 <prvIdleTask+0x18>)
10005b58:	f7ff ff26 	bl	100059a8 <prvCheckTasksWaitingTermination>
10005b5c:	6823      	ldr	r3, [r4, #0]
10005b5e:	2b02      	cmp	r3, #2
10005b60:	d9fa      	bls.n	10005b58 <prvIdleTask+0x8>
10005b62:	f7fe fdf1 	bl	10004748 <vPortYield>
10005b66:	e7f7      	b.n	10005b58 <prvIdleTask+0x8>
10005b68:	20001ee4 	.word	0x20001ee4

10005b6c <prvAddCurrentTaskToDelayedList>:
10005b6c:	e92d 4ff8 	stmdb	sp!, {r3, r4, r5, r6, r7, r8, r9, sl, fp, lr}
10005b70:	f04f 4550 	mov.w	r5, #3489660928	; 0xd0000000
10005b74:	4a46      	ldr	r2, [pc, #280]	; (10005c90 <prvAddCurrentTaskToDelayedList+0x124>)
10005b76:	4b47      	ldr	r3, [pc, #284]	; (10005c94 <prvAddCurrentTaskToDelayedList+0x128>)
10005b78:	4c47      	ldr	r4, [pc, #284]	; (10005c98 <prvAddCurrentTaskToDelayedList+0x12c>)
10005b7a:	460f      	mov	r7, r1
10005b7c:	f8d4 a000 	ldr.w	sl, [r4]
10005b80:	4e46      	ldr	r6, [pc, #280]	; (10005c9c <prvAddCurrentTaskToDelayedList+0x130>)
10005b82:	f8d2 8000 	ldr.w	r8, [r2]
10005b86:	4604      	mov	r4, r0
10005b88:	f8d3 9000 	ldr.w	r9, [r3]
10005b8c:	f7fe ff7c 	bl	10004a88 <ulSetInterruptMask>
10005b90:	682b      	ldr	r3, [r5, #0]
10005b92:	f856 b023 	ldr.w	fp, [r6, r3, lsl #2]
10005b96:	f7fe ff83 	bl	10004aa0 <vClearInterruptMask>
10005b9a:	2300      	movs	r3, #0
10005b9c:	f88b 3079 	strb.w	r3, [fp, #121]	; 0x79
10005ba0:	f7fe ff72 	bl	10004a88 <ulSetInterruptMask>
10005ba4:	682b      	ldr	r3, [r5, #0]
10005ba6:	f856 b023 	ldr.w	fp, [r6, r3, lsl #2]
10005baa:	f7fe ff79 	bl	10004aa0 <vClearInterruptMask>
10005bae:	f10b 0008 	add.w	r0, fp, #8
10005bb2:	f7ff f8e9 	bl	10004d88 <uxListRemove>
10005bb6:	1c63      	adds	r3, r4, #1
10005bb8:	d100      	bne.n	10005bbc <prvAddCurrentTaskToDelayedList+0x50>
10005bba:	bb8f      	cbnz	r7, 10005c20 <prvAddCurrentTaskToDelayedList+0xb4>
10005bbc:	f04f 4550 	mov.w	r5, #3489660928	; 0xd0000000
10005bc0:	eb1a 0404 	adds.w	r4, sl, r4
10005bc4:	bf2c      	ite	cs
10005bc6:	2701      	movcs	r7, #1
10005bc8:	2700      	movcc	r7, #0
10005bca:	f7fe ff5d 	bl	10004a88 <ulSetInterruptMask>
10005bce:	682b      	ldr	r3, [r5, #0]
10005bd0:	f856 a023 	ldr.w	sl, [r6, r3, lsl #2]
10005bd4:	f7fe ff64 	bl	10004aa0 <vClearInterruptMask>
10005bd8:	f8ca 4008 	str.w	r4, [sl, #8]
10005bdc:	b997      	cbnz	r7, 10005c04 <prvAddCurrentTaskToDelayedList+0x98>
10005bde:	f7fe ff53 	bl	10004a88 <ulSetInterruptMask>
10005be2:	682b      	ldr	r3, [r5, #0]
10005be4:	f856 5023 	ldr.w	r5, [r6, r3, lsl #2]
10005be8:	f7fe ff5a 	bl	10004aa0 <vClearInterruptMask>
10005bec:	4640      	mov	r0, r8
10005bee:	f105 0108 	add.w	r1, r5, #8
10005bf2:	f7ff f8b1 	bl	10004d58 <vListInsert>
10005bf6:	4b2a      	ldr	r3, [pc, #168]	; (10005ca0 <prvAddCurrentTaskToDelayedList+0x134>)
10005bf8:	681a      	ldr	r2, [r3, #0]
10005bfa:	42a2      	cmp	r2, r4
10005bfc:	bf88      	it	hi
10005bfe:	601c      	strhi	r4, [r3, #0]
10005c00:	e8bd 8ff8 	ldmia.w	sp!, {r3, r4, r5, r6, r7, r8, r9, sl, fp, pc}
10005c04:	f7fe ff40 	bl	10004a88 <ulSetInterruptMask>
10005c08:	682b      	ldr	r3, [r5, #0]
10005c0a:	f856 4023 	ldr.w	r4, [r6, r3, lsl #2]
10005c0e:	f7fe ff47 	bl	10004aa0 <vClearInterruptMask>
10005c12:	4648      	mov	r0, r9
10005c14:	f104 0108 	add.w	r1, r4, #8
10005c18:	e8bd 4ff8 	ldmia.w	sp!, {r3, r4, r5, r6, r7, r8, r9, sl, fp, lr}
10005c1c:	f7ff b89c 	b.w	10004d58 <vListInsert>
10005c20:	4c20      	ldr	r4, [pc, #128]	; (10005ca4 <prvAddCurrentTaskToDelayedList+0x138>)
10005c22:	6867      	ldr	r7, [r4, #4]
10005c24:	f7fe ff30 	bl	10004a88 <ulSetInterruptMask>
10005c28:	682b      	ldr	r3, [r5, #0]
10005c2a:	f856 8023 	ldr.w	r8, [r6, r3, lsl #2]
10005c2e:	f7fe ff37 	bl	10004aa0 <vClearInterruptMask>
10005c32:	f8c8 700c 	str.w	r7, [r8, #12]
10005c36:	f7fe ff27 	bl	10004a88 <ulSetInterruptMask>
10005c3a:	682b      	ldr	r3, [r5, #0]
10005c3c:	f856 8023 	ldr.w	r8, [r6, r3, lsl #2]
10005c40:	f7fe ff2e 	bl	10004aa0 <vClearInterruptMask>
10005c44:	68bb      	ldr	r3, [r7, #8]
10005c46:	f8c8 3010 	str.w	r3, [r8, #16]
10005c4a:	f7fe ff1d 	bl	10004a88 <ulSetInterruptMask>
10005c4e:	682b      	ldr	r3, [r5, #0]
10005c50:	f856 8023 	ldr.w	r8, [r6, r3, lsl #2]
10005c54:	f7fe ff24 	bl	10004aa0 <vClearInterruptMask>
10005c58:	68ba      	ldr	r2, [r7, #8]
10005c5a:	f108 0308 	add.w	r3, r8, #8
10005c5e:	6053      	str	r3, [r2, #4]
10005c60:	f7fe ff12 	bl	10004a88 <ulSetInterruptMask>
10005c64:	682b      	ldr	r3, [r5, #0]
10005c66:	f856 8023 	ldr.w	r8, [r6, r3, lsl #2]
10005c6a:	f7fe ff19 	bl	10004aa0 <vClearInterruptMask>
10005c6e:	f108 0308 	add.w	r3, r8, #8
10005c72:	60bb      	str	r3, [r7, #8]
10005c74:	f7fe ff08 	bl	10004a88 <ulSetInterruptMask>
10005c78:	682b      	ldr	r3, [r5, #0]
10005c7a:	f856 5023 	ldr.w	r5, [r6, r3, lsl #2]
10005c7e:	f7fe ff0f 	bl	10004aa0 <vClearInterruptMask>
10005c82:	6823      	ldr	r3, [r4, #0]
10005c84:	61ac      	str	r4, [r5, #24]
10005c86:	3301      	adds	r3, #1
10005c88:	6023      	str	r3, [r4, #0]
10005c8a:	e8bd 8ff8 	ldmia.w	sp!, {r3, r4, r5, r6, r7, r8, r9, sl, fp, pc}
10005c8e:	bf00      	nop
10005c90:	20001ed4 	.word	0x20001ed4
10005c94:	20001edc 	.word	0x20001edc
10005c98:	20022288 	.word	0x20022288
10005c9c:	20001ec8 	.word	0x20001ec8
10005ca0:	2002222c 	.word	0x2002222c
10005ca4:	20022260 	.word	0x20022260

10005ca8 <vTaskSuspendAll>:
10005ca8:	4b02      	ldr	r3, [pc, #8]	; (10005cb4 <vTaskSuspendAll+0xc>)
10005caa:	681b      	ldr	r3, [r3, #0]
10005cac:	b903      	cbnz	r3, 10005cb0 <vTaskSuspendAll+0x8>
10005cae:	4770      	bx	lr
10005cb0:	f7ff bdf8 	b.w	100058a4 <vTaskSuspendAll.part.0>
10005cb4:	20022254 	.word	0x20022254

10005cb8 <xTaskGetTickCount>:
10005cb8:	4b01      	ldr	r3, [pc, #4]	; (10005cc0 <xTaskGetTickCount+0x8>)
10005cba:	6818      	ldr	r0, [r3, #0]
10005cbc:	4770      	bx	lr
10005cbe:	bf00      	nop
10005cc0:	20022288 	.word	0x20022288

10005cc4 <xTaskGetTickCountFromISR>:
10005cc4:	b508      	push	{r3, lr}
10005cc6:	f7fe fdc7 	bl	10004858 <vPortValidateInterruptPriority>
10005cca:	4b01      	ldr	r3, [pc, #4]	; (10005cd0 <xTaskGetTickCountFromISR+0xc>)
10005ccc:	6818      	ldr	r0, [r3, #0]
10005cce:	bd08      	pop	{r3, pc}
10005cd0:	20022288 	.word	0x20022288

10005cd4 <uxTaskGetNumberOfTasks>:
10005cd4:	4b01      	ldr	r3, [pc, #4]	; (10005cdc <uxTaskGetNumberOfTasks+0x8>)
10005cd6:	6818      	ldr	r0, [r3, #0]
10005cd8:	4770      	bx	lr
10005cda:	bf00      	nop
10005cdc:	200221a8 	.word	0x200221a8

10005ce0 <xTaskIncrementTick>:
10005ce0:	e92d 4ff8 	stmdb	sp!, {r3, r4, r5, r6, r7, r8, r9, sl, fp, lr}
10005ce4:	4b91      	ldr	r3, [pc, #580]	; (10005f2c <xTaskIncrementTick+0x24c>)
10005ce6:	681b      	ldr	r3, [r3, #0]
10005ce8:	2b00      	cmp	r3, #0
10005cea:	d14e      	bne.n	10005d8a <xTaskIncrementTick+0xaa>
10005cec:	4b90      	ldr	r3, [pc, #576]	; (10005f30 <xTaskIncrementTick+0x250>)
10005cee:	681d      	ldr	r5, [r3, #0]
10005cf0:	3501      	adds	r5, #1
10005cf2:	601d      	str	r5, [r3, #0]
10005cf4:	2d00      	cmp	r5, #0
10005cf6:	d050      	beq.n	10005d9a <xTaskIncrementTick+0xba>
10005cf8:	f8df 9254 	ldr.w	r9, [pc, #596]	; 10005f50 <xTaskIncrementTick+0x270>
10005cfc:	f8d9 3000 	ldr.w	r3, [r9]
10005d00:	42ab      	cmp	r3, r5
10005d02:	d963      	bls.n	10005dcc <xTaskIncrementTick+0xec>
10005d04:	4c8b      	ldr	r4, [pc, #556]	; (10005f34 <xTaskIncrementTick+0x254>)
10005d06:	4d8c      	ldr	r5, [pc, #560]	; (10005f38 <xTaskIncrementTick+0x258>)
10005d08:	682b      	ldr	r3, [r5, #0]
10005d0a:	6b1b      	ldr	r3, [r3, #48]	; 0x30
10005d0c:	eb03 0383 	add.w	r3, r3, r3, lsl #2
10005d10:	f854 3023 	ldr.w	r3, [r4, r3, lsl #2]
10005d14:	2b01      	cmp	r3, #1
10005d16:	f240 80c1 	bls.w	10005e9c <xTaskIncrementTick+0x1bc>
10005d1a:	686b      	ldr	r3, [r5, #4]
10005d1c:	6b1b      	ldr	r3, [r3, #48]	; 0x30
10005d1e:	eb03 0383 	add.w	r3, r3, r3, lsl #2
10005d22:	f854 3023 	ldr.w	r3, [r4, r3, lsl #2]
10005d26:	2b01      	cmp	r3, #1
10005d28:	f04f 4350 	mov.w	r3, #3489660928	; 0xd0000000
10005d2c:	f240 80d1 	bls.w	10005ed2 <xTaskIncrementTick+0x1f2>
10005d30:	681b      	ldr	r3, [r3, #0]
10005d32:	2401      	movs	r4, #1
10005d34:	461e      	mov	r6, r3
10005d36:	2e00      	cmp	r6, #0
10005d38:	f000 80f4 	beq.w	10005f24 <xTaskIncrementTick+0x244>
10005d3c:	2b00      	cmp	r3, #0
10005d3e:	f000 80da 	beq.w	10005ef6 <xTaskIncrementTick+0x216>
10005d42:	682b      	ldr	r3, [r5, #0]
10005d44:	6b9b      	ldr	r3, [r3, #56]	; 0x38
10005d46:	3302      	adds	r3, #2
10005d48:	d006      	beq.n	10005d58 <xTaskIncrementTick+0x78>
10005d4a:	2000      	movs	r0, #0
10005d4c:	f7fe fe6c 	bl	10004a28 <vYieldCore>
10005d50:	f06f 0201 	mvn.w	r2, #1
10005d54:	682b      	ldr	r3, [r5, #0]
10005d56:	639a      	str	r2, [r3, #56]	; 0x38
10005d58:	2c00      	cmp	r4, #0
10005d5a:	f000 80d1 	beq.w	10005f00 <xTaskIncrementTick+0x220>
10005d5e:	2400      	movs	r4, #0
10005d60:	2e01      	cmp	r6, #1
10005d62:	f000 80dd 	beq.w	10005f20 <xTaskIncrementTick+0x240>
10005d66:	f04f 4350 	mov.w	r3, #3489660928	; 0xd0000000
10005d6a:	681b      	ldr	r3, [r3, #0]
10005d6c:	2b01      	cmp	r3, #1
10005d6e:	f000 80d2 	beq.w	10005f16 <xTaskIncrementTick+0x236>
10005d72:	686b      	ldr	r3, [r5, #4]
10005d74:	6b9b      	ldr	r3, [r3, #56]	; 0x38
10005d76:	3302      	adds	r3, #2
10005d78:	d00c      	beq.n	10005d94 <xTaskIncrementTick+0xb4>
10005d7a:	2001      	movs	r0, #1
10005d7c:	f7fe fe54 	bl	10004a28 <vYieldCore>
10005d80:	f06f 0201 	mvn.w	r2, #1
10005d84:	686b      	ldr	r3, [r5, #4]
10005d86:	639a      	str	r2, [r3, #56]	; 0x38
10005d88:	e004      	b.n	10005d94 <xTaskIncrementTick+0xb4>
10005d8a:	2400      	movs	r4, #0
10005d8c:	4a6b      	ldr	r2, [pc, #428]	; (10005f3c <xTaskIncrementTick+0x25c>)
10005d8e:	6813      	ldr	r3, [r2, #0]
10005d90:	3301      	adds	r3, #1
10005d92:	6013      	str	r3, [r2, #0]
10005d94:	4620      	mov	r0, r4
10005d96:	e8bd 8ff8 	ldmia.w	sp!, {r3, r4, r5, r6, r7, r8, r9, sl, fp, pc}
10005d9a:	4b69      	ldr	r3, [pc, #420]	; (10005f40 <xTaskIncrementTick+0x260>)
10005d9c:	4a69      	ldr	r2, [pc, #420]	; (10005f44 <xTaskIncrementTick+0x264>)
10005d9e:	6818      	ldr	r0, [r3, #0]
10005da0:	6811      	ldr	r1, [r2, #0]
10005da2:	6019      	str	r1, [r3, #0]
10005da4:	4968      	ldr	r1, [pc, #416]	; (10005f48 <xTaskIncrementTick+0x268>)
10005da6:	6010      	str	r0, [r2, #0]
10005da8:	680a      	ldr	r2, [r1, #0]
10005daa:	3201      	adds	r2, #1
10005dac:	600a      	str	r2, [r1, #0]
10005dae:	681a      	ldr	r2, [r3, #0]
10005db0:	6812      	ldr	r2, [r2, #0]
10005db2:	2a00      	cmp	r2, #0
10005db4:	f040 8085 	bne.w	10005ec2 <xTaskIncrementTick+0x1e2>
10005db8:	f04f 33ff 	mov.w	r3, #4294967295	; 0xffffffff
10005dbc:	f8df 9190 	ldr.w	r9, [pc, #400]	; 10005f50 <xTaskIncrementTick+0x270>
10005dc0:	f8c9 3000 	str.w	r3, [r9]
10005dc4:	f8d9 3000 	ldr.w	r3, [r9]
10005dc8:	42ab      	cmp	r3, r5
10005dca:	d89b      	bhi.n	10005d04 <xTaskIncrementTick+0x24>
10005dcc:	4e5c      	ldr	r6, [pc, #368]	; (10005f40 <xTaskIncrementTick+0x260>)
10005dce:	6833      	ldr	r3, [r6, #0]
10005dd0:	681b      	ldr	r3, [r3, #0]
10005dd2:	2b00      	cmp	r3, #0
10005dd4:	f000 8099 	beq.w	10005f0a <xTaskIncrementTick+0x22a>
10005dd8:	f04f 0b00 	mov.w	fp, #0
10005ddc:	4c55      	ldr	r4, [pc, #340]	; (10005f34 <xTaskIncrementTick+0x254>)
10005dde:	f8df 8174 	ldr.w	r8, [pc, #372]	; 10005f54 <xTaskIncrementTick+0x274>
10005de2:	e04e      	b.n	10005e82 <xTaskIncrementTick+0x1a2>
10005de4:	f8d2 c018 	ldr.w	ip, [r2, #24]
10005de8:	e9d2 3a03 	ldrd	r3, sl, [r2, #12]
10005dec:	f8c3 a008 	str.w	sl, [r3, #8]
10005df0:	f8ca 3004 	str.w	r3, [sl, #4]
10005df4:	f8dc 3004 	ldr.w	r3, [ip, #4]
10005df8:	4610      	mov	r0, r2
10005dfa:	428b      	cmp	r3, r1
10005dfc:	f8dc 3000 	ldr.w	r3, [ip]
10005e00:	bf08      	it	eq
10005e02:	f8cc a004 	streq.w	sl, [ip, #4]
10005e06:	3b01      	subs	r3, #1
10005e08:	f8c2 b018 	str.w	fp, [r2, #24]
10005e0c:	f8cc 3000 	str.w	r3, [ip]
10005e10:	f8d2 c02c 	ldr.w	ip, [r2, #44]	; 0x2c
10005e14:	f1bc 0f00 	cmp.w	ip, #0
10005e18:	d013      	beq.n	10005e42 <xTaskIncrementTick+0x162>
10005e1a:	e9d2 a308 	ldrd	sl, r3, [r2, #32]
10005e1e:	f8dc 7004 	ldr.w	r7, [ip, #4]
10005e22:	f8ca 3008 	str.w	r3, [sl, #8]
10005e26:	6a53      	ldr	r3, [r2, #36]	; 0x24
10005e28:	4577      	cmp	r7, lr
10005e2a:	f8c3 a004 	str.w	sl, [r3, #4]
10005e2e:	bf08      	it	eq
10005e30:	f8cc 3004 	streq.w	r3, [ip, #4]
10005e34:	f8dc 3000 	ldr.w	r3, [ip]
10005e38:	f8c2 b02c 	str.w	fp, [r2, #44]	; 0x2c
10005e3c:	3b01      	subs	r3, #1
10005e3e:	f8cc 3000 	str.w	r3, [ip]
10005e42:	6b13      	ldr	r3, [r2, #48]	; 0x30
10005e44:	f8d8 c000 	ldr.w	ip, [r8]
10005e48:	eb03 0e83 	add.w	lr, r3, r3, lsl #2
10005e4c:	4563      	cmp	r3, ip
10005e4e:	eb04 0a8e 	add.w	sl, r4, lr, lsl #2
10005e52:	bf88      	it	hi
10005e54:	f8c8 3000 	strhi.w	r3, [r8]
10005e58:	f8da 3004 	ldr.w	r3, [sl, #4]
10005e5c:	689f      	ldr	r7, [r3, #8]
10005e5e:	60d3      	str	r3, [r2, #12]
10005e60:	6117      	str	r7, [r2, #16]
10005e62:	689f      	ldr	r7, [r3, #8]
10005e64:	6079      	str	r1, [r7, #4]
10005e66:	6099      	str	r1, [r3, #8]
10005e68:	f854 302e 	ldr.w	r3, [r4, lr, lsl #2]
10005e6c:	f8c2 a018 	str.w	sl, [r2, #24]
10005e70:	3301      	adds	r3, #1
10005e72:	f844 302e 	str.w	r3, [r4, lr, lsl #2]
10005e76:	f7ff fbb9 	bl	100055ec <prvYieldForTask>
10005e7a:	6833      	ldr	r3, [r6, #0]
10005e7c:	681b      	ldr	r3, [r3, #0]
10005e7e:	2b00      	cmp	r3, #0
10005e80:	d044      	beq.n	10005f0c <xTaskIncrementTick+0x22c>
10005e82:	6833      	ldr	r3, [r6, #0]
10005e84:	68db      	ldr	r3, [r3, #12]
10005e86:	68da      	ldr	r2, [r3, #12]
10005e88:	6893      	ldr	r3, [r2, #8]
10005e8a:	f102 0108 	add.w	r1, r2, #8
10005e8e:	429d      	cmp	r5, r3
10005e90:	f102 0e1c 	add.w	lr, r2, #28
10005e94:	d2a6      	bcs.n	10005de4 <xTaskIncrementTick+0x104>
10005e96:	f8c9 3000 	str.w	r3, [r9]
10005e9a:	e734      	b.n	10005d06 <xTaskIncrementTick+0x26>
10005e9c:	686b      	ldr	r3, [r5, #4]
10005e9e:	6b1b      	ldr	r3, [r3, #48]	; 0x30
10005ea0:	eb03 0383 	add.w	r3, r3, r3, lsl #2
10005ea4:	f854 3023 	ldr.w	r3, [r4, r3, lsl #2]
10005ea8:	2b01      	cmp	r3, #1
10005eaa:	d916      	bls.n	10005eda <xTaskIncrementTick+0x1fa>
10005eac:	f04f 4350 	mov.w	r3, #3489660928	; 0xd0000000
10005eb0:	4a26      	ldr	r2, [pc, #152]	; (10005f4c <xTaskIncrementTick+0x26c>)
10005eb2:	681e      	ldr	r6, [r3, #0]
10005eb4:	6812      	ldr	r2, [r2, #0]
10005eb6:	4633      	mov	r3, r6
10005eb8:	2a00      	cmp	r2, #0
10005eba:	f43f af50 	beq.w	10005d5e <xTaskIncrementTick+0x7e>
10005ebe:	2401      	movs	r4, #1
10005ec0:	e739      	b.n	10005d36 <xTaskIncrementTick+0x56>
10005ec2:	681b      	ldr	r3, [r3, #0]
10005ec4:	f8df 9088 	ldr.w	r9, [pc, #136]	; 10005f50 <xTaskIncrementTick+0x270>
10005ec8:	68db      	ldr	r3, [r3, #12]
10005eca:	681b      	ldr	r3, [r3, #0]
10005ecc:	f8c9 3000 	str.w	r3, [r9]
10005ed0:	e714      	b.n	10005cfc <xTaskIncrementTick+0x1c>
10005ed2:	681b      	ldr	r3, [r3, #0]
10005ed4:	2400      	movs	r4, #0
10005ed6:	461e      	mov	r6, r3
10005ed8:	e72d      	b.n	10005d36 <xTaskIncrementTick+0x56>
10005eda:	f04f 4350 	mov.w	r3, #3489660928	; 0xd0000000
10005ede:	4a1b      	ldr	r2, [pc, #108]	; (10005f4c <xTaskIncrementTick+0x26c>)
10005ee0:	681b      	ldr	r3, [r3, #0]
10005ee2:	6814      	ldr	r4, [r2, #0]
10005ee4:	461e      	mov	r6, r3
10005ee6:	b9fc      	cbnz	r4, 10005f28 <xTaskIncrementTick+0x248>
10005ee8:	6853      	ldr	r3, [r2, #4]
10005eea:	2b00      	cmp	r3, #0
10005eec:	f47f af38 	bne.w	10005d60 <xTaskIncrementTick+0x80>
10005ef0:	4620      	mov	r0, r4
10005ef2:	e8bd 8ff8 	ldmia.w	sp!, {r3, r4, r5, r6, r7, r8, r9, sl, fp, pc}
10005ef6:	2101      	movs	r1, #1
10005ef8:	4a14      	ldr	r2, [pc, #80]	; (10005f4c <xTaskIncrementTick+0x26c>)
10005efa:	6011      	str	r1, [r2, #0]
10005efc:	b974      	cbnz	r4, 10005f1c <xTaskIncrementTick+0x23c>
10005efe:	461c      	mov	r4, r3
10005f00:	4a12      	ldr	r2, [pc, #72]	; (10005f4c <xTaskIncrementTick+0x26c>)
10005f02:	6853      	ldr	r3, [r2, #4]
10005f04:	2b00      	cmp	r3, #0
10005f06:	d0f3      	beq.n	10005ef0 <xTaskIncrementTick+0x210>
10005f08:	e72a      	b.n	10005d60 <xTaskIncrementTick+0x80>
10005f0a:	4c0a      	ldr	r4, [pc, #40]	; (10005f34 <xTaskIncrementTick+0x254>)
10005f0c:	f04f 33ff 	mov.w	r3, #4294967295	; 0xffffffff
10005f10:	f8c9 3000 	str.w	r3, [r9]
10005f14:	e6f7      	b.n	10005d06 <xTaskIncrementTick+0x26>
10005f16:	4a0d      	ldr	r2, [pc, #52]	; (10005f4c <xTaskIncrementTick+0x26c>)
10005f18:	6053      	str	r3, [r2, #4]
10005f1a:	e73b      	b.n	10005d94 <xTaskIncrementTick+0xb4>
10005f1c:	461c      	mov	r4, r3
10005f1e:	e722      	b.n	10005d66 <xTaskIncrementTick+0x86>
10005f20:	4634      	mov	r4, r6
10005f22:	e737      	b.n	10005d94 <xTaskIncrementTick+0xb4>
10005f24:	2301      	movs	r3, #1
10005f26:	e7e9      	b.n	10005efc <xTaskIncrementTick+0x21c>
10005f28:	2400      	movs	r4, #0
10005f2a:	e704      	b.n	10005d36 <xTaskIncrementTick+0x56>
10005f2c:	200221b0 	.word	0x200221b0
10005f30:	20022288 	.word	0x20022288
10005f34:	20001ee4 	.word	0x20001ee4
10005f38:	20001ec8 	.word	0x20001ec8
10005f3c:	2002223c 	.word	0x2002223c
10005f40:	20001ed4 	.word	0x20001ed4
10005f44:	20001edc 	.word	0x20001edc
10005f48:	20022230 	.word	0x20022230
10005f4c:	20022294 	.word	0x20022294
10005f50:	2002222c 	.word	0x2002222c
10005f54:	200221b8 	.word	0x200221b8

10005f58 <vTaskSwitchContext>:
10005f58:	e92d 4ff8 	stmdb	sp!, {r3, r4, r5, r6, r7, r8, r9, sl, fp, lr}
10005f5c:	f04f 4350 	mov.w	r3, #3489660928	; 0xd0000000
10005f60:	4605      	mov	r5, r0
10005f62:	f8df b2ac 	ldr.w	fp, [pc, #684]	; 10006210 <vTaskSwitchContext+0x2b8>
10005f66:	681a      	ldr	r2, [r3, #0]
10005f68:	e8db 3fcf 	ldaexb	r3, [fp]
10005f6c:	2101      	movs	r1, #1
10005f6e:	2b00      	cmp	r3, #0
10005f70:	d101      	bne.n	10005f76 <vTaskSwitchContext+0x1e>
10005f72:	e8cb 1f43 	strexb	r3, r1, [fp]
10005f76:	f3bf 8f5f 	dmb	sy
10005f7a:	f8df 9298 	ldr.w	r9, [pc, #664]	; 10006214 <vTaskSwitchContext+0x2bc>
10005f7e:	2b00      	cmp	r3, #0
10005f80:	d153      	bne.n	1000602a <vTaskSwitchContext+0xd2>
10005f82:	0053      	lsls	r3, r2, #1
10005f84:	2201      	movs	r2, #1
10005f86:	f8df 8290 	ldr.w	r8, [pc, #656]	; 10006218 <vTaskSwitchContext+0x2c0>
10005f8a:	444b      	add	r3, r9
10005f8c:	f888 2001 	strb.w	r2, [r8, #1]
10005f90:	705a      	strb	r2, [r3, #1]
10005f92:	f04f 4350 	mov.w	r3, #3489660928	; 0xd0000000
10005f96:	4899      	ldr	r0, [pc, #612]	; (100061fc <vTaskSwitchContext+0x2a4>)
10005f98:	681a      	ldr	r2, [r3, #0]
10005f9a:	e8d0 3fcf 	ldaexb	r3, [r0]
10005f9e:	2101      	movs	r1, #1
10005fa0:	2b00      	cmp	r3, #0
10005fa2:	d101      	bne.n	10005fa8 <vTaskSwitchContext+0x50>
10005fa4:	e8c0 1f43 	strexb	r3, r1, [r0]
10005fa8:	f3bf 8f5f 	dmb	sy
10005fac:	b183      	cbz	r3, 10005fd0 <vTaskSwitchContext+0x78>
10005fae:	f819 3012 	ldrb.w	r3, [r9, r2, lsl #1]
10005fb2:	2b00      	cmp	r3, #0
10005fb4:	f040 80b7 	bne.w	10006126 <vTaskSwitchContext+0x1ce>
10005fb8:	4890      	ldr	r0, [pc, #576]	; (100061fc <vTaskSwitchContext+0x2a4>)
10005fba:	e8d0 1fcf 	ldaexb	r1, [r0]
10005fbe:	2301      	movs	r3, #1
10005fc0:	2900      	cmp	r1, #0
10005fc2:	d1fa      	bne.n	10005fba <vTaskSwitchContext+0x62>
10005fc4:	e8c0 3f41 	strexb	r1, r3, [r0]
10005fc8:	2900      	cmp	r1, #0
10005fca:	d1f6      	bne.n	10005fba <vTaskSwitchContext+0x62>
10005fcc:	f3bf 8f5f 	dmb	sy
10005fd0:	2301      	movs	r3, #1
10005fd2:	f888 3000 	strb.w	r3, [r8]
10005fd6:	f809 3012 	strb.w	r3, [r9, r2, lsl #1]
10005fda:	4b89      	ldr	r3, [pc, #548]	; (10006200 <vTaskSwitchContext+0x2a8>)
10005fdc:	681b      	ldr	r3, [r3, #0]
10005fde:	2b00      	cmp	r3, #0
10005fe0:	d035      	beq.n	1000604e <vTaskSwitchContext+0xf6>
10005fe2:	2101      	movs	r1, #1
10005fe4:	f04f 4350 	mov.w	r3, #3489660928	; 0xd0000000
10005fe8:	4a86      	ldr	r2, [pc, #536]	; (10006204 <vTaskSwitchContext+0x2ac>)
10005fea:	f842 1025 	str.w	r1, [r2, r5, lsl #2]
10005fee:	681a      	ldr	r2, [r3, #0]
10005ff0:	f898 3000 	ldrb.w	r3, [r8]
10005ff4:	3b01      	subs	r3, #1
10005ff6:	b2db      	uxtb	r3, r3
10005ff8:	f888 3000 	strb.w	r3, [r8]
10005ffc:	b923      	cbnz	r3, 10006008 <vTaskSwitchContext+0xb0>
10005ffe:	f809 3012 	strb.w	r3, [r9, r2, lsl #1]
10006002:	4a7e      	ldr	r2, [pc, #504]	; (100061fc <vTaskSwitchContext+0x2a4>)
10006004:	e8c2 3f8f 	stlb	r3, [r2]
10006008:	f04f 4250 	mov.w	r2, #3489660928	; 0xd0000000
1000600c:	f898 3001 	ldrb.w	r3, [r8, #1]
10006010:	6812      	ldr	r2, [r2, #0]
10006012:	3b01      	subs	r3, #1
10006014:	b2db      	uxtb	r3, r3
10006016:	f888 3001 	strb.w	r3, [r8, #1]
1000601a:	b923      	cbnz	r3, 10006026 <vTaskSwitchContext+0xce>
1000601c:	eb09 0242 	add.w	r2, r9, r2, lsl #1
10006020:	7053      	strb	r3, [r2, #1]
10006022:	e8cb 3f8f 	stlb	r3, [fp]
10006026:	e8bd 8ff8 	ldmia.w	sp!, {r3, r4, r5, r6, r7, r8, r9, sl, fp, pc}
1000602a:	0053      	lsls	r3, r2, #1
1000602c:	eb09 0242 	add.w	r2, r9, r2, lsl #1
10006030:	7852      	ldrb	r2, [r2, #1]
10006032:	2a00      	cmp	r2, #0
10006034:	d16e      	bne.n	10006114 <vTaskSwitchContext+0x1bc>
10006036:	e8db 1fcf 	ldaexb	r1, [fp]
1000603a:	2201      	movs	r2, #1
1000603c:	2900      	cmp	r1, #0
1000603e:	d1fa      	bne.n	10006036 <vTaskSwitchContext+0xde>
10006040:	e8cb 2f41 	strexb	r1, r2, [fp]
10006044:	2900      	cmp	r1, #0
10006046:	d1f6      	bne.n	10006036 <vTaskSwitchContext+0xde>
10006048:	f3bf 8f5f 	dmb	sy
1000604c:	e79a      	b.n	10005f84 <vTaskSwitchContext+0x2c>
1000604e:	4a6d      	ldr	r2, [pc, #436]	; (10006204 <vTaskSwitchContext+0x2ac>)
10006050:	4e6d      	ldr	r6, [pc, #436]	; (10006208 <vTaskSwitchContext+0x2b0>)
10006052:	f8df a1c8 	ldr.w	sl, [pc, #456]	; 1000621c <vTaskSwitchContext+0x2c4>
10006056:	f842 3025 	str.w	r3, [r2, r5, lsl #2]
1000605a:	f8da 7000 	ldr.w	r7, [sl]
1000605e:	f856 3025 	ldr.w	r3, [r6, r5, lsl #2]
10006062:	496a      	ldr	r1, [pc, #424]	; (1000620c <vTaskSwitchContext+0x2b4>)
10006064:	699a      	ldr	r2, [r3, #24]
10006066:	f856 3025 	ldr.w	r3, [r6, r5, lsl #2]
1000606a:	6b1b      	ldr	r3, [r3, #48]	; 0x30
1000606c:	eb03 0383 	add.w	r3, r3, r3, lsl #2
10006070:	eb01 0383 	add.w	r3, r1, r3, lsl #2
10006074:	429a      	cmp	r2, r3
10006076:	d05d      	beq.n	10006134 <vTaskSwitchContext+0x1dc>
10006078:	2001      	movs	r0, #1
1000607a:	4b64      	ldr	r3, [pc, #400]	; (1000620c <vTaskSwitchContext+0x2b4>)
1000607c:	eb07 0187 	add.w	r1, r7, r7, lsl #2
10006080:	eb03 0181 	add.w	r1, r3, r1, lsl #2
10006084:	680b      	ldr	r3, [r1, #0]
10006086:	4602      	mov	r2, r0
10006088:	3108      	adds	r1, #8
1000608a:	40a8      	lsls	r0, r5
1000608c:	b963      	cbnz	r3, 100060a8 <vTaskSwitchContext+0x150>
1000608e:	b122      	cbz	r2, 1000609a <vTaskSwitchContext+0x142>
10006090:	f8da 3000 	ldr.w	r3, [sl]
10006094:	3b01      	subs	r3, #1
10006096:	f8ca 3000 	str.w	r3, [sl]
1000609a:	b35f      	cbz	r7, 100060f4 <vTaskSwitchContext+0x19c>
1000609c:	f851 3c1c 	ldr.w	r3, [r1, #-28]
100060a0:	3914      	subs	r1, #20
100060a2:	3f01      	subs	r7, #1
100060a4:	2b00      	cmp	r3, #0
100060a6:	d0f2      	beq.n	1000608e <vTaskSwitchContext+0x136>
100060a8:	684b      	ldr	r3, [r1, #4]
100060aa:	428b      	cmp	r3, r1
100060ac:	bf18      	it	ne
100060ae:	46bc      	movne	ip, r7
100060b0:	d107      	bne.n	100060c2 <vTaskSwitchContext+0x16a>
100060b2:	e02b      	b.n	1000610c <vTaskSwitchContext+0x1b4>
100060b4:	f856 4025 	ldr.w	r4, [r6, r5, lsl #2]
100060b8:	42a2      	cmp	r2, r4
100060ba:	d021      	beq.n	10006100 <vTaskSwitchContext+0x1a8>
100060bc:	685b      	ldr	r3, [r3, #4]
100060be:	428b      	cmp	r3, r1
100060c0:	d023      	beq.n	1000610a <vTaskSwitchContext+0x1b2>
100060c2:	68da      	ldr	r2, [r3, #12]
100060c4:	6b94      	ldr	r4, [r2, #56]	; 0x38
100060c6:	1c67      	adds	r7, r4, #1
100060c8:	d1f4      	bne.n	100060b4 <vTaskSwitchContext+0x15c>
100060ca:	6857      	ldr	r7, [r2, #4]
100060cc:	4238      	tst	r0, r7
100060ce:	d0f5      	beq.n	100060bc <vTaskSwitchContext+0x164>
100060d0:	f856 3025 	ldr.w	r3, [r6, r5, lsl #2]
100060d4:	639c      	str	r4, [r3, #56]	; 0x38
100060d6:	f856 1025 	ldr.w	r1, [r6, r5, lsl #2]
100060da:	6395      	str	r5, [r2, #56]	; 0x38
100060dc:	f846 2025 	str.w	r2, [r6, r5, lsl #2]
100060e0:	b141      	cbz	r1, 100060f4 <vTaskSwitchContext+0x19c>
100060e2:	6b08      	ldr	r0, [r1, #48]	; 0x30
100060e4:	4f49      	ldr	r7, [pc, #292]	; (1000620c <vTaskSwitchContext+0x2b4>)
100060e6:	698b      	ldr	r3, [r1, #24]
100060e8:	eb00 0280 	add.w	r2, r0, r0, lsl #2
100060ec:	eb07 0282 	add.w	r2, r7, r2, lsl #2
100060f0:	4293      	cmp	r3, r2
100060f2:	d032      	beq.n	1000615a <vTaskSwitchContext+0x202>
100060f4:	f04f 4350 	mov.w	r3, #3489660928	; 0xd0000000
100060f8:	681a      	ldr	r2, [r3, #0]
100060fa:	f856 3022 	ldr.w	r3, [r6, r2, lsl #2]
100060fe:	e777      	b.n	10005ff0 <vTaskSwitchContext+0x98>
10006100:	6854      	ldr	r4, [r2, #4]
10006102:	4220      	tst	r0, r4
10006104:	d0da      	beq.n	100060bc <vTaskSwitchContext+0x164>
10006106:	6395      	str	r5, [r2, #56]	; 0x38
10006108:	e7f4      	b.n	100060f4 <vTaskSwitchContext+0x19c>
1000610a:	4667      	mov	r7, ip
1000610c:	2f00      	cmp	r7, #0
1000610e:	d0f1      	beq.n	100060f4 <vTaskSwitchContext+0x19c>
10006110:	2200      	movs	r2, #0
10006112:	e7c3      	b.n	1000609c <vTaskSwitchContext+0x144>
10006114:	f8df 8100 	ldr.w	r8, [pc, #256]	; 10006218 <vTaskSwitchContext+0x2c0>
10006118:	f898 3001 	ldrb.w	r3, [r8, #1]
1000611c:	3301      	adds	r3, #1
1000611e:	b2db      	uxtb	r3, r3
10006120:	f888 3001 	strb.w	r3, [r8, #1]
10006124:	e735      	b.n	10005f92 <vTaskSwitchContext+0x3a>
10006126:	f898 3000 	ldrb.w	r3, [r8]
1000612a:	3301      	adds	r3, #1
1000612c:	b2db      	uxtb	r3, r3
1000612e:	f888 3000 	strb.w	r3, [r8]
10006132:	e752      	b.n	10005fda <vTaskSwitchContext+0x82>
10006134:	f856 0025 	ldr.w	r0, [r6, r5, lsl #2]
10006138:	3008      	adds	r0, #8
1000613a:	f7fe fe25 	bl	10004d88 <uxListRemove>
1000613e:	f856 3025 	ldr.w	r3, [r6, r5, lsl #2]
10006142:	f856 1025 	ldr.w	r1, [r6, r5, lsl #2]
10006146:	6b18      	ldr	r0, [r3, #48]	; 0x30
10006148:	4b30      	ldr	r3, [pc, #192]	; (1000620c <vTaskSwitchContext+0x2b4>)
1000614a:	eb00 0080 	add.w	r0, r0, r0, lsl #2
1000614e:	eb03 0080 	add.w	r0, r3, r0, lsl #2
10006152:	3108      	adds	r1, #8
10006154:	f7fe fdf0 	bl	10004d38 <vListInsertEnd>
10006158:	e78e      	b.n	10006078 <vTaskSwitchContext+0x120>
1000615a:	6bca      	ldr	r2, [r1, #60]	; 0x3c
1000615c:	684b      	ldr	r3, [r1, #4]
1000615e:	07d1      	lsls	r1, r2, #31
10006160:	fa23 f205 	lsr.w	r2, r3, r5
10006164:	bf48      	it	mi
10006166:	f100 30ff 	addmi.w	r0, r0, #4294967295	; 0xffffffff
1000616a:	07d2      	lsls	r2, r2, #31
1000616c:	d504      	bpl.n	10006178 <vTaskSwitchContext+0x220>
1000616e:	f856 2025 	ldr.w	r2, [r6, r5, lsl #2]
10006172:	6852      	ldr	r2, [r2, #4]
10006174:	ea23 0302 	bic.w	r3, r3, r2
10006178:	079f      	lsls	r7, r3, #30
1000617a:	f003 0103 	and.w	r1, r3, #3
1000617e:	d512      	bpl.n	100061a6 <vTaskSwitchContext+0x24e>
10006180:	6872      	ldr	r2, [r6, #4]
10006182:	6871      	ldr	r1, [r6, #4]
10006184:	6b12      	ldr	r2, [r2, #48]	; 0x30
10006186:	6bc9      	ldr	r1, [r1, #60]	; 0x3c
10006188:	07cd      	lsls	r5, r1, #31
1000618a:	d500      	bpl.n	1000618e <vTaskSwitchContext+0x236>
1000618c:	3a01      	subs	r2, #1
1000618e:	4282      	cmp	r2, r0
10006190:	f003 0101 	and.w	r1, r3, #1
10006194:	da07      	bge.n	100061a6 <vTaskSwitchContext+0x24e>
10006196:	6873      	ldr	r3, [r6, #4]
10006198:	6b9b      	ldr	r3, [r3, #56]	; 0x38
1000619a:	2b00      	cmp	r3, #0
1000619c:	db03      	blt.n	100061a6 <vTaskSwitchContext+0x24e>
1000619e:	6873      	ldr	r3, [r6, #4]
100061a0:	6b9b      	ldr	r3, [r3, #56]	; 0x38
100061a2:	2b01      	cmp	r3, #1
100061a4:	dd42      	ble.n	1000622c <vTaskSwitchContext+0x2d4>
100061a6:	07cb      	lsls	r3, r1, #31
100061a8:	d5a4      	bpl.n	100060f4 <vTaskSwitchContext+0x19c>
100061aa:	6833      	ldr	r3, [r6, #0]
100061ac:	6832      	ldr	r2, [r6, #0]
100061ae:	6b1b      	ldr	r3, [r3, #48]	; 0x30
100061b0:	6bd2      	ldr	r2, [r2, #60]	; 0x3c
100061b2:	07d1      	lsls	r1, r2, #31
100061b4:	bf48      	it	mi
100061b6:	f103 33ff 	addmi.w	r3, r3, #4294967295	; 0xffffffff
100061ba:	4283      	cmp	r3, r0
100061bc:	da07      	bge.n	100061ce <vTaskSwitchContext+0x276>
100061be:	6833      	ldr	r3, [r6, #0]
100061c0:	6b9b      	ldr	r3, [r3, #56]	; 0x38
100061c2:	2b00      	cmp	r3, #0
100061c4:	db03      	blt.n	100061ce <vTaskSwitchContext+0x276>
100061c6:	6833      	ldr	r3, [r6, #0]
100061c8:	6b9b      	ldr	r3, [r3, #56]	; 0x38
100061ca:	2b01      	cmp	r3, #1
100061cc:	dd35      	ble.n	1000623a <vTaskSwitchContext+0x2e2>
100061ce:	1c62      	adds	r2, r4, #1
100061d0:	d090      	beq.n	100060f4 <vTaskSwitchContext+0x19c>
100061d2:	f04f 4550 	mov.w	r5, #3489660928	; 0xd0000000
100061d6:	682a      	ldr	r2, [r5, #0]
100061d8:	42a2      	cmp	r2, r4
100061da:	d021      	beq.n	10006220 <vTaskSwitchContext+0x2c8>
100061dc:	f856 3024 	ldr.w	r3, [r6, r4, lsl #2]
100061e0:	6b9b      	ldr	r3, [r3, #56]	; 0x38
100061e2:	3302      	adds	r3, #2
100061e4:	d089      	beq.n	100060fa <vTaskSwitchContext+0x1a2>
100061e6:	4620      	mov	r0, r4
100061e8:	f7fe fc1e 	bl	10004a28 <vYieldCore>
100061ec:	f06f 0201 	mvn.w	r2, #1
100061f0:	f856 3024 	ldr.w	r3, [r6, r4, lsl #2]
100061f4:	639a      	str	r2, [r3, #56]	; 0x38
100061f6:	682a      	ldr	r2, [r5, #0]
100061f8:	e77f      	b.n	100060fa <vTaskSwitchContext+0x1a2>
100061fa:	bf00      	nop
100061fc:	20001616 	.word	0x20001616
10006200:	200221b0 	.word	0x200221b0
10006204:	20022294 	.word	0x20022294
10006208:	20001ec8 	.word	0x20001ec8
1000620c:	20001ee4 	.word	0x20001ee4
10006210:	20001617 	.word	0x20001617
10006214:	20022180 	.word	0x20022180
10006218:	20022184 	.word	0x20022184
1000621c:	200221b8 	.word	0x200221b8
10006220:	2301      	movs	r3, #1
10006222:	4a0a      	ldr	r2, [pc, #40]	; (1000624c <vTaskSwitchContext+0x2f4>)
10006224:	f842 3024 	str.w	r3, [r2, r4, lsl #2]
10006228:	682a      	ldr	r2, [r5, #0]
1000622a:	e766      	b.n	100060fa <vTaskSwitchContext+0x1a2>
1000622c:	4b07      	ldr	r3, [pc, #28]	; (1000624c <vTaskSwitchContext+0x2f4>)
1000622e:	685b      	ldr	r3, [r3, #4]
10006230:	2b00      	cmp	r3, #0
10006232:	d1b8      	bne.n	100061a6 <vTaskSwitchContext+0x24e>
10006234:	b939      	cbnz	r1, 10006246 <vTaskSwitchContext+0x2ee>
10006236:	2401      	movs	r4, #1
10006238:	e7cb      	b.n	100061d2 <vTaskSwitchContext+0x27a>
1000623a:	4b04      	ldr	r3, [pc, #16]	; (1000624c <vTaskSwitchContext+0x2f4>)
1000623c:	681b      	ldr	r3, [r3, #0]
1000623e:	2b00      	cmp	r3, #0
10006240:	d1c5      	bne.n	100061ce <vTaskSwitchContext+0x276>
10006242:	461c      	mov	r4, r3
10006244:	e7c5      	b.n	100061d2 <vTaskSwitchContext+0x27a>
10006246:	4610      	mov	r0, r2
10006248:	2401      	movs	r4, #1
1000624a:	e7ae      	b.n	100061aa <vTaskSwitchContext+0x252>
1000624c:	20022294 	.word	0x20022294

10006250 <vTaskPlaceOnEventList>:
10006250:	b570      	push	{r4, r5, r6, lr}
10006252:	460c      	mov	r4, r1
10006254:	4605      	mov	r5, r0
10006256:	f7fe fc17 	bl	10004a88 <ulSetInterruptMask>
1000625a:	f04f 4250 	mov.w	r2, #3489660928	; 0xd0000000
1000625e:	4b08      	ldr	r3, [pc, #32]	; (10006280 <vTaskPlaceOnEventList+0x30>)
10006260:	6812      	ldr	r2, [r2, #0]
10006262:	f853 6022 	ldr.w	r6, [r3, r2, lsl #2]
10006266:	f7fe fc1b 	bl	10004aa0 <vClearInterruptMask>
1000626a:	4628      	mov	r0, r5
1000626c:	f106 011c 	add.w	r1, r6, #28
10006270:	f7fe fd72 	bl	10004d58 <vListInsert>
10006274:	4620      	mov	r0, r4
10006276:	e8bd 4070 	ldmia.w	sp!, {r4, r5, r6, lr}
1000627a:	2101      	movs	r1, #1
1000627c:	f7ff bc76 	b.w	10005b6c <prvAddCurrentTaskToDelayedList>
10006280:	20001ec8 	.word	0x20001ec8

10006284 <vTaskPlaceOnUnorderedEventList>:
10006284:	e92d 43f8 	stmdb	sp!, {r3, r4, r5, r6, r7, r8, r9, lr}
10006288:	f04f 4650 	mov.w	r6, #3489660928	; 0xd0000000
1000628c:	460f      	mov	r7, r1
1000628e:	4604      	mov	r4, r0
10006290:	4690      	mov	r8, r2
10006292:	4d23      	ldr	r5, [pc, #140]	; (10006320 <vTaskPlaceOnUnorderedEventList+0x9c>)
10006294:	f7fe fbf8 	bl	10004a88 <ulSetInterruptMask>
10006298:	6833      	ldr	r3, [r6, #0]
1000629a:	f047 4700 	orr.w	r7, r7, #2147483648	; 0x80000000
1000629e:	f855 9023 	ldr.w	r9, [r5, r3, lsl #2]
100062a2:	f7fe fbfd 	bl	10004aa0 <vClearInterruptMask>
100062a6:	f8c9 701c 	str.w	r7, [r9, #28]
100062aa:	6867      	ldr	r7, [r4, #4]
100062ac:	f7fe fbec 	bl	10004a88 <ulSetInterruptMask>
100062b0:	6833      	ldr	r3, [r6, #0]
100062b2:	f855 9023 	ldr.w	r9, [r5, r3, lsl #2]
100062b6:	f7fe fbf3 	bl	10004aa0 <vClearInterruptMask>
100062ba:	f8c9 7020 	str.w	r7, [r9, #32]
100062be:	f7fe fbe3 	bl	10004a88 <ulSetInterruptMask>
100062c2:	6833      	ldr	r3, [r6, #0]
100062c4:	f855 9023 	ldr.w	r9, [r5, r3, lsl #2]
100062c8:	f7fe fbea 	bl	10004aa0 <vClearInterruptMask>
100062cc:	68bb      	ldr	r3, [r7, #8]
100062ce:	f8c9 3024 	str.w	r3, [r9, #36]	; 0x24
100062d2:	f7fe fbd9 	bl	10004a88 <ulSetInterruptMask>
100062d6:	6833      	ldr	r3, [r6, #0]
100062d8:	f855 9023 	ldr.w	r9, [r5, r3, lsl #2]
100062dc:	f7fe fbe0 	bl	10004aa0 <vClearInterruptMask>
100062e0:	68ba      	ldr	r2, [r7, #8]
100062e2:	f109 031c 	add.w	r3, r9, #28
100062e6:	6053      	str	r3, [r2, #4]
100062e8:	f7fe fbce 	bl	10004a88 <ulSetInterruptMask>
100062ec:	6833      	ldr	r3, [r6, #0]
100062ee:	f855 9023 	ldr.w	r9, [r5, r3, lsl #2]
100062f2:	f7fe fbd5 	bl	10004aa0 <vClearInterruptMask>
100062f6:	f109 031c 	add.w	r3, r9, #28
100062fa:	60bb      	str	r3, [r7, #8]
100062fc:	f7fe fbc4 	bl	10004a88 <ulSetInterruptMask>
10006300:	6833      	ldr	r3, [r6, #0]
10006302:	f855 5023 	ldr.w	r5, [r5, r3, lsl #2]
10006306:	f7fe fbcb 	bl	10004aa0 <vClearInterruptMask>
1000630a:	6823      	ldr	r3, [r4, #0]
1000630c:	4640      	mov	r0, r8
1000630e:	3301      	adds	r3, #1
10006310:	62ec      	str	r4, [r5, #44]	; 0x2c
10006312:	2101      	movs	r1, #1
10006314:	6023      	str	r3, [r4, #0]
10006316:	e8bd 43f8 	ldmia.w	sp!, {r3, r4, r5, r6, r7, r8, r9, lr}
1000631a:	f7ff bc27 	b.w	10005b6c <prvAddCurrentTaskToDelayedList>
1000631e:	bf00      	nop
10006320:	20001ec8 	.word	0x20001ec8

10006324 <vTaskPlaceOnEventListRestricted>:
10006324:	e92d 47f0 	stmdb	sp!, {r4, r5, r6, r7, r8, r9, sl, lr}
10006328:	f04f 4650 	mov.w	r6, #3489660928	; 0xd0000000
1000632c:	4604      	mov	r4, r0
1000632e:	4617      	mov	r7, r2
10006330:	4689      	mov	r9, r1
10006332:	f8d0 8004 	ldr.w	r8, [r0, #4]
10006336:	4d21      	ldr	r5, [pc, #132]	; (100063bc <vTaskPlaceOnEventListRestricted+0x98>)
10006338:	f7fe fba6 	bl	10004a88 <ulSetInterruptMask>
1000633c:	6833      	ldr	r3, [r6, #0]
1000633e:	f855 a023 	ldr.w	sl, [r5, r3, lsl #2]
10006342:	f7fe fbad 	bl	10004aa0 <vClearInterruptMask>
10006346:	f8ca 8020 	str.w	r8, [sl, #32]
1000634a:	f7fe fb9d 	bl	10004a88 <ulSetInterruptMask>
1000634e:	6833      	ldr	r3, [r6, #0]
10006350:	f855 a023 	ldr.w	sl, [r5, r3, lsl #2]
10006354:	f7fe fba4 	bl	10004aa0 <vClearInterruptMask>
10006358:	f8d8 3008 	ldr.w	r3, [r8, #8]
1000635c:	f8ca 3024 	str.w	r3, [sl, #36]	; 0x24
10006360:	f7fe fb92 	bl	10004a88 <ulSetInterruptMask>
10006364:	6833      	ldr	r3, [r6, #0]
10006366:	f855 a023 	ldr.w	sl, [r5, r3, lsl #2]
1000636a:	f7fe fb99 	bl	10004aa0 <vClearInterruptMask>
1000636e:	f8d8 2008 	ldr.w	r2, [r8, #8]
10006372:	f10a 031c 	add.w	r3, sl, #28
10006376:	6053      	str	r3, [r2, #4]
10006378:	f7fe fb86 	bl	10004a88 <ulSetInterruptMask>
1000637c:	6833      	ldr	r3, [r6, #0]
1000637e:	f855 a023 	ldr.w	sl, [r5, r3, lsl #2]
10006382:	f7fe fb8d 	bl	10004aa0 <vClearInterruptMask>
10006386:	f10a 031c 	add.w	r3, sl, #28
1000638a:	f8c8 3008 	str.w	r3, [r8, #8]
1000638e:	f7fe fb7b 	bl	10004a88 <ulSetInterruptMask>
10006392:	6833      	ldr	r3, [r6, #0]
10006394:	f855 5023 	ldr.w	r5, [r5, r3, lsl #2]
10006398:	f7fe fb82 	bl	10004aa0 <vClearInterruptMask>
1000639c:	6823      	ldr	r3, [r4, #0]
1000639e:	2f00      	cmp	r7, #0
100063a0:	f103 0301 	add.w	r3, r3, #1
100063a4:	62ec      	str	r4, [r5, #44]	; 0x2c
100063a6:	4639      	mov	r1, r7
100063a8:	bf08      	it	eq
100063aa:	4648      	moveq	r0, r9
100063ac:	6023      	str	r3, [r4, #0]
100063ae:	bf18      	it	ne
100063b0:	f04f 30ff 	movne.w	r0, #4294967295	; 0xffffffff
100063b4:	e8bd 47f0 	ldmia.w	sp!, {r4, r5, r6, r7, r8, r9, sl, lr}
100063b8:	f7ff bbd8 	b.w	10005b6c <prvAddCurrentTaskToDelayedList>
100063bc:	20001ec8 	.word	0x20001ec8

100063c0 <xTaskRemoveFromEventList>:
100063c0:	b570      	push	{r4, r5, r6, lr}
100063c2:	2500      	movs	r5, #0
100063c4:	68c3      	ldr	r3, [r0, #12]
100063c6:	68d8      	ldr	r0, [r3, #12]
100063c8:	6ac3      	ldr	r3, [r0, #44]	; 0x2c
100063ca:	e9d0 4208 	ldrd	r4, r2, [r0, #32]
100063ce:	60a2      	str	r2, [r4, #8]
100063d0:	6054      	str	r4, [r2, #4]
100063d2:	685c      	ldr	r4, [r3, #4]
100063d4:	f100 011c 	add.w	r1, r0, #28
100063d8:	428c      	cmp	r4, r1
100063da:	4c26      	ldr	r4, [pc, #152]	; (10006474 <xTaskRemoveFromEventList+0xb4>)
100063dc:	bf08      	it	eq
100063de:	605a      	streq	r2, [r3, #4]
100063e0:	681a      	ldr	r2, [r3, #0]
100063e2:	6824      	ldr	r4, [r4, #0]
100063e4:	3a01      	subs	r2, #1
100063e6:	62c5      	str	r5, [r0, #44]	; 0x2c
100063e8:	601a      	str	r2, [r3, #0]
100063ea:	2c00      	cmp	r4, #0
100063ec:	d134      	bne.n	10006458 <xTaskRemoveFromEventList+0x98>
100063ee:	e9d0 2103 	ldrd	r2, r1, [r0, #12]
100063f2:	6983      	ldr	r3, [r0, #24]
100063f4:	6091      	str	r1, [r2, #8]
100063f6:	6901      	ldr	r1, [r0, #16]
100063f8:	f100 0508 	add.w	r5, r0, #8
100063fc:	604a      	str	r2, [r1, #4]
100063fe:	685a      	ldr	r2, [r3, #4]
10006400:	42aa      	cmp	r2, r5
10006402:	681a      	ldr	r2, [r3, #0]
10006404:	bf08      	it	eq
10006406:	6059      	streq	r1, [r3, #4]
10006408:	491b      	ldr	r1, [pc, #108]	; (10006478 <xTaskRemoveFromEventList+0xb8>)
1000640a:	3a01      	subs	r2, #1
1000640c:	601a      	str	r2, [r3, #0]
1000640e:	6b03      	ldr	r3, [r0, #48]	; 0x30
10006410:	680a      	ldr	r2, [r1, #0]
10006412:	4293      	cmp	r3, r2
10006414:	bf88      	it	hi
10006416:	600b      	strhi	r3, [r1, #0]
10006418:	4918      	ldr	r1, [pc, #96]	; (1000647c <xTaskRemoveFromEventList+0xbc>)
1000641a:	eb03 0383 	add.w	r3, r3, r3, lsl #2
1000641e:	ea4f 0c83 	mov.w	ip, r3, lsl #2
10006422:	eb01 0383 	add.w	r3, r1, r3, lsl #2
10006426:	685a      	ldr	r2, [r3, #4]
10006428:	6894      	ldr	r4, [r2, #8]
1000642a:	60c2      	str	r2, [r0, #12]
1000642c:	6104      	str	r4, [r0, #16]
1000642e:	f851 400c 	ldr.w	r4, [r1, ip]
10006432:	6896      	ldr	r6, [r2, #8]
10006434:	3401      	adds	r4, #1
10006436:	6075      	str	r5, [r6, #4]
10006438:	6095      	str	r5, [r2, #8]
1000643a:	6183      	str	r3, [r0, #24]
1000643c:	f841 400c 	str.w	r4, [r1, ip]
10006440:	f7ff f8d4 	bl	100055ec <prvYieldForTask>
10006444:	f04f 4250 	mov.w	r2, #3489660928	; 0xd0000000
10006448:	4b0d      	ldr	r3, [pc, #52]	; (10006480 <xTaskRemoveFromEventList+0xc0>)
1000644a:	6812      	ldr	r2, [r2, #0]
1000644c:	f853 0022 	ldr.w	r0, [r3, r2, lsl #2]
10006450:	3800      	subs	r0, #0
10006452:	bf18      	it	ne
10006454:	2001      	movne	r0, #1
10006456:	bd70      	pop	{r4, r5, r6, pc}
10006458:	4b0a      	ldr	r3, [pc, #40]	; (10006484 <xTaskRemoveFromEventList+0xc4>)
1000645a:	685a      	ldr	r2, [r3, #4]
1000645c:	6894      	ldr	r4, [r2, #8]
1000645e:	e9c0 2408 	strd	r2, r4, [r0, #32]
10006462:	6894      	ldr	r4, [r2, #8]
10006464:	6061      	str	r1, [r4, #4]
10006466:	681c      	ldr	r4, [r3, #0]
10006468:	6091      	str	r1, [r2, #8]
1000646a:	3401      	adds	r4, #1
1000646c:	62c3      	str	r3, [r0, #44]	; 0x2c
1000646e:	601c      	str	r4, [r3, #0]
10006470:	e7e6      	b.n	10006440 <xTaskRemoveFromEventList+0x80>
10006472:	bf00      	nop
10006474:	200221b0 	.word	0x200221b0
10006478:	200221b8 	.word	0x200221b8
1000647c:	20001ee4 	.word	0x20001ee4
10006480:	20022294 	.word	0x20022294
10006484:	20022240 	.word	0x20022240

10006488 <vTaskInternalSetTimeOutState>:
10006488:	4a03      	ldr	r2, [pc, #12]	; (10006498 <vTaskInternalSetTimeOutState+0x10>)
1000648a:	4b04      	ldr	r3, [pc, #16]	; (1000649c <vTaskInternalSetTimeOutState+0x14>)
1000648c:	6812      	ldr	r2, [r2, #0]
1000648e:	681b      	ldr	r3, [r3, #0]
10006490:	e9c0 2300 	strd	r2, r3, [r0]
10006494:	4770      	bx	lr
10006496:	bf00      	nop
10006498:	20022230 	.word	0x20022230
1000649c:	20022288 	.word	0x20022288

100064a0 <vTaskMissedYield>:
100064a0:	f04f 4250 	mov.w	r2, #3489660928	; 0xd0000000
100064a4:	2101      	movs	r1, #1
100064a6:	4b02      	ldr	r3, [pc, #8]	; (100064b0 <vTaskMissedYield+0x10>)
100064a8:	6812      	ldr	r2, [r2, #0]
100064aa:	f843 1022 	str.w	r1, [r3, r2, lsl #2]
100064ae:	4770      	bx	lr
100064b0:	20022294 	.word	0x20022294

100064b4 <xTaskGetCurrentTaskHandle>:
100064b4:	b510      	push	{r4, lr}
100064b6:	f7fe fae7 	bl	10004a88 <ulSetInterruptMask>
100064ba:	f04f 4250 	mov.w	r2, #3489660928	; 0xd0000000
100064be:	4b04      	ldr	r3, [pc, #16]	; (100064d0 <xTaskGetCurrentTaskHandle+0x1c>)
100064c0:	6812      	ldr	r2, [r2, #0]
100064c2:	f853 4022 	ldr.w	r4, [r3, r2, lsl #2]
100064c6:	f7fe faeb 	bl	10004aa0 <vClearInterruptMask>
100064ca:	4620      	mov	r0, r4
100064cc:	bd10      	pop	{r4, pc}
100064ce:	bf00      	nop
100064d0:	20001ec8 	.word	0x20001ec8

100064d4 <xTaskPriorityInherit>:
100064d4:	e92d 41f0 	stmdb	sp!, {r4, r5, r6, r7, r8, lr}
100064d8:	4604      	mov	r4, r0
100064da:	b388      	cbz	r0, 10006540 <xTaskPriorityInherit+0x6c>
100064dc:	f04f 4650 	mov.w	r6, #3489660928	; 0xd0000000
100064e0:	6b07      	ldr	r7, [r0, #48]	; 0x30
100064e2:	4d39      	ldr	r5, [pc, #228]	; (100065c8 <xTaskPriorityInherit+0xf4>)
100064e4:	f7fe fad0 	bl	10004a88 <ulSetInterruptMask>
100064e8:	6833      	ldr	r3, [r6, #0]
100064ea:	f855 8023 	ldr.w	r8, [r5, r3, lsl #2]
100064ee:	f7fe fad7 	bl	10004aa0 <vClearInterruptMask>
100064f2:	f8d8 3030 	ldr.w	r3, [r8, #48]	; 0x30
100064f6:	429f      	cmp	r7, r3
100064f8:	d224      	bcs.n	10006544 <xTaskPriorityInherit+0x70>
100064fa:	69e3      	ldr	r3, [r4, #28]
100064fc:	2b00      	cmp	r3, #0
100064fe:	db0a      	blt.n	10006516 <xTaskPriorityInherit+0x42>
10006500:	f7fe fac2 	bl	10004a88 <ulSetInterruptMask>
10006504:	6833      	ldr	r3, [r6, #0]
10006506:	f855 6023 	ldr.w	r6, [r5, r3, lsl #2]
1000650a:	f7fe fac9 	bl	10004aa0 <vClearInterruptMask>
1000650e:	6b33      	ldr	r3, [r6, #48]	; 0x30
10006510:	f1c3 0320 	rsb	r3, r3, #32
10006514:	61e3      	str	r3, [r4, #28]
10006516:	6b23      	ldr	r3, [r4, #48]	; 0x30
10006518:	4e2c      	ldr	r6, [pc, #176]	; (100065cc <xTaskPriorityInherit+0xf8>)
1000651a:	69a2      	ldr	r2, [r4, #24]
1000651c:	eb03 0383 	add.w	r3, r3, r3, lsl #2
10006520:	eb06 0383 	add.w	r3, r6, r3, lsl #2
10006524:	429a      	cmp	r2, r3
10006526:	d01c      	beq.n	10006562 <xTaskPriorityInherit+0x8e>
10006528:	f7fe faae 	bl	10004a88 <ulSetInterruptMask>
1000652c:	f04f 4350 	mov.w	r3, #3489660928	; 0xd0000000
10006530:	681b      	ldr	r3, [r3, #0]
10006532:	f855 5023 	ldr.w	r5, [r5, r3, lsl #2]
10006536:	f7fe fab3 	bl	10004aa0 <vClearInterruptMask>
1000653a:	2001      	movs	r0, #1
1000653c:	6b2b      	ldr	r3, [r5, #48]	; 0x30
1000653e:	6323      	str	r3, [r4, #48]	; 0x30
10006540:	e8bd 81f0 	ldmia.w	sp!, {r4, r5, r6, r7, r8, pc}
10006544:	6da4      	ldr	r4, [r4, #88]	; 0x58
10006546:	f7fe fa9f 	bl	10004a88 <ulSetInterruptMask>
1000654a:	6833      	ldr	r3, [r6, #0]
1000654c:	f855 5023 	ldr.w	r5, [r5, r3, lsl #2]
10006550:	f7fe faa6 	bl	10004aa0 <vClearInterruptMask>
10006554:	6b28      	ldr	r0, [r5, #48]	; 0x30
10006556:	4284      	cmp	r4, r0
10006558:	bf2c      	ite	cs
1000655a:	2000      	movcs	r0, #0
1000655c:	2001      	movcc	r0, #1
1000655e:	e8bd 81f0 	ldmia.w	sp!, {r4, r5, r6, r7, r8, pc}
10006562:	f104 0708 	add.w	r7, r4, #8
10006566:	4638      	mov	r0, r7
10006568:	f7fe fc0e 	bl	10004d88 <uxListRemove>
1000656c:	f7fe fa8c 	bl	10004a88 <ulSetInterruptMask>
10006570:	f04f 4350 	mov.w	r3, #3489660928	; 0xd0000000
10006574:	681b      	ldr	r3, [r3, #0]
10006576:	f855 5023 	ldr.w	r5, [r5, r3, lsl #2]
1000657a:	f7fe fa91 	bl	10004aa0 <vClearInterruptMask>
1000657e:	4a14      	ldr	r2, [pc, #80]	; (100065d0 <xTaskPriorityInherit+0xfc>)
10006580:	6b2b      	ldr	r3, [r5, #48]	; 0x30
10006582:	6811      	ldr	r1, [r2, #0]
10006584:	6323      	str	r3, [r4, #48]	; 0x30
10006586:	428b      	cmp	r3, r1
10006588:	bf88      	it	hi
1000658a:	6013      	strhi	r3, [r2, #0]
1000658c:	eb03 0383 	add.w	r3, r3, r3, lsl #2
10006590:	0098      	lsls	r0, r3, #2
10006592:	eb06 0383 	add.w	r3, r6, r3, lsl #2
10006596:	685a      	ldr	r2, [r3, #4]
10006598:	6891      	ldr	r1, [r2, #8]
1000659a:	60e2      	str	r2, [r4, #12]
1000659c:	6121      	str	r1, [r4, #16]
1000659e:	6895      	ldr	r5, [r2, #8]
100065a0:	5831      	ldr	r1, [r6, r0]
100065a2:	606f      	str	r7, [r5, #4]
100065a4:	6097      	str	r7, [r2, #8]
100065a6:	61a3      	str	r3, [r4, #24]
100065a8:	6ba3      	ldr	r3, [r4, #56]	; 0x38
100065aa:	3101      	adds	r1, #1
100065ac:	2b00      	cmp	r3, #0
100065ae:	5031      	str	r1, [r6, r0]
100065b0:	db02      	blt.n	100065b8 <xTaskPriorityInherit+0xe4>
100065b2:	6ba3      	ldr	r3, [r4, #56]	; 0x38
100065b4:	2b01      	cmp	r3, #1
100065b6:	dd04      	ble.n	100065c2 <xTaskPriorityInherit+0xee>
100065b8:	4620      	mov	r0, r4
100065ba:	f7ff f817 	bl	100055ec <prvYieldForTask>
100065be:	2001      	movs	r0, #1
100065c0:	e7be      	b.n	10006540 <xTaskPriorityInherit+0x6c>
100065c2:	2001      	movs	r0, #1
100065c4:	e7bc      	b.n	10006540 <xTaskPriorityInherit+0x6c>
100065c6:	bf00      	nop
100065c8:	20001ec8 	.word	0x20001ec8
100065cc:	20001ee4 	.word	0x20001ee4
100065d0:	200221b8 	.word	0x200221b8

100065d4 <xTaskPriorityDisinherit>:
100065d4:	b158      	cbz	r0, 100065ee <xTaskPriorityDisinherit+0x1a>
100065d6:	6dc3      	ldr	r3, [r0, #92]	; 0x5c
100065d8:	6b01      	ldr	r1, [r0, #48]	; 0x30
100065da:	6d82      	ldr	r2, [r0, #88]	; 0x58
100065dc:	3b01      	subs	r3, #1
100065de:	4291      	cmp	r1, r2
100065e0:	b570      	push	{r4, r5, r6, lr}
100065e2:	4604      	mov	r4, r0
100065e4:	65c3      	str	r3, [r0, #92]	; 0x5c
100065e6:	d000      	beq.n	100065ea <xTaskPriorityDisinherit+0x16>
100065e8:	b11b      	cbz	r3, 100065f2 <xTaskPriorityDisinherit+0x1e>
100065ea:	2000      	movs	r0, #0
100065ec:	bd70      	pop	{r4, r5, r6, pc}
100065ee:	2000      	movs	r0, #0
100065f0:	4770      	bx	lr
100065f2:	f100 0508 	add.w	r5, r0, #8
100065f6:	4628      	mov	r0, r5
100065f8:	f7fe fbc6 	bl	10004d88 <uxListRemove>
100065fc:	6da3      	ldr	r3, [r4, #88]	; 0x58
100065fe:	4a22      	ldr	r2, [pc, #136]	; (10006688 <xTaskPriorityDisinherit+0xb4>)
10006600:	f1c3 0120 	rsb	r1, r3, #32
10006604:	61e1      	str	r1, [r4, #28]
10006606:	6811      	ldr	r1, [r2, #0]
10006608:	6323      	str	r3, [r4, #48]	; 0x30
1000660a:	428b      	cmp	r3, r1
1000660c:	491f      	ldr	r1, [pc, #124]	; (1000668c <xTaskPriorityDisinherit+0xb8>)
1000660e:	bf88      	it	hi
10006610:	6013      	strhi	r3, [r2, #0]
10006612:	eb03 0383 	add.w	r3, r3, r3, lsl #2
10006616:	ea4f 0c83 	mov.w	ip, r3, lsl #2
1000661a:	eb01 0383 	add.w	r3, r1, r3, lsl #2
1000661e:	685a      	ldr	r2, [r3, #4]
10006620:	6890      	ldr	r0, [r2, #8]
10006622:	60e2      	str	r2, [r4, #12]
10006624:	6120      	str	r0, [r4, #16]
10006626:	6896      	ldr	r6, [r2, #8]
10006628:	f851 000c 	ldr.w	r0, [r1, ip]
1000662c:	6075      	str	r5, [r6, #4]
1000662e:	6095      	str	r5, [r2, #8]
10006630:	61a3      	str	r3, [r4, #24]
10006632:	6ba3      	ldr	r3, [r4, #56]	; 0x38
10006634:	3001      	adds	r0, #1
10006636:	2b00      	cmp	r3, #0
10006638:	f841 000c 	str.w	r0, [r1, ip]
1000663c:	db02      	blt.n	10006644 <xTaskPriorityDisinherit+0x70>
1000663e:	6ba3      	ldr	r3, [r4, #56]	; 0x38
10006640:	2b01      	cmp	r3, #1
10006642:	dd01      	ble.n	10006648 <xTaskPriorityDisinherit+0x74>
10006644:	2001      	movs	r0, #1
10006646:	bd70      	pop	{r4, r5, r6, pc}
10006648:	f04f 4350 	mov.w	r3, #3489660928	; 0xd0000000
1000664c:	6ba2      	ldr	r2, [r4, #56]	; 0x38
1000664e:	681b      	ldr	r3, [r3, #0]
10006650:	429a      	cmp	r2, r3
10006652:	d011      	beq.n	10006678 <xTaskPriorityDisinherit+0xa4>
10006654:	6ba3      	ldr	r3, [r4, #56]	; 0x38
10006656:	4d0e      	ldr	r5, [pc, #56]	; (10006690 <xTaskPriorityDisinherit+0xbc>)
10006658:	f855 3023 	ldr.w	r3, [r5, r3, lsl #2]
1000665c:	6b9b      	ldr	r3, [r3, #56]	; 0x38
1000665e:	3302      	adds	r3, #2
10006660:	d0f0      	beq.n	10006644 <xTaskPriorityDisinherit+0x70>
10006662:	6ba0      	ldr	r0, [r4, #56]	; 0x38
10006664:	f7fe f9e0 	bl	10004a28 <vYieldCore>
10006668:	f06f 0201 	mvn.w	r2, #1
1000666c:	6ba3      	ldr	r3, [r4, #56]	; 0x38
1000666e:	2001      	movs	r0, #1
10006670:	f855 3023 	ldr.w	r3, [r5, r3, lsl #2]
10006674:	639a      	str	r2, [r3, #56]	; 0x38
10006676:	bd70      	pop	{r4, r5, r6, pc}
10006678:	2301      	movs	r3, #1
1000667a:	6ba1      	ldr	r1, [r4, #56]	; 0x38
1000667c:	4a05      	ldr	r2, [pc, #20]	; (10006694 <xTaskPriorityDisinherit+0xc0>)
1000667e:	4618      	mov	r0, r3
10006680:	f842 3021 	str.w	r3, [r2, r1, lsl #2]
10006684:	bd70      	pop	{r4, r5, r6, pc}
10006686:	bf00      	nop
10006688:	200221b8 	.word	0x200221b8
1000668c:	20001ee4 	.word	0x20001ee4
10006690:	20001ec8 	.word	0x20001ec8
10006694:	20022294 	.word	0x20022294

10006698 <vTaskPriorityDisinheritAfterTimeout>:
10006698:	b160      	cbz	r0, 100066b4 <vTaskPriorityDisinheritAfterTimeout+0x1c>
1000669a:	6d82      	ldr	r2, [r0, #88]	; 0x58
1000669c:	b5f8      	push	{r3, r4, r5, r6, r7, lr}
1000669e:	4291      	cmp	r1, r2
100066a0:	bf38      	it	cc
100066a2:	4611      	movcc	r1, r2
100066a4:	6b03      	ldr	r3, [r0, #48]	; 0x30
100066a6:	4604      	mov	r4, r0
100066a8:	428b      	cmp	r3, r1
100066aa:	d002      	beq.n	100066b2 <vTaskPriorityDisinheritAfterTimeout+0x1a>
100066ac:	6dc2      	ldr	r2, [r0, #92]	; 0x5c
100066ae:	2a01      	cmp	r2, #1
100066b0:	d001      	beq.n	100066b6 <vTaskPriorityDisinheritAfterTimeout+0x1e>
100066b2:	bdf8      	pop	{r3, r4, r5, r6, r7, pc}
100066b4:	4770      	bx	lr
100066b6:	69c2      	ldr	r2, [r0, #28]
100066b8:	4d25      	ldr	r5, [pc, #148]	; (10006750 <vTaskPriorityDisinheritAfterTimeout+0xb8>)
100066ba:	2a00      	cmp	r2, #0
100066bc:	eb03 0383 	add.w	r3, r3, r3, lsl #2
100066c0:	6982      	ldr	r2, [r0, #24]
100066c2:	6301      	str	r1, [r0, #48]	; 0x30
100066c4:	eb05 0383 	add.w	r3, r5, r3, lsl #2
100066c8:	bfa4      	itt	ge
100066ca:	f1c1 0120 	rsbge	r1, r1, #32
100066ce:	61c1      	strge	r1, [r0, #28]
100066d0:	429a      	cmp	r2, r3
100066d2:	d1ee      	bne.n	100066b2 <vTaskPriorityDisinheritAfterTimeout+0x1a>
100066d4:	f100 0608 	add.w	r6, r0, #8
100066d8:	4630      	mov	r0, r6
100066da:	f7fe fb55 	bl	10004d88 <uxListRemove>
100066de:	4a1d      	ldr	r2, [pc, #116]	; (10006754 <vTaskPriorityDisinheritAfterTimeout+0xbc>)
100066e0:	6b23      	ldr	r3, [r4, #48]	; 0x30
100066e2:	6811      	ldr	r1, [r2, #0]
100066e4:	428b      	cmp	r3, r1
100066e6:	bf88      	it	hi
100066e8:	6013      	strhi	r3, [r2, #0]
100066ea:	eb03 0383 	add.w	r3, r3, r3, lsl #2
100066ee:	0098      	lsls	r0, r3, #2
100066f0:	eb05 0383 	add.w	r3, r5, r3, lsl #2
100066f4:	685a      	ldr	r2, [r3, #4]
100066f6:	6891      	ldr	r1, [r2, #8]
100066f8:	60e2      	str	r2, [r4, #12]
100066fa:	6121      	str	r1, [r4, #16]
100066fc:	6897      	ldr	r7, [r2, #8]
100066fe:	5829      	ldr	r1, [r5, r0]
10006700:	607e      	str	r6, [r7, #4]
10006702:	6096      	str	r6, [r2, #8]
10006704:	61a3      	str	r3, [r4, #24]
10006706:	6ba3      	ldr	r3, [r4, #56]	; 0x38
10006708:	3101      	adds	r1, #1
1000670a:	2b00      	cmp	r3, #0
1000670c:	5029      	str	r1, [r5, r0]
1000670e:	dbd0      	blt.n	100066b2 <vTaskPriorityDisinheritAfterTimeout+0x1a>
10006710:	6ba3      	ldr	r3, [r4, #56]	; 0x38
10006712:	2b01      	cmp	r3, #1
10006714:	dccd      	bgt.n	100066b2 <vTaskPriorityDisinheritAfterTimeout+0x1a>
10006716:	f04f 4350 	mov.w	r3, #3489660928	; 0xd0000000
1000671a:	6ba2      	ldr	r2, [r4, #56]	; 0x38
1000671c:	681b      	ldr	r3, [r3, #0]
1000671e:	429a      	cmp	r2, r3
10006720:	d010      	beq.n	10006744 <vTaskPriorityDisinheritAfterTimeout+0xac>
10006722:	6ba3      	ldr	r3, [r4, #56]	; 0x38
10006724:	4d0c      	ldr	r5, [pc, #48]	; (10006758 <vTaskPriorityDisinheritAfterTimeout+0xc0>)
10006726:	f855 3023 	ldr.w	r3, [r5, r3, lsl #2]
1000672a:	6b9b      	ldr	r3, [r3, #56]	; 0x38
1000672c:	3302      	adds	r3, #2
1000672e:	d0c0      	beq.n	100066b2 <vTaskPriorityDisinheritAfterTimeout+0x1a>
10006730:	6ba0      	ldr	r0, [r4, #56]	; 0x38
10006732:	f7fe f979 	bl	10004a28 <vYieldCore>
10006736:	f06f 0201 	mvn.w	r2, #1
1000673a:	6ba3      	ldr	r3, [r4, #56]	; 0x38
1000673c:	f855 3023 	ldr.w	r3, [r5, r3, lsl #2]
10006740:	639a      	str	r2, [r3, #56]	; 0x38
10006742:	bdf8      	pop	{r3, r4, r5, r6, r7, pc}
10006744:	2101      	movs	r1, #1
10006746:	6ba2      	ldr	r2, [r4, #56]	; 0x38
10006748:	4b04      	ldr	r3, [pc, #16]	; (1000675c <vTaskPriorityDisinheritAfterTimeout+0xc4>)
1000674a:	f843 1022 	str.w	r1, [r3, r2, lsl #2]
1000674e:	bdf8      	pop	{r3, r4, r5, r6, r7, pc}
10006750:	20001ee4 	.word	0x20001ee4
10006754:	200221b8 	.word	0x200221b8
10006758:	20001ec8 	.word	0x20001ec8
1000675c:	20022294 	.word	0x20022294

10006760 <vTaskYieldWithinAPI>:
10006760:	f04f 4350 	mov.w	r3, #3489660928	; 0xd0000000
10006764:	4a05      	ldr	r2, [pc, #20]	; (1000677c <vTaskYieldWithinAPI+0x1c>)
10006766:	681b      	ldr	r3, [r3, #0]
10006768:	f852 2023 	ldr.w	r2, [r2, r3, lsl #2]
1000676c:	b122      	cbz	r2, 10006778 <vTaskYieldWithinAPI+0x18>
1000676e:	2101      	movs	r1, #1
10006770:	4a03      	ldr	r2, [pc, #12]	; (10006780 <vTaskYieldWithinAPI+0x20>)
10006772:	f842 1023 	str.w	r1, [r2, r3, lsl #2]
10006776:	4770      	bx	lr
10006778:	f7fd bfe6 	b.w	10004748 <vPortYield>
1000677c:	20022188 	.word	0x20022188
10006780:	20022294 	.word	0x20022294

10006784 <vTaskEnterCritical>:
10006784:	b538      	push	{r3, r4, r5, lr}
10006786:	f7fe f97f 	bl	10004a88 <ulSetInterruptMask>
1000678a:	4b3e      	ldr	r3, [pc, #248]	; (10006884 <vTaskEnterCritical+0x100>)
1000678c:	681b      	ldr	r3, [r3, #0]
1000678e:	b193      	cbz	r3, 100067b6 <vTaskEnterCritical+0x32>
10006790:	f04f 4350 	mov.w	r3, #3489660928	; 0xd0000000
10006794:	4a3c      	ldr	r2, [pc, #240]	; (10006888 <vTaskEnterCritical+0x104>)
10006796:	681b      	ldr	r3, [r3, #0]
10006798:	f852 1023 	ldr.w	r1, [r2, r3, lsl #2]
1000679c:	b1a1      	cbz	r1, 100067c8 <vTaskEnterCritical+0x44>
1000679e:	f04f 4050 	mov.w	r0, #3489660928	; 0xd0000000
100067a2:	f852 1023 	ldr.w	r1, [r2, r3, lsl #2]
100067a6:	3101      	adds	r1, #1
100067a8:	f842 1023 	str.w	r1, [r2, r3, lsl #2]
100067ac:	6803      	ldr	r3, [r0, #0]
100067ae:	f852 3023 	ldr.w	r3, [r2, r3, lsl #2]
100067b2:	2b01      	cmp	r3, #1
100067b4:	d000      	beq.n	100067b8 <vTaskEnterCritical+0x34>
100067b6:	bd38      	pop	{r3, r4, r5, pc}
100067b8:	4b34      	ldr	r3, [pc, #208]	; (1000688c <vTaskEnterCritical+0x108>)
100067ba:	681b      	ldr	r3, [r3, #0]
100067bc:	2b00      	cmp	r3, #0
100067be:	d1fa      	bne.n	100067b6 <vTaskEnterCritical+0x32>
100067c0:	e8bd 4038 	ldmia.w	sp!, {r3, r4, r5, lr}
100067c4:	f7fe bfbe 	b.w	10005744 <prvCheckForRunStateChange>
100067c8:	4931      	ldr	r1, [pc, #196]	; (10006890 <vTaskEnterCritical+0x10c>)
100067ca:	e8d1 0fcf 	ldaexb	r0, [r1]
100067ce:	2401      	movs	r4, #1
100067d0:	2800      	cmp	r0, #0
100067d2:	d101      	bne.n	100067d8 <vTaskEnterCritical+0x54>
100067d4:	e8c1 4f40 	strexb	r0, r4, [r1]
100067d8:	f3bf 8f5f 	dmb	sy
100067dc:	2800      	cmp	r0, #0
100067de:	d131      	bne.n	10006844 <vTaskEnterCritical+0xc0>
100067e0:	482c      	ldr	r0, [pc, #176]	; (10006894 <vTaskEnterCritical+0x110>)
100067e2:	ea4f 0c43 	mov.w	ip, r3, lsl #1
100067e6:	2301      	movs	r3, #1
100067e8:	492b      	ldr	r1, [pc, #172]	; (10006898 <vTaskEnterCritical+0x114>)
100067ea:	4484      	add	ip, r0
100067ec:	704b      	strb	r3, [r1, #1]
100067ee:	f88c 3001 	strb.w	r3, [ip, #1]
100067f2:	f04f 4c50 	mov.w	ip, #3489660928	; 0xd0000000
100067f6:	4b29      	ldr	r3, [pc, #164]	; (1000689c <vTaskEnterCritical+0x118>)
100067f8:	f8dc 4000 	ldr.w	r4, [ip]
100067fc:	e8d3 5fcf 	ldaexb	r5, [r3]
10006800:	f05f 0e01 	movs.w	lr, #1
10006804:	2d00      	cmp	r5, #0
10006806:	d101      	bne.n	1000680c <vTaskEnterCritical+0x88>
10006808:	e8c3 ef45 	strexb	r5, lr, [r3]
1000680c:	f3bf 8f5f 	dmb	sy
10006810:	b185      	cbz	r5, 10006834 <vTaskEnterCritical+0xb0>
10006812:	f810 5014 	ldrb.w	r5, [r0, r4, lsl #1]
10006816:	2d00      	cmp	r5, #0
10006818:	d127      	bne.n	1000686a <vTaskEnterCritical+0xe6>
1000681a:	e8d3 cfcf 	ldaexb	ip, [r3]
1000681e:	2501      	movs	r5, #1
10006820:	f1bc 0f00 	cmp.w	ip, #0
10006824:	d1f9      	bne.n	1000681a <vTaskEnterCritical+0x96>
10006826:	e8c3 5f4c 	strexb	ip, r5, [r3]
1000682a:	f1bc 0f00 	cmp.w	ip, #0
1000682e:	d1f4      	bne.n	1000681a <vTaskEnterCritical+0x96>
10006830:	f3bf 8f5f 	dmb	sy
10006834:	2301      	movs	r3, #1
10006836:	f04f 4550 	mov.w	r5, #3489660928	; 0xd0000000
1000683a:	700b      	strb	r3, [r1, #0]
1000683c:	f800 3014 	strb.w	r3, [r0, r4, lsl #1]
10006840:	682b      	ldr	r3, [r5, #0]
10006842:	e7ac      	b.n	1000679e <vTaskEnterCritical+0x1a>
10006844:	4813      	ldr	r0, [pc, #76]	; (10006894 <vTaskEnterCritical+0x110>)
10006846:	ea4f 0c43 	mov.w	ip, r3, lsl #1
1000684a:	eb00 0343 	add.w	r3, r0, r3, lsl #1
1000684e:	785b      	ldrb	r3, [r3, #1]
10006850:	b993      	cbnz	r3, 10006878 <vTaskEnterCritical+0xf4>
10006852:	e8d1 4fcf 	ldaexb	r4, [r1]
10006856:	2301      	movs	r3, #1
10006858:	2c00      	cmp	r4, #0
1000685a:	d1fa      	bne.n	10006852 <vTaskEnterCritical+0xce>
1000685c:	e8c1 3f44 	strexb	r4, r3, [r1]
10006860:	2c00      	cmp	r4, #0
10006862:	d1f6      	bne.n	10006852 <vTaskEnterCritical+0xce>
10006864:	f3bf 8f5f 	dmb	sy
10006868:	e7bd      	b.n	100067e6 <vTaskEnterCritical+0x62>
1000686a:	780b      	ldrb	r3, [r1, #0]
1000686c:	3301      	adds	r3, #1
1000686e:	b2db      	uxtb	r3, r3
10006870:	700b      	strb	r3, [r1, #0]
10006872:	f8dc 3000 	ldr.w	r3, [ip]
10006876:	e792      	b.n	1000679e <vTaskEnterCritical+0x1a>
10006878:	4907      	ldr	r1, [pc, #28]	; (10006898 <vTaskEnterCritical+0x114>)
1000687a:	784b      	ldrb	r3, [r1, #1]
1000687c:	3301      	adds	r3, #1
1000687e:	b2db      	uxtb	r3, r3
10006880:	704b      	strb	r3, [r1, #1]
10006882:	e7b6      	b.n	100067f2 <vTaskEnterCritical+0x6e>
10006884:	20022254 	.word	0x20022254
10006888:	20022188 	.word	0x20022188
1000688c:	200221b0 	.word	0x200221b0
10006890:	20001617 	.word	0x20001617
10006894:	20022180 	.word	0x20022180
10006898:	20022184 	.word	0x20022184
1000689c:	20001616 	.word	0x20001616

100068a0 <prvAddNewTaskToReadyList>:
100068a0:	e92d 41f0 	stmdb	sp!, {r4, r5, r6, r7, r8, lr}
100068a4:	4605      	mov	r5, r0
100068a6:	f7ff ff6d 	bl	10006784 <vTaskEnterCritical>
100068aa:	4a2e      	ldr	r2, [pc, #184]	; (10006964 <prvAddNewTaskToReadyList+0xc4>)
100068ac:	4f2e      	ldr	r7, [pc, #184]	; (10006968 <prvAddNewTaskToReadyList+0xc8>)
100068ae:	6813      	ldr	r3, [r2, #0]
100068b0:	3301      	adds	r3, #1
100068b2:	6013      	str	r3, [r2, #0]
100068b4:	683b      	ldr	r3, [r7, #0]
100068b6:	b35b      	cbz	r3, 10006910 <prvAddNewTaskToReadyList+0x70>
100068b8:	4e2c      	ldr	r6, [pc, #176]	; (1000696c <prvAddNewTaskToReadyList+0xcc>)
100068ba:	4b2d      	ldr	r3, [pc, #180]	; (10006970 <prvAddNewTaskToReadyList+0xd0>)
100068bc:	f105 0c08 	add.w	ip, r5, #8
100068c0:	681a      	ldr	r2, [r3, #0]
100068c2:	3201      	adds	r2, #1
100068c4:	652a      	str	r2, [r5, #80]	; 0x50
100068c6:	601a      	str	r2, [r3, #0]
100068c8:	4a2a      	ldr	r2, [pc, #168]	; (10006974 <prvAddNewTaskToReadyList+0xd4>)
100068ca:	6b2b      	ldr	r3, [r5, #48]	; 0x30
100068cc:	6811      	ldr	r1, [r2, #0]
100068ce:	428b      	cmp	r3, r1
100068d0:	bf88      	it	hi
100068d2:	6013      	strhi	r3, [r2, #0]
100068d4:	eb03 0383 	add.w	r3, r3, r3, lsl #2
100068d8:	0098      	lsls	r0, r3, #2
100068da:	eb06 0383 	add.w	r3, r6, r3, lsl #2
100068de:	685a      	ldr	r2, [r3, #4]
100068e0:	683c      	ldr	r4, [r7, #0]
100068e2:	6891      	ldr	r1, [r2, #8]
100068e4:	60ea      	str	r2, [r5, #12]
100068e6:	6129      	str	r1, [r5, #16]
100068e8:	5831      	ldr	r1, [r6, r0]
100068ea:	f101 0e01 	add.w	lr, r1, #1
100068ee:	6891      	ldr	r1, [r2, #8]
100068f0:	f8c1 c004 	str.w	ip, [r1, #4]
100068f4:	f8c2 c008 	str.w	ip, [r2, #8]
100068f8:	61ab      	str	r3, [r5, #24]
100068fa:	f846 e000 	str.w	lr, [r6, r0]
100068fe:	bb64      	cbnz	r4, 1000695a <prvAddNewTaskToReadyList+0xba>
10006900:	683b      	ldr	r3, [r7, #0]
10006902:	b11b      	cbz	r3, 1000690c <prvAddNewTaskToReadyList+0x6c>
10006904:	e8bd 41f0 	ldmia.w	sp!, {r4, r5, r6, r7, r8, lr}
10006908:	f7fe bed6 	b.w	100056b8 <vTaskExitCritical.part.0>
1000690c:	e8bd 81f0 	ldmia.w	sp!, {r4, r5, r6, r7, r8, pc}
10006910:	6813      	ldr	r3, [r2, #0]
10006912:	4e16      	ldr	r6, [pc, #88]	; (1000696c <prvAddNewTaskToReadyList+0xcc>)
10006914:	2b01      	cmp	r3, #1
10006916:	d1d0      	bne.n	100068ba <prvAddNewTaskToReadyList+0x1a>
10006918:	4634      	mov	r4, r6
1000691a:	f506 7820 	add.w	r8, r6, #640	; 0x280
1000691e:	4620      	mov	r0, r4
10006920:	3414      	adds	r4, #20
10006922:	f7fe f9f9 	bl	10004d18 <vListInitialise>
10006926:	45a0      	cmp	r8, r4
10006928:	d1f9      	bne.n	1000691e <prvAddNewTaskToReadyList+0x7e>
1000692a:	f8df 8064 	ldr.w	r8, [pc, #100]	; 10006990 <prvAddNewTaskToReadyList+0xf0>
1000692e:	4c12      	ldr	r4, [pc, #72]	; (10006978 <prvAddNewTaskToReadyList+0xd8>)
10006930:	4640      	mov	r0, r8
10006932:	f7fe f9f1 	bl	10004d18 <vListInitialise>
10006936:	4620      	mov	r0, r4
10006938:	f7fe f9ee 	bl	10004d18 <vListInitialise>
1000693c:	480f      	ldr	r0, [pc, #60]	; (1000697c <prvAddNewTaskToReadyList+0xdc>)
1000693e:	f7fe f9eb 	bl	10004d18 <vListInitialise>
10006942:	480f      	ldr	r0, [pc, #60]	; (10006980 <prvAddNewTaskToReadyList+0xe0>)
10006944:	f7fe f9e8 	bl	10004d18 <vListInitialise>
10006948:	480e      	ldr	r0, [pc, #56]	; (10006984 <prvAddNewTaskToReadyList+0xe4>)
1000694a:	f7fe f9e5 	bl	10004d18 <vListInitialise>
1000694e:	4b0e      	ldr	r3, [pc, #56]	; (10006988 <prvAddNewTaskToReadyList+0xe8>)
10006950:	f8c3 8000 	str.w	r8, [r3]
10006954:	4b0d      	ldr	r3, [pc, #52]	; (1000698c <prvAddNewTaskToReadyList+0xec>)
10006956:	601c      	str	r4, [r3, #0]
10006958:	e7af      	b.n	100068ba <prvAddNewTaskToReadyList+0x1a>
1000695a:	4628      	mov	r0, r5
1000695c:	f7fe fe46 	bl	100055ec <prvYieldForTask>
10006960:	e7ce      	b.n	10006900 <prvAddNewTaskToReadyList+0x60>
10006962:	bf00      	nop
10006964:	200221a8 	.word	0x200221a8
10006968:	20022254 	.word	0x20022254
1000696c:	20001ee4 	.word	0x20001ee4
10006970:	200221b4 	.word	0x200221b4
10006974:	200221b8 	.word	0x200221b8
10006978:	200221fc 	.word	0x200221fc
1000697c:	20022240 	.word	0x20022240
10006980:	20022274 	.word	0x20022274
10006984:	20022260 	.word	0x20022260
10006988:	20001ed4 	.word	0x20001ed4
1000698c:	20001edc 	.word	0x20001edc
10006990:	200221e8 	.word	0x200221e8

10006994 <xTaskCreate>:
10006994:	e92d 43f8 	stmdb	sp!, {r3, r4, r5, r6, r7, r8, r9, lr}
10006998:	0096      	lsls	r6, r2, #2
1000699a:	4680      	mov	r8, r0
1000699c:	4630      	mov	r0, r6
1000699e:	460d      	mov	r5, r1
100069a0:	4699      	mov	r9, r3
100069a2:	f000 ffd5 	bl	10007950 <pvPortMalloc>
100069a6:	2800      	cmp	r0, #0
100069a8:	f000 80a4 	beq.w	10006af4 <xTaskCreate+0x160>
100069ac:	4607      	mov	r7, r0
100069ae:	207c      	movs	r0, #124	; 0x7c
100069b0:	f000 ffce 	bl	10007950 <pvPortMalloc>
100069b4:	4604      	mov	r4, r0
100069b6:	2800      	cmp	r0, #0
100069b8:	f000 80a0 	beq.w	10006afc <xTaskCreate+0x168>
100069bc:	227c      	movs	r2, #124	; 0x7c
100069be:	2100      	movs	r1, #0
100069c0:	f001 f90a 	bl	10007bd8 <memset>
100069c4:	4632      	mov	r2, r6
100069c6:	4638      	mov	r0, r7
100069c8:	21a5      	movs	r1, #165	; 0xa5
100069ca:	6367      	str	r7, [r4, #52]	; 0x34
100069cc:	f001 f904 	bl	10007bd8 <memset>
100069d0:	6b63      	ldr	r3, [r4, #52]	; 0x34
100069d2:	3e04      	subs	r6, #4
100069d4:	441e      	add	r6, r3
100069d6:	f026 0607 	bic.w	r6, r6, #7
100069da:	2d00      	cmp	r5, #0
100069dc:	d056      	beq.n	10006a8c <xTaskCreate+0xf8>
100069de:	782b      	ldrb	r3, [r5, #0]
100069e0:	f884 3040 	strb.w	r3, [r4, #64]	; 0x40
100069e4:	782b      	ldrb	r3, [r5, #0]
100069e6:	2b00      	cmp	r3, #0
100069e8:	d04d      	beq.n	10006a86 <xTaskCreate+0xf2>
100069ea:	786b      	ldrb	r3, [r5, #1]
100069ec:	f884 3041 	strb.w	r3, [r4, #65]	; 0x41
100069f0:	786b      	ldrb	r3, [r5, #1]
100069f2:	2b00      	cmp	r3, #0
100069f4:	d047      	beq.n	10006a86 <xTaskCreate+0xf2>
100069f6:	78ab      	ldrb	r3, [r5, #2]
100069f8:	f884 3042 	strb.w	r3, [r4, #66]	; 0x42
100069fc:	78ab      	ldrb	r3, [r5, #2]
100069fe:	2b00      	cmp	r3, #0
10006a00:	d041      	beq.n	10006a86 <xTaskCreate+0xf2>
10006a02:	78eb      	ldrb	r3, [r5, #3]
10006a04:	f884 3043 	strb.w	r3, [r4, #67]	; 0x43
10006a08:	78eb      	ldrb	r3, [r5, #3]
10006a0a:	2b00      	cmp	r3, #0
10006a0c:	d03b      	beq.n	10006a86 <xTaskCreate+0xf2>
10006a0e:	792b      	ldrb	r3, [r5, #4]
10006a10:	f884 3044 	strb.w	r3, [r4, #68]	; 0x44
10006a14:	792b      	ldrb	r3, [r5, #4]
10006a16:	2b00      	cmp	r3, #0
10006a18:	d035      	beq.n	10006a86 <xTaskCreate+0xf2>
10006a1a:	796b      	ldrb	r3, [r5, #5]
10006a1c:	f884 3045 	strb.w	r3, [r4, #69]	; 0x45
10006a20:	796b      	ldrb	r3, [r5, #5]
10006a22:	2b00      	cmp	r3, #0
10006a24:	d02f      	beq.n	10006a86 <xTaskCreate+0xf2>
10006a26:	79ab      	ldrb	r3, [r5, #6]
10006a28:	f884 3046 	strb.w	r3, [r4, #70]	; 0x46
10006a2c:	79ab      	ldrb	r3, [r5, #6]
10006a2e:	b353      	cbz	r3, 10006a86 <xTaskCreate+0xf2>
10006a30:	79eb      	ldrb	r3, [r5, #7]
10006a32:	f884 3047 	strb.w	r3, [r4, #71]	; 0x47
10006a36:	79eb      	ldrb	r3, [r5, #7]
10006a38:	b32b      	cbz	r3, 10006a86 <xTaskCreate+0xf2>
10006a3a:	7a2b      	ldrb	r3, [r5, #8]
10006a3c:	f884 3048 	strb.w	r3, [r4, #72]	; 0x48
10006a40:	7a2b      	ldrb	r3, [r5, #8]
10006a42:	b303      	cbz	r3, 10006a86 <xTaskCreate+0xf2>
10006a44:	7a6b      	ldrb	r3, [r5, #9]
10006a46:	f884 3049 	strb.w	r3, [r4, #73]	; 0x49
10006a4a:	7a6b      	ldrb	r3, [r5, #9]
10006a4c:	b1db      	cbz	r3, 10006a86 <xTaskCreate+0xf2>
10006a4e:	7aab      	ldrb	r3, [r5, #10]
10006a50:	f884 304a 	strb.w	r3, [r4, #74]	; 0x4a
10006a54:	7aab      	ldrb	r3, [r5, #10]
10006a56:	b1b3      	cbz	r3, 10006a86 <xTaskCreate+0xf2>
10006a58:	7aeb      	ldrb	r3, [r5, #11]
10006a5a:	f884 304b 	strb.w	r3, [r4, #75]	; 0x4b
10006a5e:	7aeb      	ldrb	r3, [r5, #11]
10006a60:	b18b      	cbz	r3, 10006a86 <xTaskCreate+0xf2>
10006a62:	7b2b      	ldrb	r3, [r5, #12]
10006a64:	f884 304c 	strb.w	r3, [r4, #76]	; 0x4c
10006a68:	7b2b      	ldrb	r3, [r5, #12]
10006a6a:	b163      	cbz	r3, 10006a86 <xTaskCreate+0xf2>
10006a6c:	7b6b      	ldrb	r3, [r5, #13]
10006a6e:	f884 304d 	strb.w	r3, [r4, #77]	; 0x4d
10006a72:	7b6b      	ldrb	r3, [r5, #13]
10006a74:	b13b      	cbz	r3, 10006a86 <xTaskCreate+0xf2>
10006a76:	7bab      	ldrb	r3, [r5, #14]
10006a78:	f884 304e 	strb.w	r3, [r4, #78]	; 0x4e
10006a7c:	7bab      	ldrb	r3, [r5, #14]
10006a7e:	b113      	cbz	r3, 10006a86 <xTaskCreate+0xf2>
10006a80:	7beb      	ldrb	r3, [r5, #15]
10006a82:	f884 304f 	strb.w	r3, [r4, #79]	; 0x4f
10006a86:	2300      	movs	r3, #0
10006a88:	f884 304f 	strb.w	r3, [r4, #79]	; 0x4f
10006a8c:	9d08      	ldr	r5, [sp, #32]
10006a8e:	f104 0008 	add.w	r0, r4, #8
10006a92:	2d1f      	cmp	r5, #31
10006a94:	bf28      	it	cs
10006a96:	251f      	movcs	r5, #31
10006a98:	6325      	str	r5, [r4, #48]	; 0x30
10006a9a:	65a5      	str	r5, [r4, #88]	; 0x58
10006a9c:	f7fe f948 	bl	10004d30 <vListInitialiseItem>
10006aa0:	f1c5 0520 	rsb	r5, r5, #32
10006aa4:	f104 001c 	add.w	r0, r4, #28
10006aa8:	f7fe f942 	bl	10004d30 <vListInitialiseItem>
10006aac:	464b      	mov	r3, r9
10006aae:	4642      	mov	r2, r8
10006ab0:	4630      	mov	r0, r6
10006ab2:	6b61      	ldr	r1, [r4, #52]	; 0x34
10006ab4:	6164      	str	r4, [r4, #20]
10006ab6:	61e5      	str	r5, [r4, #28]
10006ab8:	62a4      	str	r4, [r4, #40]	; 0x28
10006aba:	f7fd fe67 	bl	1000478c <pxPortInitialiseStack>
10006abe:	f04f 32ff 	mov.w	r2, #4294967295	; 0xffffffff
10006ac2:	4b12      	ldr	r3, [pc, #72]	; (10006b0c <xTaskCreate+0x178>)
10006ac4:	6020      	str	r0, [r4, #0]
10006ac6:	4598      	cmp	r8, r3
10006ac8:	63a2      	str	r2, [r4, #56]	; 0x38
10006aca:	d00e      	beq.n	10006aea <xTaskCreate+0x156>
10006acc:	4b10      	ldr	r3, [pc, #64]	; (10006b10 <xTaskCreate+0x17c>)
10006ace:	4598      	cmp	r8, r3
10006ad0:	d00b      	beq.n	10006aea <xTaskCreate+0x156>
10006ad2:	9b09      	ldr	r3, [sp, #36]	; 0x24
10006ad4:	b103      	cbz	r3, 10006ad8 <xTaskCreate+0x144>
10006ad6:	601c      	str	r4, [r3, #0]
10006ad8:	f04f 33ff 	mov.w	r3, #4294967295	; 0xffffffff
10006adc:	4620      	mov	r0, r4
10006ade:	6063      	str	r3, [r4, #4]
10006ae0:	f7ff fede 	bl	100068a0 <prvAddNewTaskToReadyList>
10006ae4:	2001      	movs	r0, #1
10006ae6:	e8bd 83f8 	ldmia.w	sp!, {r3, r4, r5, r6, r7, r8, r9, pc}
10006aea:	6be3      	ldr	r3, [r4, #60]	; 0x3c
10006aec:	f043 0301 	orr.w	r3, r3, #1
10006af0:	63e3      	str	r3, [r4, #60]	; 0x3c
10006af2:	e7ee      	b.n	10006ad2 <xTaskCreate+0x13e>
10006af4:	f04f 30ff 	mov.w	r0, #4294967295	; 0xffffffff
10006af8:	e8bd 83f8 	ldmia.w	sp!, {r3, r4, r5, r6, r7, r8, r9, pc}
10006afc:	4638      	mov	r0, r7
10006afe:	f000 ffab 	bl	10007a58 <vPortFree>
10006b02:	f04f 30ff 	mov.w	r0, #4294967295	; 0xffffffff
10006b06:	e8bd 83f8 	ldmia.w	sp!, {r3, r4, r5, r6, r7, r8, r9, pc}
10006b0a:	bf00      	nop
10006b0c:	10005b51 	.word	0x10005b51
10006b10:	100055cd 	.word	0x100055cd

10006b14 <xTaskCreateAffinitySet>:
10006b14:	e92d 43f8 	stmdb	sp!, {r3, r4, r5, r6, r7, r8, r9, lr}
10006b18:	0096      	lsls	r6, r2, #2
10006b1a:	4680      	mov	r8, r0
10006b1c:	4630      	mov	r0, r6
10006b1e:	460d      	mov	r5, r1
10006b20:	4699      	mov	r9, r3
10006b22:	f000 ff15 	bl	10007950 <pvPortMalloc>
10006b26:	2800      	cmp	r0, #0
10006b28:	f000 80a3 	beq.w	10006c72 <xTaskCreateAffinitySet+0x15e>
10006b2c:	4607      	mov	r7, r0
10006b2e:	207c      	movs	r0, #124	; 0x7c
10006b30:	f000 ff0e 	bl	10007950 <pvPortMalloc>
10006b34:	4604      	mov	r4, r0
10006b36:	2800      	cmp	r0, #0
10006b38:	f000 809f 	beq.w	10006c7a <xTaskCreateAffinitySet+0x166>
10006b3c:	227c      	movs	r2, #124	; 0x7c
10006b3e:	2100      	movs	r1, #0
10006b40:	f001 f84a 	bl	10007bd8 <memset>
10006b44:	4632      	mov	r2, r6
10006b46:	4638      	mov	r0, r7
10006b48:	21a5      	movs	r1, #165	; 0xa5
10006b4a:	6367      	str	r7, [r4, #52]	; 0x34
10006b4c:	f001 f844 	bl	10007bd8 <memset>
10006b50:	6b63      	ldr	r3, [r4, #52]	; 0x34
10006b52:	3e04      	subs	r6, #4
10006b54:	441e      	add	r6, r3
10006b56:	f026 0607 	bic.w	r6, r6, #7
10006b5a:	2d00      	cmp	r5, #0
10006b5c:	d056      	beq.n	10006c0c <xTaskCreateAffinitySet+0xf8>
10006b5e:	782b      	ldrb	r3, [r5, #0]
10006b60:	f884 3040 	strb.w	r3, [r4, #64]	; 0x40
10006b64:	782b      	ldrb	r3, [r5, #0]
10006b66:	2b00      	cmp	r3, #0
10006b68:	d04d      	beq.n	10006c06 <xTaskCreateAffinitySet+0xf2>
10006b6a:	786b      	ldrb	r3, [r5, #1]
10006b6c:	f884 3041 	strb.w	r3, [r4, #65]	; 0x41
10006b70:	786b      	ldrb	r3, [r5, #1]
10006b72:	2b00      	cmp	r3, #0
10006b74:	d047      	beq.n	10006c06 <xTaskCreateAffinitySet+0xf2>
10006b76:	78ab      	ldrb	r3, [r5, #2]
10006b78:	f884 3042 	strb.w	r3, [r4, #66]	; 0x42
10006b7c:	78ab      	ldrb	r3, [r5, #2]
10006b7e:	2b00      	cmp	r3, #0
10006b80:	d041      	beq.n	10006c06 <xTaskCreateAffinitySet+0xf2>
10006b82:	78eb      	ldrb	r3, [r5, #3]
10006b84:	f884 3043 	strb.w	r3, [r4, #67]	; 0x43
10006b88:	78eb      	ldrb	r3, [r5, #3]
10006b8a:	2b00      	cmp	r3, #0
10006b8c:	d03b      	beq.n	10006c06 <xTaskCreateAffinitySet+0xf2>
10006b8e:	792b      	ldrb	r3, [r5, #4]
10006b90:	f884 3044 	strb.w	r3, [r4, #68]	; 0x44
10006b94:	792b      	ldrb	r3, [r5, #4]
10006b96:	2b00      	cmp	r3, #0
10006b98:	d035      	beq.n	10006c06 <xTaskCreateAffinitySet+0xf2>
10006b9a:	796b      	ldrb	r3, [r5, #5]
10006b9c:	f884 3045 	strb.w	r3, [r4, #69]	; 0x45
10006ba0:	796b      	ldrb	r3, [r5, #5]
10006ba2:	2b00      	cmp	r3, #0
10006ba4:	d02f      	beq.n	10006c06 <xTaskCreateAffinitySet+0xf2>
10006ba6:	79ab      	ldrb	r3, [r5, #6]
10006ba8:	f884 3046 	strb.w	r3, [r4, #70]	; 0x46
10006bac:	79ab      	ldrb	r3, [r5, #6]
10006bae:	b353      	cbz	r3, 10006c06 <xTaskCreateAffinitySet+0xf2>
10006bb0:	79eb      	ldrb	r3, [r5, #7]
10006bb2:	f884 3047 	strb.w	r3, [r4, #71]	; 0x47
10006bb6:	79eb      	ldrb	r3, [r5, #7]
10006bb8:	b32b      	cbz	r3, 10006c06 <xTaskCreateAffinitySet+0xf2>
10006bba:	7a2b      	ldrb	r3, [r5, #8]
10006bbc:	f884 3048 	strb.w	r3, [r4, #72]	; 0x48
10006bc0:	7a2b      	ldrb	r3, [r5, #8]
10006bc2:	b303      	cbz	r3, 10006c06 <xTaskCreateAffinitySet+0xf2>
10006bc4:	7a6b      	ldrb	r3, [r5, #9]
10006bc6:	f884 3049 	strb.w	r3, [r4, #73]	; 0x49
10006bca:	7a6b      	ldrb	r3, [r5, #9]
10006bcc:	b1db      	cbz	r3, 10006c06 <xTaskCreateAffinitySet+0xf2>
10006bce:	7aab      	ldrb	r3, [r5, #10]
10006bd0:	f884 304a 	strb.w	r3, [r4, #74]	; 0x4a
10006bd4:	7aab      	ldrb	r3, [r5, #10]
10006bd6:	b1b3      	cbz	r3, 10006c06 <xTaskCreateAffinitySet+0xf2>
10006bd8:	7aeb      	ldrb	r3, [r5, #11]
10006bda:	f884 304b 	strb.w	r3, [r4, #75]	; 0x4b
10006bde:	7aeb      	ldrb	r3, [r5, #11]
10006be0:	b18b      	cbz	r3, 10006c06 <xTaskCreateAffinitySet+0xf2>
10006be2:	7b2b      	ldrb	r3, [r5, #12]
10006be4:	f884 304c 	strb.w	r3, [r4, #76]	; 0x4c
10006be8:	7b2b      	ldrb	r3, [r5, #12]
10006bea:	b163      	cbz	r3, 10006c06 <xTaskCreateAffinitySet+0xf2>
10006bec:	7b6b      	ldrb	r3, [r5, #13]
10006bee:	f884 304d 	strb.w	r3, [r4, #77]	; 0x4d
10006bf2:	7b6b      	ldrb	r3, [r5, #13]
10006bf4:	b13b      	cbz	r3, 10006c06 <xTaskCreateAffinitySet+0xf2>
10006bf6:	7bab      	ldrb	r3, [r5, #14]
10006bf8:	f884 304e 	strb.w	r3, [r4, #78]	; 0x4e
10006bfc:	7bab      	ldrb	r3, [r5, #14]
10006bfe:	b113      	cbz	r3, 10006c06 <xTaskCreateAffinitySet+0xf2>
10006c00:	7beb      	ldrb	r3, [r5, #15]
10006c02:	f884 304f 	strb.w	r3, [r4, #79]	; 0x4f
10006c06:	2300      	movs	r3, #0
10006c08:	f884 304f 	strb.w	r3, [r4, #79]	; 0x4f
10006c0c:	9d08      	ldr	r5, [sp, #32]
10006c0e:	f104 0008 	add.w	r0, r4, #8
10006c12:	2d1f      	cmp	r5, #31
10006c14:	bf28      	it	cs
10006c16:	251f      	movcs	r5, #31
10006c18:	6325      	str	r5, [r4, #48]	; 0x30
10006c1a:	65a5      	str	r5, [r4, #88]	; 0x58
10006c1c:	f7fe f888 	bl	10004d30 <vListInitialiseItem>
10006c20:	f1c5 0520 	rsb	r5, r5, #32
10006c24:	f104 001c 	add.w	r0, r4, #28
10006c28:	f7fe f882 	bl	10004d30 <vListInitialiseItem>
10006c2c:	464b      	mov	r3, r9
10006c2e:	4642      	mov	r2, r8
10006c30:	4630      	mov	r0, r6
10006c32:	6b61      	ldr	r1, [r4, #52]	; 0x34
10006c34:	6164      	str	r4, [r4, #20]
10006c36:	61e5      	str	r5, [r4, #28]
10006c38:	62a4      	str	r4, [r4, #40]	; 0x28
10006c3a:	f7fd fda7 	bl	1000478c <pxPortInitialiseStack>
10006c3e:	f04f 32ff 	mov.w	r2, #4294967295	; 0xffffffff
10006c42:	4b11      	ldr	r3, [pc, #68]	; (10006c88 <xTaskCreateAffinitySet+0x174>)
10006c44:	6020      	str	r0, [r4, #0]
10006c46:	4598      	cmp	r8, r3
10006c48:	63a2      	str	r2, [r4, #56]	; 0x38
10006c4a:	d00d      	beq.n	10006c68 <xTaskCreateAffinitySet+0x154>
10006c4c:	4b0f      	ldr	r3, [pc, #60]	; (10006c8c <xTaskCreateAffinitySet+0x178>)
10006c4e:	4598      	cmp	r8, r3
10006c50:	d00a      	beq.n	10006c68 <xTaskCreateAffinitySet+0x154>
10006c52:	9b0a      	ldr	r3, [sp, #40]	; 0x28
10006c54:	b103      	cbz	r3, 10006c58 <xTaskCreateAffinitySet+0x144>
10006c56:	601c      	str	r4, [r3, #0]
10006c58:	9b09      	ldr	r3, [sp, #36]	; 0x24
10006c5a:	4620      	mov	r0, r4
10006c5c:	6063      	str	r3, [r4, #4]
10006c5e:	f7ff fe1f 	bl	100068a0 <prvAddNewTaskToReadyList>
10006c62:	2001      	movs	r0, #1
10006c64:	e8bd 83f8 	ldmia.w	sp!, {r3, r4, r5, r6, r7, r8, r9, pc}
10006c68:	6be3      	ldr	r3, [r4, #60]	; 0x3c
10006c6a:	f043 0301 	orr.w	r3, r3, #1
10006c6e:	63e3      	str	r3, [r4, #60]	; 0x3c
10006c70:	e7ef      	b.n	10006c52 <xTaskCreateAffinitySet+0x13e>
10006c72:	f04f 30ff 	mov.w	r0, #4294967295	; 0xffffffff
10006c76:	e8bd 83f8 	ldmia.w	sp!, {r3, r4, r5, r6, r7, r8, r9, pc}
10006c7a:	4638      	mov	r0, r7
10006c7c:	f000 feec 	bl	10007a58 <vPortFree>
10006c80:	f04f 30ff 	mov.w	r0, #4294967295	; 0xffffffff
10006c84:	e8bd 83f8 	ldmia.w	sp!, {r3, r4, r5, r6, r7, r8, r9, pc}
10006c88:	10005b51 	.word	0x10005b51
10006c8c:	100055cd 	.word	0x100055cd

10006c90 <vTaskStartScheduler>:
10006c90:	e92d 4ff8 	stmdb	sp!, {r3, r4, r5, r6, r7, r8, r9, sl, fp, lr}
10006c94:	f44f 6000 	mov.w	r0, #2048	; 0x800
10006c98:	2600      	movs	r6, #0
10006c9a:	f000 fe59 	bl	10007950 <pvPortMalloc>
10006c9e:	f8df 8120 	ldr.w	r8, [pc, #288]	; 10006dc0 <vTaskStartScheduler+0x130>
10006ca2:	4605      	mov	r5, r0
10006ca4:	4f44      	ldr	r7, [pc, #272]	; (10006db8 <vTaskStartScheduler+0x128>)
10006ca6:	f8df 9130 	ldr.w	r9, [pc, #304]	; 10006dd8 <vTaskStartScheduler+0x148>
10006caa:	f106 0a30 	add.w	sl, r6, #48	; 0x30
10006cae:	2800      	cmp	r0, #0
10006cb0:	d05e      	beq.n	10006d70 <vTaskStartScheduler+0xe0>
10006cb2:	207c      	movs	r0, #124	; 0x7c
10006cb4:	f000 fe4c 	bl	10007950 <pvPortMalloc>
10006cb8:	4604      	mov	r4, r0
10006cba:	2800      	cmp	r0, #0
10006cbc:	d060      	beq.n	10006d80 <vTaskStartScheduler+0xf0>
10006cbe:	f04f 0b00 	mov.w	fp, #0
10006cc2:	227c      	movs	r2, #124	; 0x7c
10006cc4:	4659      	mov	r1, fp
10006cc6:	f000 ff87 	bl	10007bd8 <memset>
10006cca:	f44f 6200 	mov.w	r2, #2048	; 0x800
10006cce:	21a5      	movs	r1, #165	; 0xa5
10006cd0:	4628      	mov	r0, r5
10006cd2:	6365      	str	r5, [r4, #52]	; 0x34
10006cd4:	f000 ff80 	bl	10007bd8 <memset>
10006cd8:	6b60      	ldr	r0, [r4, #52]	; 0x34
10006cda:	4b38      	ldr	r3, [pc, #224]	; (10006dbc <vTaskStartScheduler+0x12c>)
10006cdc:	f200 70fc 	addw	r0, r0, #2044	; 0x7fc
10006ce0:	6423      	str	r3, [r4, #64]	; 0x40
10006ce2:	f020 0507 	bic.w	r5, r0, #7
10006ce6:	f884 a044 	strb.w	sl, [r4, #68]	; 0x44
10006cea:	f104 0008 	add.w	r0, r4, #8
10006cee:	f884 b045 	strb.w	fp, [r4, #69]	; 0x45
10006cf2:	f884 b04f 	strb.w	fp, [r4, #79]	; 0x4f
10006cf6:	f8c4 b030 	str.w	fp, [r4, #48]	; 0x30
10006cfa:	f8c4 b058 	str.w	fp, [r4, #88]	; 0x58
10006cfe:	f7fe f817 	bl	10004d30 <vListInitialiseItem>
10006d02:	f104 001c 	add.w	r0, r4, #28
10006d06:	f7fe f813 	bl	10004d30 <vListInitialiseItem>
10006d0a:	2220      	movs	r2, #32
10006d0c:	465b      	mov	r3, fp
10006d0e:	61e2      	str	r2, [r4, #28]
10006d10:	4628      	mov	r0, r5
10006d12:	4642      	mov	r2, r8
10006d14:	6b61      	ldr	r1, [r4, #52]	; 0x34
10006d16:	6164      	str	r4, [r4, #20]
10006d18:	62a4      	str	r4, [r4, #40]	; 0x28
10006d1a:	f7fd fd37 	bl	1000478c <pxPortInitialiseStack>
10006d1e:	f04f 33ff 	mov.w	r3, #4294967295	; 0xffffffff
10006d22:	63a3      	str	r3, [r4, #56]	; 0x38
10006d24:	4b26      	ldr	r3, [pc, #152]	; (10006dc0 <vTaskStartScheduler+0x130>)
10006d26:	6020      	str	r0, [r4, #0]
10006d28:	4598      	cmp	r8, r3
10006d2a:	d024      	beq.n	10006d76 <vTaskStartScheduler+0xe6>
10006d2c:	45c8      	cmp	r8, r9
10006d2e:	d022      	beq.n	10006d76 <vTaskStartScheduler+0xe6>
10006d30:	f04f 33ff 	mov.w	r3, #4294967295	; 0xffffffff
10006d34:	603c      	str	r4, [r7, #0]
10006d36:	4620      	mov	r0, r4
10006d38:	6063      	str	r3, [r4, #4]
10006d3a:	f7ff fdb1 	bl	100068a0 <prvAddNewTaskToReadyList>
10006d3e:	2401      	movs	r4, #1
10006d40:	f857 3b04 	ldr.w	r3, [r7], #4
10006d44:	4a1f      	ldr	r2, [pc, #124]	; (10006dc4 <vTaskStartScheduler+0x134>)
10006d46:	639e      	str	r6, [r3, #56]	; 0x38
10006d48:	46c8      	mov	r8, r9
10006d4a:	f842 3026 	str.w	r3, [r2, r6, lsl #2]
10006d4e:	b12e      	cbz	r6, 10006d5c <vTaskStartScheduler+0xcc>
10006d50:	2c01      	cmp	r4, #1
10006d52:	d01b      	beq.n	10006d8c <vTaskStartScheduler+0xfc>
10006d54:	4b1c      	ldr	r3, [pc, #112]	; (10006dc8 <vTaskStartScheduler+0x138>)
10006d56:	681b      	ldr	r3, [r3, #0]
10006d58:	e8bd 8ff8 	ldmia.w	sp!, {r3, r4, r5, r6, r7, r8, r9, sl, fp, pc}
10006d5c:	f44f 6000 	mov.w	r0, #2048	; 0x800
10006d60:	2601      	movs	r6, #1
10006d62:	f000 fdf5 	bl	10007950 <pvPortMalloc>
10006d66:	f106 0a30 	add.w	sl, r6, #48	; 0x30
10006d6a:	4605      	mov	r5, r0
10006d6c:	2800      	cmp	r0, #0
10006d6e:	d1a0      	bne.n	10006cb2 <vTaskStartScheduler+0x22>
10006d70:	f04f 34ff 	mov.w	r4, #4294967295	; 0xffffffff
10006d74:	e7e4      	b.n	10006d40 <vTaskStartScheduler+0xb0>
10006d76:	6be3      	ldr	r3, [r4, #60]	; 0x3c
10006d78:	f043 0301 	orr.w	r3, r3, #1
10006d7c:	63e3      	str	r3, [r4, #60]	; 0x3c
10006d7e:	e7d7      	b.n	10006d30 <vTaskStartScheduler+0xa0>
10006d80:	4628      	mov	r0, r5
10006d82:	f000 fe69 	bl	10007a58 <vPortFree>
10006d86:	f04f 34ff 	mov.w	r4, #4294967295	; 0xffffffff
10006d8a:	e7d9      	b.n	10006d40 <vTaskStartScheduler+0xb0>
10006d8c:	f000 fc70 	bl	10007670 <xTimerCreateTimerTask>
10006d90:	2801      	cmp	r0, #1
10006d92:	d1df      	bne.n	10006d54 <vTaskStartScheduler+0xc4>
10006d94:	f7fd fe78 	bl	10004a88 <ulSetInterruptMask>
10006d98:	f04f 35ff 	mov.w	r5, #4294967295	; 0xffffffff
10006d9c:	2200      	movs	r2, #0
10006d9e:	4b0b      	ldr	r3, [pc, #44]	; (10006dcc <vTaskStartScheduler+0x13c>)
10006da0:	480b      	ldr	r0, [pc, #44]	; (10006dd0 <vTaskStartScheduler+0x140>)
10006da2:	490c      	ldr	r1, [pc, #48]	; (10006dd4 <vTaskStartScheduler+0x144>)
10006da4:	6005      	str	r5, [r0, #0]
10006da6:	600c      	str	r4, [r1, #0]
10006da8:	601a      	str	r2, [r3, #0]
10006daa:	f7fd fd2d 	bl	10004808 <xPortStartScheduler>
10006dae:	4b06      	ldr	r3, [pc, #24]	; (10006dc8 <vTaskStartScheduler+0x138>)
10006db0:	681b      	ldr	r3, [r3, #0]
10006db2:	e8bd 8ff8 	ldmia.w	sp!, {r3, r4, r5, r6, r7, r8, r9, sl, fp, pc}
10006db6:	bf00      	nop
10006db8:	20022218 	.word	0x20022218
10006dbc:	454c4449 	.word	0x454c4449
10006dc0:	10005b51 	.word	0x10005b51
10006dc4:	20001ec8 	.word	0x20001ec8
10006dc8:	2000126c 	.word	0x2000126c
10006dcc:	20022288 	.word	0x20022288
10006dd0:	2002222c 	.word	0x2002222c
10006dd4:	20022254 	.word	0x20022254
10006dd8:	100055cd 	.word	0x100055cd

10006ddc <xTaskResumeAll.part.0>:
10006ddc:	e92d 43f0 	stmdb	sp!, {r4, r5, r6, r7, r8, r9, lr}
10006de0:	b083      	sub	sp, #12
10006de2:	f7ff fccf 	bl	10006784 <vTaskEnterCritical>
10006de6:	f04f 4050 	mov.w	r0, #3489660928	; 0xd0000000
10006dea:	4a4b      	ldr	r2, [pc, #300]	; (10006f18 <xTaskResumeAll.part.0+0x13c>)
10006dec:	494b      	ldr	r1, [pc, #300]	; (10006f1c <xTaskResumeAll.part.0+0x140>)
10006dee:	6813      	ldr	r3, [r2, #0]
10006df0:	6804      	ldr	r4, [r0, #0]
10006df2:	3b01      	subs	r3, #1
10006df4:	6013      	str	r3, [r2, #0]
10006df6:	784b      	ldrb	r3, [r1, #1]
10006df8:	6800      	ldr	r0, [r0, #0]
10006dfa:	3b01      	subs	r3, #1
10006dfc:	b2db      	uxtb	r3, r3
10006dfe:	704b      	strb	r3, [r1, #1]
10006e00:	b933      	cbnz	r3, 10006e10 <xTaskResumeAll.part.0+0x34>
10006e02:	4947      	ldr	r1, [pc, #284]	; (10006f20 <xTaskResumeAll.part.0+0x144>)
10006e04:	eb01 0140 	add.w	r1, r1, r0, lsl #1
10006e08:	704b      	strb	r3, [r1, #1]
10006e0a:	4946      	ldr	r1, [pc, #280]	; (10006f24 <xTaskResumeAll.part.0+0x148>)
10006e0c:	e8c1 3f8f 	stlb	r3, [r1]
10006e10:	6817      	ldr	r7, [r2, #0]
10006e12:	2f00      	cmp	r7, #0
10006e14:	d170      	bne.n	10006ef8 <xTaskResumeAll.part.0+0x11c>
10006e16:	4b44      	ldr	r3, [pc, #272]	; (10006f28 <xTaskResumeAll.part.0+0x14c>)
10006e18:	6818      	ldr	r0, [r3, #0]
10006e1a:	2800      	cmp	r0, #0
10006e1c:	d062      	beq.n	10006ee4 <xTaskResumeAll.part.0+0x108>
10006e1e:	4e43      	ldr	r6, [pc, #268]	; (10006f2c <xTaskResumeAll.part.0+0x150>)
10006e20:	6833      	ldr	r3, [r6, #0]
10006e22:	2b00      	cmp	r3, #0
10006e24:	d049      	beq.n	10006eba <xTaskResumeAll.part.0+0xde>
10006e26:	f8df c11c 	ldr.w	ip, [pc, #284]	; 10006f44 <xTaskResumeAll.part.0+0x168>
10006e2a:	4d41      	ldr	r5, [pc, #260]	; (10006f30 <xTaskResumeAll.part.0+0x154>)
10006e2c:	68f3      	ldr	r3, [r6, #12]
10006e2e:	68db      	ldr	r3, [r3, #12]
10006e30:	6ada      	ldr	r2, [r3, #44]	; 0x2c
10006e32:	e9d3 1008 	ldrd	r1, r0, [r3, #32]
10006e36:	6088      	str	r0, [r1, #8]
10006e38:	6041      	str	r1, [r0, #4]
10006e3a:	6851      	ldr	r1, [r2, #4]
10006e3c:	f103 0e1c 	add.w	lr, r3, #28
10006e40:	4571      	cmp	r1, lr
10006e42:	6811      	ldr	r1, [r2, #0]
10006e44:	bf08      	it	eq
10006e46:	6050      	streq	r0, [r2, #4]
10006e48:	3901      	subs	r1, #1
10006e4a:	62df      	str	r7, [r3, #44]	; 0x2c
10006e4c:	6011      	str	r1, [r2, #0]
10006e4e:	6999      	ldr	r1, [r3, #24]
10006e50:	f103 0e08 	add.w	lr, r3, #8
10006e54:	f8d1 8004 	ldr.w	r8, [r1, #4]
10006e58:	e9d3 0203 	ldrd	r0, r2, [r3, #12]
10006e5c:	45f0      	cmp	r8, lr
10006e5e:	6082      	str	r2, [r0, #8]
10006e60:	6050      	str	r0, [r2, #4]
10006e62:	bf08      	it	eq
10006e64:	604a      	streq	r2, [r1, #4]
10006e66:	6b1a      	ldr	r2, [r3, #48]	; 0x30
10006e68:	f8dc 9000 	ldr.w	r9, [ip]
10006e6c:	eb02 0882 	add.w	r8, r2, r2, lsl #2
10006e70:	6808      	ldr	r0, [r1, #0]
10006e72:	454a      	cmp	r2, r9
10006e74:	eb05 0988 	add.w	r9, r5, r8, lsl #2
10006e78:	bf88      	it	hi
10006e7a:	f8cc 2000 	strhi.w	r2, [ip]
10006e7e:	f8d9 2004 	ldr.w	r2, [r9, #4]
10006e82:	3801      	subs	r0, #1
10006e84:	6008      	str	r0, [r1, #0]
10006e86:	6890      	ldr	r0, [r2, #8]
10006e88:	f855 1028 	ldr.w	r1, [r5, r8, lsl #2]
10006e8c:	6118      	str	r0, [r3, #16]
10006e8e:	6890      	ldr	r0, [r2, #8]
10006e90:	60da      	str	r2, [r3, #12]
10006e92:	f8c0 e004 	str.w	lr, [r0, #4]
10006e96:	6830      	ldr	r0, [r6, #0]
10006e98:	3101      	adds	r1, #1
10006e9a:	f8c2 e008 	str.w	lr, [r2, #8]
10006e9e:	f8c3 9018 	str.w	r9, [r3, #24]
10006ea2:	f845 1028 	str.w	r1, [r5, r8, lsl #2]
10006ea6:	2800      	cmp	r0, #0
10006ea8:	d1c0      	bne.n	10006e2c <xTaskResumeAll.part.0+0x50>
10006eaa:	4b22      	ldr	r3, [pc, #136]	; (10006f34 <xTaskResumeAll.part.0+0x158>)
10006eac:	681a      	ldr	r2, [r3, #0]
10006eae:	6812      	ldr	r2, [r2, #0]
10006eb0:	bb5a      	cbnz	r2, 10006f0a <xTaskResumeAll.part.0+0x12e>
10006eb2:	f04f 32ff 	mov.w	r2, #4294967295	; 0xffffffff
10006eb6:	4b20      	ldr	r3, [pc, #128]	; (10006f38 <xTaskResumeAll.part.0+0x15c>)
10006eb8:	601a      	str	r2, [r3, #0]
10006eba:	f8df 808c 	ldr.w	r8, [pc, #140]	; 10006f48 <xTaskResumeAll.part.0+0x16c>
10006ebe:	f8d8 5000 	ldr.w	r5, [r8]
10006ec2:	b1dd      	cbz	r5, 10006efc <xTaskResumeAll.part.0+0x120>
10006ec4:	2701      	movs	r7, #1
10006ec6:	4e1d      	ldr	r6, [pc, #116]	; (10006f3c <xTaskResumeAll.part.0+0x160>)
10006ec8:	f7fe ff0a 	bl	10005ce0 <xTaskIncrementTick>
10006ecc:	b108      	cbz	r0, 10006ed2 <xTaskResumeAll.part.0+0xf6>
10006ece:	f846 7024 	str.w	r7, [r6, r4, lsl #2]
10006ed2:	3d01      	subs	r5, #1
10006ed4:	d1f8      	bne.n	10006ec8 <xTaskResumeAll.part.0+0xec>
10006ed6:	f8c8 5000 	str.w	r5, [r8]
10006eda:	f856 0024 	ldr.w	r0, [r6, r4, lsl #2]
10006ede:	3800      	subs	r0, #0
10006ee0:	bf18      	it	ne
10006ee2:	2001      	movne	r0, #1
10006ee4:	4b16      	ldr	r3, [pc, #88]	; (10006f40 <xTaskResumeAll.part.0+0x164>)
10006ee6:	681b      	ldr	r3, [r3, #0]
10006ee8:	b11b      	cbz	r3, 10006ef2 <xTaskResumeAll.part.0+0x116>
10006eea:	9001      	str	r0, [sp, #4]
10006eec:	f7fe fbe4 	bl	100056b8 <vTaskExitCritical.part.0>
10006ef0:	9801      	ldr	r0, [sp, #4]
10006ef2:	b003      	add	sp, #12
10006ef4:	e8bd 83f0 	ldmia.w	sp!, {r4, r5, r6, r7, r8, r9, pc}
10006ef8:	2000      	movs	r0, #0
10006efa:	e7f3      	b.n	10006ee4 <xTaskResumeAll.part.0+0x108>
10006efc:	4e0f      	ldr	r6, [pc, #60]	; (10006f3c <xTaskResumeAll.part.0+0x160>)
10006efe:	f856 0024 	ldr.w	r0, [r6, r4, lsl #2]
10006f02:	3800      	subs	r0, #0
10006f04:	bf18      	it	ne
10006f06:	2001      	movne	r0, #1
10006f08:	e7ec      	b.n	10006ee4 <xTaskResumeAll.part.0+0x108>
10006f0a:	681a      	ldr	r2, [r3, #0]
10006f0c:	4b0a      	ldr	r3, [pc, #40]	; (10006f38 <xTaskResumeAll.part.0+0x15c>)
10006f0e:	68d2      	ldr	r2, [r2, #12]
10006f10:	6812      	ldr	r2, [r2, #0]
10006f12:	601a      	str	r2, [r3, #0]
10006f14:	e7d1      	b.n	10006eba <xTaskResumeAll.part.0+0xde>
10006f16:	bf00      	nop
10006f18:	200221b0 	.word	0x200221b0
10006f1c:	20022184 	.word	0x20022184
10006f20:	20022180 	.word	0x20022180
10006f24:	20001617 	.word	0x20001617
10006f28:	200221a8 	.word	0x200221a8
10006f2c:	20022240 	.word	0x20022240
10006f30:	20001ee4 	.word	0x20001ee4
10006f34:	20001ed4 	.word	0x20001ed4
10006f38:	2002222c 	.word	0x2002222c
10006f3c:	20022294 	.word	0x20022294
10006f40:	20022254 	.word	0x20022254
10006f44:	200221b8 	.word	0x200221b8
10006f48:	2002223c 	.word	0x2002223c

10006f4c <xTaskResumeAll>:
10006f4c:	4b02      	ldr	r3, [pc, #8]	; (10006f58 <xTaskResumeAll+0xc>)
10006f4e:	6818      	ldr	r0, [r3, #0]
10006f50:	b900      	cbnz	r0, 10006f54 <xTaskResumeAll+0x8>
10006f52:	4770      	bx	lr
10006f54:	f7ff bf42 	b.w	10006ddc <xTaskResumeAll.part.0>
10006f58:	20022254 	.word	0x20022254

10006f5c <vTaskDelay>:
10006f5c:	b510      	push	{r4, lr}
10006f5e:	b082      	sub	sp, #8
10006f60:	b138      	cbz	r0, 10006f72 <vTaskDelay+0x16>
10006f62:	4c15      	ldr	r4, [pc, #84]	; (10006fb8 <vTaskDelay+0x5c>)
10006f64:	6823      	ldr	r3, [r4, #0]
10006f66:	b9db      	cbnz	r3, 10006fa0 <vTaskDelay+0x44>
10006f68:	2100      	movs	r1, #0
10006f6a:	f7fe fdff 	bl	10005b6c <prvAddCurrentTaskToDelayedList>
10006f6e:	6823      	ldr	r3, [r4, #0]
10006f70:	b98b      	cbnz	r3, 10006f96 <vTaskDelay+0x3a>
10006f72:	f04f 4350 	mov.w	r3, #3489660928	; 0xd0000000
10006f76:	4a11      	ldr	r2, [pc, #68]	; (10006fbc <vTaskDelay+0x60>)
10006f78:	681b      	ldr	r3, [r3, #0]
10006f7a:	f852 2023 	ldr.w	r2, [r2, r3, lsl #2]
10006f7e:	b12a      	cbz	r2, 10006f8c <vTaskDelay+0x30>
10006f80:	2101      	movs	r1, #1
10006f82:	4a0f      	ldr	r2, [pc, #60]	; (10006fc0 <vTaskDelay+0x64>)
10006f84:	f842 1023 	str.w	r1, [r2, r3, lsl #2]
10006f88:	b002      	add	sp, #8
10006f8a:	bd10      	pop	{r4, pc}
10006f8c:	b002      	add	sp, #8
10006f8e:	e8bd 4010 	ldmia.w	sp!, {r4, lr}
10006f92:	f7fd bbd9 	b.w	10004748 <vPortYield>
10006f96:	f7ff ff21 	bl	10006ddc <xTaskResumeAll.part.0>
10006f9a:	2800      	cmp	r0, #0
10006f9c:	d0e9      	beq.n	10006f72 <vTaskDelay+0x16>
10006f9e:	e7f3      	b.n	10006f88 <vTaskDelay+0x2c>
10006fa0:	9001      	str	r0, [sp, #4]
10006fa2:	f7fe fc7f 	bl	100058a4 <vTaskSuspendAll.part.0>
10006fa6:	2100      	movs	r1, #0
10006fa8:	9801      	ldr	r0, [sp, #4]
10006faa:	f7fe fddf 	bl	10005b6c <prvAddCurrentTaskToDelayedList>
10006fae:	6823      	ldr	r3, [r4, #0]
10006fb0:	2b00      	cmp	r3, #0
10006fb2:	d0de      	beq.n	10006f72 <vTaskDelay+0x16>
10006fb4:	e7ef      	b.n	10006f96 <vTaskDelay+0x3a>
10006fb6:	bf00      	nop
10006fb8:	20022254 	.word	0x20022254
10006fbc:	20022188 	.word	0x20022188
10006fc0:	20022294 	.word	0x20022294

10006fc4 <vTaskRemoveFromUnorderedEventList>:
10006fc4:	b5f8      	push	{r3, r4, r5, r6, r7, lr}
10006fc6:	e9d0 2501 	ldrd	r2, r5, [r0, #4]
10006fca:	2700      	movs	r7, #0
10006fcc:	f041 4100 	orr.w	r1, r1, #2147483648	; 0x80000000
10006fd0:	68c4      	ldr	r4, [r0, #12]
10006fd2:	6903      	ldr	r3, [r0, #16]
10006fd4:	6001      	str	r1, [r0, #0]
10006fd6:	6095      	str	r5, [r2, #8]
10006fd8:	6881      	ldr	r1, [r0, #8]
10006fda:	f104 0508 	add.w	r5, r4, #8
10006fde:	604a      	str	r2, [r1, #4]
10006fe0:	685a      	ldr	r2, [r3, #4]
10006fe2:	4282      	cmp	r2, r0
10006fe4:	681a      	ldr	r2, [r3, #0]
10006fe6:	bf08      	it	eq
10006fe8:	6059      	streq	r1, [r3, #4]
10006fea:	3a01      	subs	r2, #1
10006fec:	e9d4 1603 	ldrd	r1, r6, [r4, #12]
10006ff0:	6107      	str	r7, [r0, #16]
10006ff2:	601a      	str	r2, [r3, #0]
10006ff4:	69a3      	ldr	r3, [r4, #24]
10006ff6:	608e      	str	r6, [r1, #8]
10006ff8:	6922      	ldr	r2, [r4, #16]
10006ffa:	6051      	str	r1, [r2, #4]
10006ffc:	6859      	ldr	r1, [r3, #4]
10006ffe:	42a9      	cmp	r1, r5
10007000:	bf08      	it	eq
10007002:	605a      	streq	r2, [r3, #4]
10007004:	681a      	ldr	r2, [r3, #0]
10007006:	4913      	ldr	r1, [pc, #76]	; (10007054 <vTaskRemoveFromUnorderedEventList+0x90>)
10007008:	3a01      	subs	r2, #1
1000700a:	601a      	str	r2, [r3, #0]
1000700c:	680a      	ldr	r2, [r1, #0]
1000700e:	6b23      	ldr	r3, [r4, #48]	; 0x30
10007010:	4293      	cmp	r3, r2
10007012:	bf88      	it	hi
10007014:	600b      	strhi	r3, [r1, #0]
10007016:	4910      	ldr	r1, [pc, #64]	; (10007058 <vTaskRemoveFromUnorderedEventList+0x94>)
10007018:	eb03 0383 	add.w	r3, r3, r3, lsl #2
1000701c:	0098      	lsls	r0, r3, #2
1000701e:	eb01 0383 	add.w	r3, r1, r3, lsl #2
10007022:	685a      	ldr	r2, [r3, #4]
10007024:	6896      	ldr	r6, [r2, #8]
10007026:	60e2      	str	r2, [r4, #12]
10007028:	6126      	str	r6, [r4, #16]
1000702a:	6896      	ldr	r6, [r2, #8]
1000702c:	6075      	str	r5, [r6, #4]
1000702e:	6095      	str	r5, [r2, #8]
10007030:	580a      	ldr	r2, [r1, r0]
10007032:	61a3      	str	r3, [r4, #24]
10007034:	3201      	adds	r2, #1
10007036:	500a      	str	r2, [r1, r0]
10007038:	f7ff fba4 	bl	10006784 <vTaskEnterCritical>
1000703c:	4620      	mov	r0, r4
1000703e:	f7fe fad5 	bl	100055ec <prvYieldForTask>
10007042:	4b06      	ldr	r3, [pc, #24]	; (1000705c <vTaskRemoveFromUnorderedEventList+0x98>)
10007044:	681b      	ldr	r3, [r3, #0]
10007046:	b11b      	cbz	r3, 10007050 <vTaskRemoveFromUnorderedEventList+0x8c>
10007048:	e8bd 40f8 	ldmia.w	sp!, {r3, r4, r5, r6, r7, lr}
1000704c:	f7fe bb34 	b.w	100056b8 <vTaskExitCritical.part.0>
10007050:	bdf8      	pop	{r3, r4, r5, r6, r7, pc}
10007052:	bf00      	nop
10007054:	200221b8 	.word	0x200221b8
10007058:	20001ee4 	.word	0x20001ee4
1000705c:	20022254 	.word	0x20022254

10007060 <xTaskCheckForTimeOut>:
10007060:	e92d 4ff8 	stmdb	sp!, {r3, r4, r5, r6, r7, r8, r9, sl, fp, lr}
10007064:	4604      	mov	r4, r0
10007066:	f04f 4a50 	mov.w	sl, #3489660928	; 0xd0000000
1000706a:	4d23      	ldr	r5, [pc, #140]	; (100070f8 <xTaskCheckForTimeOut+0x98>)
1000706c:	460e      	mov	r6, r1
1000706e:	4f23      	ldr	r7, [pc, #140]	; (100070fc <xTaskCheckForTimeOut+0x9c>)
10007070:	f7ff fb88 	bl	10006784 <vTaskEnterCritical>
10007074:	f8d5 9000 	ldr.w	r9, [r5]
10007078:	f8d4 8004 	ldr.w	r8, [r4, #4]
1000707c:	f7fd fd04 	bl	10004a88 <ulSetInterruptMask>
10007080:	f8da 3000 	ldr.w	r3, [sl]
10007084:	f857 b023 	ldr.w	fp, [r7, r3, lsl #2]
10007088:	f7fd fd0a 	bl	10004aa0 <vClearInterruptMask>
1000708c:	f89b 0079 	ldrb.w	r0, [fp, #121]	; 0x79
10007090:	bb28      	cbnz	r0, 100070de <xTaskCheckForTimeOut+0x7e>
10007092:	6833      	ldr	r3, [r6, #0]
10007094:	1c5a      	adds	r2, r3, #1
10007096:	d00b      	beq.n	100070b0 <xTaskCheckForTimeOut+0x50>
10007098:	4a19      	ldr	r2, [pc, #100]	; (10007100 <xTaskCheckForTimeOut+0xa0>)
1000709a:	6821      	ldr	r1, [r4, #0]
1000709c:	6810      	ldr	r0, [r2, #0]
1000709e:	4281      	cmp	r1, r0
100070a0:	d00f      	beq.n	100070c2 <xTaskCheckForTimeOut+0x62>
100070a2:	6861      	ldr	r1, [r4, #4]
100070a4:	4549      	cmp	r1, r9
100070a6:	d80c      	bhi.n	100070c2 <xTaskCheckForTimeOut+0x62>
100070a8:	2300      	movs	r3, #0
100070aa:	2501      	movs	r5, #1
100070ac:	6033      	str	r3, [r6, #0]
100070ae:	e000      	b.n	100070b2 <xTaskCheckForTimeOut+0x52>
100070b0:	4605      	mov	r5, r0
100070b2:	4b14      	ldr	r3, [pc, #80]	; (10007104 <xTaskCheckForTimeOut+0xa4>)
100070b4:	681b      	ldr	r3, [r3, #0]
100070b6:	b10b      	cbz	r3, 100070bc <xTaskCheckForTimeOut+0x5c>
100070b8:	f7fe fafe 	bl	100056b8 <vTaskExitCritical.part.0>
100070bc:	4628      	mov	r0, r5
100070be:	e8bd 8ff8 	ldmia.w	sp!, {r3, r4, r5, r6, r7, r8, r9, sl, fp, pc}
100070c2:	eba9 0108 	sub.w	r1, r9, r8
100070c6:	428b      	cmp	r3, r1
100070c8:	d9ee      	bls.n	100070a8 <xTaskCheckForTimeOut+0x48>
100070ca:	6811      	ldr	r1, [r2, #0]
100070cc:	eba3 0309 	sub.w	r3, r3, r9
100070d0:	682a      	ldr	r2, [r5, #0]
100070d2:	4443      	add	r3, r8
100070d4:	6033      	str	r3, [r6, #0]
100070d6:	2500      	movs	r5, #0
100070d8:	e9c4 1200 	strd	r1, r2, [r4]
100070dc:	e7e9      	b.n	100070b2 <xTaskCheckForTimeOut+0x52>
100070de:	f7fd fcd3 	bl	10004a88 <ulSetInterruptMask>
100070e2:	f8da 3000 	ldr.w	r3, [sl]
100070e6:	2501      	movs	r5, #1
100070e8:	f857 4023 	ldr.w	r4, [r7, r3, lsl #2]
100070ec:	f7fd fcd8 	bl	10004aa0 <vClearInterruptMask>
100070f0:	2300      	movs	r3, #0
100070f2:	f884 3079 	strb.w	r3, [r4, #121]	; 0x79
100070f6:	e7dc      	b.n	100070b2 <xTaskCheckForTimeOut+0x52>
100070f8:	20022288 	.word	0x20022288
100070fc:	20001ec8 	.word	0x20001ec8
10007100:	20022230 	.word	0x20022230
10007104:	20022254 	.word	0x20022254

10007108 <vTaskEnterCriticalFromISR>:
10007108:	4b1f      	ldr	r3, [pc, #124]	; (10007188 <vTaskEnterCriticalFromISR+0x80>)
1000710a:	6818      	ldr	r0, [r3, #0]
1000710c:	b900      	cbnz	r0, 10007110 <vTaskEnterCriticalFromISR+0x8>
1000710e:	4770      	bx	lr
10007110:	b570      	push	{r4, r5, r6, lr}
10007112:	f7fd fcb9 	bl	10004a88 <ulSetInterruptMask>
10007116:	f04f 4250 	mov.w	r2, #3489660928	; 0xd0000000
1000711a:	4c1c      	ldr	r4, [pc, #112]	; (1000718c <vTaskEnterCriticalFromISR+0x84>)
1000711c:	6813      	ldr	r3, [r2, #0]
1000711e:	f854 1023 	ldr.w	r1, [r4, r3, lsl #2]
10007122:	b129      	cbz	r1, 10007130 <vTaskEnterCriticalFromISR+0x28>
10007124:	f854 2023 	ldr.w	r2, [r4, r3, lsl #2]
10007128:	3201      	adds	r2, #1
1000712a:	f844 2023 	str.w	r2, [r4, r3, lsl #2]
1000712e:	bd70      	pop	{r4, r5, r6, pc}
10007130:	4917      	ldr	r1, [pc, #92]	; (10007190 <vTaskEnterCriticalFromISR+0x88>)
10007132:	e8d1 5fcf 	ldaexb	r5, [r1]
10007136:	2601      	movs	r6, #1
10007138:	2d00      	cmp	r5, #0
1000713a:	d101      	bne.n	10007140 <vTaskEnterCriticalFromISR+0x38>
1000713c:	e8c1 6f45 	strexb	r5, r6, [r1]
10007140:	f3bf 8f5f 	dmb	sy
10007144:	b94d      	cbnz	r5, 1000715a <vTaskEnterCriticalFromISR+0x52>
10007146:	4d13      	ldr	r5, [pc, #76]	; (10007194 <vTaskEnterCriticalFromISR+0x8c>)
10007148:	2201      	movs	r2, #1
1000714a:	4913      	ldr	r1, [pc, #76]	; (10007198 <vTaskEnterCriticalFromISR+0x90>)
1000714c:	700a      	strb	r2, [r1, #0]
1000714e:	f805 2013 	strb.w	r2, [r5, r3, lsl #1]
10007152:	f04f 4350 	mov.w	r3, #3489660928	; 0xd0000000
10007156:	681b      	ldr	r3, [r3, #0]
10007158:	e7e4      	b.n	10007124 <vTaskEnterCriticalFromISR+0x1c>
1000715a:	4d0e      	ldr	r5, [pc, #56]	; (10007194 <vTaskEnterCriticalFromISR+0x8c>)
1000715c:	f815 6013 	ldrb.w	r6, [r5, r3, lsl #1]
10007160:	b95e      	cbnz	r6, 1000717a <vTaskEnterCriticalFromISR+0x72>
10007162:	e8d1 6fcf 	ldaexb	r6, [r1]
10007166:	2201      	movs	r2, #1
10007168:	2e00      	cmp	r6, #0
1000716a:	d1fa      	bne.n	10007162 <vTaskEnterCriticalFromISR+0x5a>
1000716c:	e8c1 2f46 	strexb	r6, r2, [r1]
10007170:	2e00      	cmp	r6, #0
10007172:	d1f6      	bne.n	10007162 <vTaskEnterCriticalFromISR+0x5a>
10007174:	f3bf 8f5f 	dmb	sy
10007178:	e7e6      	b.n	10007148 <vTaskEnterCriticalFromISR+0x40>
1000717a:	4907      	ldr	r1, [pc, #28]	; (10007198 <vTaskEnterCriticalFromISR+0x90>)
1000717c:	780b      	ldrb	r3, [r1, #0]
1000717e:	3301      	adds	r3, #1
10007180:	b2db      	uxtb	r3, r3
10007182:	700b      	strb	r3, [r1, #0]
10007184:	6813      	ldr	r3, [r2, #0]
10007186:	e7cd      	b.n	10007124 <vTaskEnterCriticalFromISR+0x1c>
10007188:	20022254 	.word	0x20022254
1000718c:	20022188 	.word	0x20022188
10007190:	20001616 	.word	0x20001616
10007194:	20022180 	.word	0x20022180
10007198:	20022184 	.word	0x20022184

1000719c <vTaskExitCritical>:
1000719c:	4b1e      	ldr	r3, [pc, #120]	; (10007218 <vTaskExitCritical+0x7c>)
1000719e:	681b      	ldr	r3, [r3, #0]
100071a0:	2b00      	cmp	r3, #0
100071a2:	d034      	beq.n	1000720e <vTaskExitCritical+0x72>
100071a4:	f04f 4150 	mov.w	r1, #3489660928	; 0xd0000000
100071a8:	4b1c      	ldr	r3, [pc, #112]	; (1000721c <vTaskExitCritical+0x80>)
100071aa:	680a      	ldr	r2, [r1, #0]
100071ac:	f853 0022 	ldr.w	r0, [r3, r2, lsl #2]
100071b0:	2800      	cmp	r0, #0
100071b2:	d02c      	beq.n	1000720e <vTaskExitCritical+0x72>
100071b4:	f853 0022 	ldr.w	r0, [r3, r2, lsl #2]
100071b8:	3801      	subs	r0, #1
100071ba:	f843 0022 	str.w	r0, [r3, r2, lsl #2]
100071be:	680a      	ldr	r2, [r1, #0]
100071c0:	f853 3022 	ldr.w	r3, [r3, r2, lsl #2]
100071c4:	bb1b      	cbnz	r3, 1000720e <vTaskExitCritical+0x72>
100071c6:	b510      	push	{r4, lr}
100071c8:	4915      	ldr	r1, [pc, #84]	; (10007220 <vTaskExitCritical+0x84>)
100071ca:	4b16      	ldr	r3, [pc, #88]	; (10007224 <vTaskExitCritical+0x88>)
100071cc:	f853 4022 	ldr.w	r4, [r3, r2, lsl #2]
100071d0:	780b      	ldrb	r3, [r1, #0]
100071d2:	3b01      	subs	r3, #1
100071d4:	b2db      	uxtb	r3, r3
100071d6:	700b      	strb	r3, [r1, #0]
100071d8:	b92b      	cbnz	r3, 100071e6 <vTaskExitCritical+0x4a>
100071da:	4813      	ldr	r0, [pc, #76]	; (10007228 <vTaskExitCritical+0x8c>)
100071dc:	f800 3012 	strb.w	r3, [r0, r2, lsl #1]
100071e0:	4a12      	ldr	r2, [pc, #72]	; (1000722c <vTaskExitCritical+0x90>)
100071e2:	e8c2 3f8f 	stlb	r3, [r2]
100071e6:	f04f 4250 	mov.w	r2, #3489660928	; 0xd0000000
100071ea:	784b      	ldrb	r3, [r1, #1]
100071ec:	6810      	ldr	r0, [r2, #0]
100071ee:	3b01      	subs	r3, #1
100071f0:	b2db      	uxtb	r3, r3
100071f2:	704b      	strb	r3, [r1, #1]
100071f4:	b933      	cbnz	r3, 10007204 <vTaskExitCritical+0x68>
100071f6:	4a0c      	ldr	r2, [pc, #48]	; (10007228 <vTaskExitCritical+0x8c>)
100071f8:	490d      	ldr	r1, [pc, #52]	; (10007230 <vTaskExitCritical+0x94>)
100071fa:	eb02 0240 	add.w	r2, r2, r0, lsl #1
100071fe:	7053      	strb	r3, [r2, #1]
10007200:	e8c1 3f8f 	stlb	r3, [r1]
10007204:	2000      	movs	r0, #0
10007206:	f7fd fc4b 	bl	10004aa0 <vClearInterruptMask>
1000720a:	b90c      	cbnz	r4, 10007210 <vTaskExitCritical+0x74>
1000720c:	bd10      	pop	{r4, pc}
1000720e:	4770      	bx	lr
10007210:	e8bd 4010 	ldmia.w	sp!, {r4, lr}
10007214:	f7fd ba98 	b.w	10004748 <vPortYield>
10007218:	20022254 	.word	0x20022254
1000721c:	20022188 	.word	0x20022188
10007220:	20022184 	.word	0x20022184
10007224:	20022294 	.word	0x20022294
10007228:	20022180 	.word	0x20022180
1000722c:	20001616 	.word	0x20001616
10007230:	20001617 	.word	0x20001617

10007234 <vTaskExitCriticalFromISR>:
10007234:	4b13      	ldr	r3, [pc, #76]	; (10007284 <vTaskExitCriticalFromISR+0x50>)
10007236:	681b      	ldr	r3, [r3, #0]
10007238:	b903      	cbnz	r3, 1000723c <vTaskExitCriticalFromISR+0x8>
1000723a:	4770      	bx	lr
1000723c:	f04f 4150 	mov.w	r1, #3489660928	; 0xd0000000
10007240:	4b11      	ldr	r3, [pc, #68]	; (10007288 <vTaskExitCriticalFromISR+0x54>)
10007242:	680a      	ldr	r2, [r1, #0]
10007244:	b410      	push	{r4}
10007246:	f853 4022 	ldr.w	r4, [r3, r2, lsl #2]
1000724a:	b1c4      	cbz	r4, 1000727e <vTaskExitCriticalFromISR+0x4a>
1000724c:	f853 4022 	ldr.w	r4, [r3, r2, lsl #2]
10007250:	3c01      	subs	r4, #1
10007252:	f843 4022 	str.w	r4, [r3, r2, lsl #2]
10007256:	680a      	ldr	r2, [r1, #0]
10007258:	f853 3022 	ldr.w	r3, [r3, r2, lsl #2]
1000725c:	b97b      	cbnz	r3, 1000727e <vTaskExitCriticalFromISR+0x4a>
1000725e:	490b      	ldr	r1, [pc, #44]	; (1000728c <vTaskExitCriticalFromISR+0x58>)
10007260:	780b      	ldrb	r3, [r1, #0]
10007262:	3b01      	subs	r3, #1
10007264:	b2db      	uxtb	r3, r3
10007266:	700b      	strb	r3, [r1, #0]
10007268:	b92b      	cbnz	r3, 10007276 <vTaskExitCriticalFromISR+0x42>
1000726a:	4c09      	ldr	r4, [pc, #36]	; (10007290 <vTaskExitCriticalFromISR+0x5c>)
1000726c:	4909      	ldr	r1, [pc, #36]	; (10007294 <vTaskExitCriticalFromISR+0x60>)
1000726e:	f804 3012 	strb.w	r3, [r4, r2, lsl #1]
10007272:	e8c1 3f8f 	stlb	r3, [r1]
10007276:	f85d 4b04 	ldr.w	r4, [sp], #4
1000727a:	f7fd bc11 	b.w	10004aa0 <vClearInterruptMask>
1000727e:	f85d 4b04 	ldr.w	r4, [sp], #4
10007282:	4770      	bx	lr
10007284:	20022254 	.word	0x20022254
10007288:	20022188 	.word	0x20022188
1000728c:	20022184 	.word	0x20022184
10007290:	20022180 	.word	0x20022180
10007294:	20001616 	.word	0x20001616

10007298 <uxTaskResetEventItemValue>:
10007298:	b5f8      	push	{r3, r4, r5, r6, r7, lr}
1000729a:	f04f 4650 	mov.w	r6, #3489660928	; 0xd0000000
1000729e:	f7fd fbf3 	bl	10004a88 <ulSetInterruptMask>
100072a2:	4d0d      	ldr	r5, [pc, #52]	; (100072d8 <uxTaskResetEventItemValue+0x40>)
100072a4:	6833      	ldr	r3, [r6, #0]
100072a6:	f855 4023 	ldr.w	r4, [r5, r3, lsl #2]
100072aa:	f7fd fbf9 	bl	10004aa0 <vClearInterruptMask>
100072ae:	69e7      	ldr	r7, [r4, #28]
100072b0:	f7fd fbea 	bl	10004a88 <ulSetInterruptMask>
100072b4:	6833      	ldr	r3, [r6, #0]
100072b6:	f855 4023 	ldr.w	r4, [r5, r3, lsl #2]
100072ba:	f7fd fbf1 	bl	10004aa0 <vClearInterruptMask>
100072be:	6b24      	ldr	r4, [r4, #48]	; 0x30
100072c0:	f7fd fbe2 	bl	10004a88 <ulSetInterruptMask>
100072c4:	6833      	ldr	r3, [r6, #0]
100072c6:	f1c4 0420 	rsb	r4, r4, #32
100072ca:	f855 5023 	ldr.w	r5, [r5, r3, lsl #2]
100072ce:	f7fd fbe7 	bl	10004aa0 <vClearInterruptMask>
100072d2:	4638      	mov	r0, r7
100072d4:	61ec      	str	r4, [r5, #28]
100072d6:	bdf8      	pop	{r3, r4, r5, r6, r7, pc}
100072d8:	20001ec8 	.word	0x20001ec8

100072dc <pvTaskIncrementMutexHeldCount>:
100072dc:	b510      	push	{r4, lr}
100072de:	f7fd fbd3 	bl	10004a88 <ulSetInterruptMask>
100072e2:	f04f 4250 	mov.w	r2, #3489660928	; 0xd0000000
100072e6:	4b06      	ldr	r3, [pc, #24]	; (10007300 <pvTaskIncrementMutexHeldCount+0x24>)
100072e8:	6812      	ldr	r2, [r2, #0]
100072ea:	f853 4022 	ldr.w	r4, [r3, r2, lsl #2]
100072ee:	f7fd fbd7 	bl	10004aa0 <vClearInterruptMask>
100072f2:	b114      	cbz	r4, 100072fa <pvTaskIncrementMutexHeldCount+0x1e>
100072f4:	6de3      	ldr	r3, [r4, #92]	; 0x5c
100072f6:	3301      	adds	r3, #1
100072f8:	65e3      	str	r3, [r4, #92]	; 0x5c
100072fa:	4620      	mov	r0, r4
100072fc:	bd10      	pop	{r4, pc}
100072fe:	bf00      	nop
10007300:	20001ec8 	.word	0x20001ec8

10007304 <prvTimerTask>:
10007304:	e92d 4ff0 	stmdb	sp!, {r4, r5, r6, r7, r8, r9, sl, fp, lr}
10007308:	4ea4      	ldr	r6, [pc, #656]	; (1000759c <prvTimerTask+0x298>)
1000730a:	f8df 829c 	ldr.w	r8, [pc, #668]	; 100075a8 <prvTimerTask+0x2a4>
1000730e:	4da4      	ldr	r5, [pc, #656]	; (100075a0 <prvTimerTask+0x29c>)
10007310:	b087      	sub	sp, #28
10007312:	6833      	ldr	r3, [r6, #0]
10007314:	681c      	ldr	r4, [r3, #0]
10007316:	2c00      	cmp	r4, #0
10007318:	f000 80d7 	beq.w	100074ca <prvTimerTask+0x1c6>
1000731c:	68db      	ldr	r3, [r3, #12]
1000731e:	681c      	ldr	r4, [r3, #0]
10007320:	f7fe fcc2 	bl	10005ca8 <vTaskSuspendAll>
10007324:	f7fe fcc8 	bl	10005cb8 <xTaskGetTickCount>
10007328:	4b9e      	ldr	r3, [pc, #632]	; (100075a4 <prvTimerTask+0x2a0>)
1000732a:	4682      	mov	sl, r0
1000732c:	681b      	ldr	r3, [r3, #0]
1000732e:	4283      	cmp	r3, r0
10007330:	d845      	bhi.n	100073be <prvTimerTask+0xba>
10007332:	4b9c      	ldr	r3, [pc, #624]	; (100075a4 <prvTimerTask+0x2a0>)
10007334:	4284      	cmp	r4, r0
10007336:	6018      	str	r0, [r3, #0]
10007338:	f240 8138 	bls.w	100075ac <prvTimerTask+0x2a8>
1000733c:	2200      	movs	r2, #0
1000733e:	6828      	ldr	r0, [r5, #0]
10007340:	eba4 010a 	sub.w	r1, r4, sl
10007344:	f7fe f91a 	bl	1000557c <vQueueWaitForMessageRestricted>
10007348:	f7ff fe00 	bl	10006f4c <xTaskResumeAll>
1000734c:	2800      	cmp	r0, #0
1000734e:	f000 8117 	beq.w	10007580 <prvTimerTask+0x27c>
10007352:	2300      	movs	r3, #0
10007354:	e9cd 3302 	strd	r3, r3, [sp, #8]
10007358:	e9cd 3304 	strd	r3, r3, [sp, #16]
1000735c:	2200      	movs	r2, #0
1000735e:	6828      	ldr	r0, [r5, #0]
10007360:	a902      	add	r1, sp, #8
10007362:	f7fd ff51 	bl	10005208 <xQueueReceive>
10007366:	2800      	cmp	r0, #0
10007368:	d0d3      	beq.n	10007312 <prvTimerTask+0xe>
1000736a:	9b02      	ldr	r3, [sp, #8]
1000736c:	2b00      	cmp	r3, #0
1000736e:	f2c0 80a3 	blt.w	100074b8 <prvTimerTask+0x1b4>
10007372:	f8dd a010 	ldr.w	sl, [sp, #16]
10007376:	f8da 3014 	ldr.w	r3, [sl, #20]
1000737a:	b11b      	cbz	r3, 10007384 <prvTimerTask+0x80>
1000737c:	f10a 0004 	add.w	r0, sl, #4
10007380:	f7fd fd02 	bl	10004d88 <uxListRemove>
10007384:	f7fe fc98 	bl	10005cb8 <xTaskGetTickCount>
10007388:	4b86      	ldr	r3, [pc, #536]	; (100075a4 <prvTimerTask+0x2a0>)
1000738a:	9001      	str	r0, [sp, #4]
1000738c:	681b      	ldr	r3, [r3, #0]
1000738e:	4298      	cmp	r0, r3
10007390:	f0c0 80ba 	bcc.w	10007508 <prvTimerTask+0x204>
10007394:	9b02      	ldr	r3, [sp, #8]
10007396:	4a83      	ldr	r2, [pc, #524]	; (100075a4 <prvTimerTask+0x2a0>)
10007398:	9901      	ldr	r1, [sp, #4]
1000739a:	3b01      	subs	r3, #1
1000739c:	6011      	str	r1, [r2, #0]
1000739e:	2b08      	cmp	r3, #8
100073a0:	d8dc      	bhi.n	1000735c <prvTimerTask+0x58>
100073a2:	e8df f003 	tbb	[pc, r3]
100073a6:	3838      	.short	0x3838
100073a8:	387f5c78 	.word	0x387f5c78
100073ac:	7838      	.short	0x7838
100073ae:	5c          	.byte	0x5c
100073af:	00          	.byte	0x00
100073b0:	f023 0301 	bic.w	r3, r3, #1
100073b4:	f884 3028 	strb.w	r3, [r4, #40]	; 0x28
100073b8:	4620      	mov	r0, r4
100073ba:	6a23      	ldr	r3, [r4, #32]
100073bc:	4798      	blx	r3
100073be:	6833      	ldr	r3, [r6, #0]
100073c0:	681a      	ldr	r2, [r3, #0]
100073c2:	2a00      	cmp	r2, #0
100073c4:	f000 8095 	beq.w	100074f2 <prvTimerTask+0x1ee>
100073c8:	68db      	ldr	r3, [r3, #12]
100073ca:	68dc      	ldr	r4, [r3, #12]
100073cc:	681f      	ldr	r7, [r3, #0]
100073ce:	f104 0b04 	add.w	fp, r4, #4
100073d2:	4658      	mov	r0, fp
100073d4:	f7fd fcd8 	bl	10004d88 <uxListRemove>
100073d8:	f894 3028 	ldrb.w	r3, [r4, #40]	; 0x28
100073dc:	0758      	lsls	r0, r3, #29
100073de:	d5e7      	bpl.n	100073b0 <prvTimerTask+0xac>
100073e0:	43fa      	mvns	r2, r7
100073e2:	69a3      	ldr	r3, [r4, #24]
100073e4:	6124      	str	r4, [r4, #16]
100073e6:	eb07 0903 	add.w	r9, r7, r3
100073ea:	4293      	cmp	r3, r2
100073ec:	f8c4 9004 	str.w	r9, [r4, #4]
100073f0:	d80b      	bhi.n	1000740a <prvTimerTask+0x106>
100073f2:	464f      	mov	r7, r9
100073f4:	43ff      	mvns	r7, r7
100073f6:	6a23      	ldr	r3, [r4, #32]
100073f8:	4620      	mov	r0, r4
100073fa:	4798      	blx	r3
100073fc:	69a3      	ldr	r3, [r4, #24]
100073fe:	6124      	str	r4, [r4, #16]
10007400:	4499      	add	r9, r3
10007402:	42bb      	cmp	r3, r7
10007404:	f8c4 9004 	str.w	r9, [r4, #4]
10007408:	d9f3      	bls.n	100073f2 <prvTimerTask+0xee>
1000740a:	4659      	mov	r1, fp
1000740c:	f8d8 0000 	ldr.w	r0, [r8]
10007410:	f7fd fca2 	bl	10004d58 <vListInsert>
10007414:	e7d0      	b.n	100073b8 <prvTimerTask+0xb4>
10007416:	f89a 4028 	ldrb.w	r4, [sl, #40]	; 0x28
1000741a:	9803      	ldr	r0, [sp, #12]
1000741c:	f8da 1018 	ldr.w	r1, [sl, #24]
10007420:	9a01      	ldr	r2, [sp, #4]
10007422:	1843      	adds	r3, r0, r1
10007424:	f044 0701 	orr.w	r7, r4, #1
10007428:	f88a 7028 	strb.w	r7, [sl, #40]	; 0x28
1000742c:	bf2c      	ite	cs
1000742e:	2701      	movcs	r7, #1
10007430:	2700      	movcc	r7, #0
10007432:	4293      	cmp	r3, r2
10007434:	f8ca 3004 	str.w	r3, [sl, #4]
10007438:	f8ca a010 	str.w	sl, [sl, #16]
1000743c:	f200 80a3 	bhi.w	10007586 <prvTimerTask+0x282>
10007440:	1a10      	subs	r0, r2, r0
10007442:	4281      	cmp	r1, r0
10007444:	d820      	bhi.n	10007488 <prvTimerTask+0x184>
10007446:	0767      	lsls	r7, r4, #29
10007448:	f100 80ec 	bmi.w	10007624 <prvTimerTask+0x320>
1000744c:	f024 0401 	bic.w	r4, r4, #1
10007450:	f88a 4028 	strb.w	r4, [sl, #40]	; 0x28
10007454:	4650      	mov	r0, sl
10007456:	f8da 3020 	ldr.w	r3, [sl, #32]
1000745a:	4798      	blx	r3
1000745c:	e77e      	b.n	1000735c <prvTimerTask+0x58>
1000745e:	9903      	ldr	r1, [sp, #12]
10007460:	9a01      	ldr	r2, [sp, #4]
10007462:	f89a 3028 	ldrb.w	r3, [sl, #40]	; 0x28
10007466:	1888      	adds	r0, r1, r2
10007468:	f043 0301 	orr.w	r3, r3, #1
1000746c:	4290      	cmp	r0, r2
1000746e:	f88a 3028 	strb.w	r3, [sl, #40]	; 0x28
10007472:	f8ca 1018 	str.w	r1, [sl, #24]
10007476:	f8ca 0004 	str.w	r0, [sl, #4]
1000747a:	f8ca a010 	str.w	sl, [sl, #16]
1000747e:	f200 8087 	bhi.w	10007590 <prvTimerTask+0x28c>
10007482:	2900      	cmp	r1, #0
10007484:	f43f af6a 	beq.w	1000735c <prvTimerTask+0x58>
10007488:	f8d8 0000 	ldr.w	r0, [r8]
1000748c:	f10a 0104 	add.w	r1, sl, #4
10007490:	f7fd fc62 	bl	10004d58 <vListInsert>
10007494:	e762      	b.n	1000735c <prvTimerTask+0x58>
10007496:	f89a 3028 	ldrb.w	r3, [sl, #40]	; 0x28
1000749a:	f023 0301 	bic.w	r3, r3, #1
1000749e:	f88a 3028 	strb.w	r3, [sl, #40]	; 0x28
100074a2:	e75b      	b.n	1000735c <prvTimerTask+0x58>
100074a4:	f89a 3028 	ldrb.w	r3, [sl, #40]	; 0x28
100074a8:	079a      	lsls	r2, r3, #30
100074aa:	f140 80b1 	bpl.w	10007610 <prvTimerTask+0x30c>
100074ae:	f023 0301 	bic.w	r3, r3, #1
100074b2:	f88a 3028 	strb.w	r3, [sl, #40]	; 0x28
100074b6:	e751      	b.n	1000735c <prvTimerTask+0x58>
100074b8:	9b03      	ldr	r3, [sp, #12]
100074ba:	e9dd 0104 	ldrd	r0, r1, [sp, #16]
100074be:	4798      	blx	r3
100074c0:	9b02      	ldr	r3, [sp, #8]
100074c2:	2b00      	cmp	r3, #0
100074c4:	f6ff af4a 	blt.w	1000735c <prvTimerTask+0x58>
100074c8:	e753      	b.n	10007372 <prvTimerTask+0x6e>
100074ca:	f7fe fbed 	bl	10005ca8 <vTaskSuspendAll>
100074ce:	f7fe fbf3 	bl	10005cb8 <xTaskGetTickCount>
100074d2:	4b34      	ldr	r3, [pc, #208]	; (100075a4 <prvTimerTask+0x2a0>)
100074d4:	4682      	mov	sl, r0
100074d6:	681b      	ldr	r3, [r3, #0]
100074d8:	4298      	cmp	r0, r3
100074da:	f4ff af70 	bcc.w	100073be <prvTimerTask+0xba>
100074de:	4a31      	ldr	r2, [pc, #196]	; (100075a4 <prvTimerTask+0x2a0>)
100074e0:	f8d8 3000 	ldr.w	r3, [r8]
100074e4:	f8c2 a000 	str.w	sl, [r2]
100074e8:	681a      	ldr	r2, [r3, #0]
100074ea:	fab2 f282 	clz	r2, r2
100074ee:	0952      	lsrs	r2, r2, #5
100074f0:	e725      	b.n	1000733e <prvTimerTask+0x3a>
100074f2:	f8d8 2000 	ldr.w	r2, [r8]
100074f6:	492b      	ldr	r1, [pc, #172]	; (100075a4 <prvTimerTask+0x2a0>)
100074f8:	6032      	str	r2, [r6, #0]
100074fa:	f8c1 a000 	str.w	sl, [r1]
100074fe:	f8c8 3000 	str.w	r3, [r8]
10007502:	f7ff fd23 	bl	10006f4c <xTaskResumeAll>
10007506:	e724      	b.n	10007352 <prvTimerTask+0x4e>
10007508:	6833      	ldr	r3, [r6, #0]
1000750a:	6819      	ldr	r1, [r3, #0]
1000750c:	b951      	cbnz	r1, 10007524 <prvTimerTask+0x220>
1000750e:	e031      	b.n	10007574 <prvTimerTask+0x270>
10007510:	f023 0301 	bic.w	r3, r3, #1
10007514:	f884 3028 	strb.w	r3, [r4, #40]	; 0x28
10007518:	6a23      	ldr	r3, [r4, #32]
1000751a:	4620      	mov	r0, r4
1000751c:	4798      	blx	r3
1000751e:	6833      	ldr	r3, [r6, #0]
10007520:	681a      	ldr	r2, [r3, #0]
10007522:	b33a      	cbz	r2, 10007574 <prvTimerTask+0x270>
10007524:	68db      	ldr	r3, [r3, #12]
10007526:	68dc      	ldr	r4, [r3, #12]
10007528:	f8d3 9000 	ldr.w	r9, [r3]
1000752c:	f104 0b04 	add.w	fp, r4, #4
10007530:	4658      	mov	r0, fp
10007532:	f7fd fc29 	bl	10004d88 <uxListRemove>
10007536:	f894 3028 	ldrb.w	r3, [r4, #40]	; 0x28
1000753a:	075a      	lsls	r2, r3, #29
1000753c:	d5e8      	bpl.n	10007510 <prvTimerTask+0x20c>
1000753e:	69a3      	ldr	r3, [r4, #24]
10007540:	6124      	str	r4, [r4, #16]
10007542:	eb09 0703 	add.w	r7, r9, r3
10007546:	ea6f 0909 	mvn.w	r9, r9
1000754a:	454b      	cmp	r3, r9
1000754c:	6067      	str	r7, [r4, #4]
1000754e:	d80b      	bhi.n	10007568 <prvTimerTask+0x264>
10007550:	46b9      	mov	r9, r7
10007552:	ea6f 0909 	mvn.w	r9, r9
10007556:	6a23      	ldr	r3, [r4, #32]
10007558:	4620      	mov	r0, r4
1000755a:	4798      	blx	r3
1000755c:	69a3      	ldr	r3, [r4, #24]
1000755e:	6124      	str	r4, [r4, #16]
10007560:	441f      	add	r7, r3
10007562:	454b      	cmp	r3, r9
10007564:	6067      	str	r7, [r4, #4]
10007566:	d9f3      	bls.n	10007550 <prvTimerTask+0x24c>
10007568:	4659      	mov	r1, fp
1000756a:	f8d8 0000 	ldr.w	r0, [r8]
1000756e:	f7fd fbf3 	bl	10004d58 <vListInsert>
10007572:	e7d1      	b.n	10007518 <prvTimerTask+0x214>
10007574:	f8d8 1000 	ldr.w	r1, [r8]
10007578:	f8c8 3000 	str.w	r3, [r8]
1000757c:	6031      	str	r1, [r6, #0]
1000757e:	e709      	b.n	10007394 <prvTimerTask+0x90>
10007580:	f7ff f8ee 	bl	10006760 <vTaskYieldWithinAPI>
10007584:	e6e5      	b.n	10007352 <prvTimerTask+0x4e>
10007586:	4290      	cmp	r0, r2
10007588:	d902      	bls.n	10007590 <prvTimerTask+0x28c>
1000758a:	2f00      	cmp	r7, #0
1000758c:	f43f af5b 	beq.w	10007446 <prvTimerTask+0x142>
10007590:	6830      	ldr	r0, [r6, #0]
10007592:	f10a 0104 	add.w	r1, sl, #4
10007596:	f7fd fbdf 	bl	10004d58 <vListInsert>
1000759a:	e6df      	b.n	1000735c <prvTimerTask+0x58>
1000759c:	20001ed0 	.word	0x20001ed0
100075a0:	2002228c 	.word	0x2002228c
100075a4:	20022224 	.word	0x20022224
100075a8:	20001ee0 	.word	0x20001ee0
100075ac:	f7ff fcce 	bl	10006f4c <xTaskResumeAll>
100075b0:	6833      	ldr	r3, [r6, #0]
100075b2:	68db      	ldr	r3, [r3, #12]
100075b4:	68df      	ldr	r7, [r3, #12]
100075b6:	f107 0b04 	add.w	fp, r7, #4
100075ba:	4658      	mov	r0, fp
100075bc:	f7fd fbe4 	bl	10004d88 <uxListRemove>
100075c0:	f897 3028 	ldrb.w	r3, [r7, #40]	; 0x28
100075c4:	0759      	lsls	r1, r3, #29
100075c6:	d40d      	bmi.n	100075e4 <prvTimerTask+0x2e0>
100075c8:	f023 0301 	bic.w	r3, r3, #1
100075cc:	f887 3028 	strb.w	r3, [r7, #40]	; 0x28
100075d0:	4638      	mov	r0, r7
100075d2:	6a3b      	ldr	r3, [r7, #32]
100075d4:	4798      	blx	r3
100075d6:	e6bc      	b.n	10007352 <prvTimerTask+0x4e>
100075d8:	4293      	cmp	r3, r2
100075da:	d81d      	bhi.n	10007618 <prvTimerTask+0x314>
100075dc:	4638      	mov	r0, r7
100075de:	6a3b      	ldr	r3, [r7, #32]
100075e0:	4798      	blx	r3
100075e2:	464c      	mov	r4, r9
100075e4:	69bb      	ldr	r3, [r7, #24]
100075e6:	ebaa 0204 	sub.w	r2, sl, r4
100075ea:	eb14 0903 	adds.w	r9, r4, r3
100075ee:	bf2c      	ite	cs
100075f0:	2101      	movcs	r1, #1
100075f2:	2100      	movcc	r1, #0
100075f4:	45d1      	cmp	r9, sl
100075f6:	f8c7 9004 	str.w	r9, [r7, #4]
100075fa:	613f      	str	r7, [r7, #16]
100075fc:	d9ec      	bls.n	100075d8 <prvTimerTask+0x2d4>
100075fe:	4554      	cmp	r4, sl
10007600:	d901      	bls.n	10007606 <prvTimerTask+0x302>
10007602:	2900      	cmp	r1, #0
10007604:	d0ea      	beq.n	100075dc <prvTimerTask+0x2d8>
10007606:	4659      	mov	r1, fp
10007608:	6830      	ldr	r0, [r6, #0]
1000760a:	f7fd fba5 	bl	10004d58 <vListInsert>
1000760e:	e7df      	b.n	100075d0 <prvTimerTask+0x2cc>
10007610:	4650      	mov	r0, sl
10007612:	f000 fa21 	bl	10007a58 <vPortFree>
10007616:	e6a1      	b.n	1000735c <prvTimerTask+0x58>
10007618:	4659      	mov	r1, fp
1000761a:	f8d8 0000 	ldr.w	r0, [r8]
1000761e:	f7fd fb9b 	bl	10004d58 <vListInsert>
10007622:	e7d5      	b.n	100075d0 <prvTimerTask+0x2cc>
10007624:	4654      	mov	r4, sl
10007626:	f8dd 9004 	ldr.w	r9, [sp, #4]
1000762a:	e006      	b.n	1000763a <prvTimerTask+0x336>
1000762c:	4291      	cmp	r1, r2
1000762e:	d818      	bhi.n	10007662 <prvTimerTask+0x35e>
10007630:	6a23      	ldr	r3, [r4, #32]
10007632:	4620      	mov	r0, r4
10007634:	4798      	blx	r3
10007636:	463b      	mov	r3, r7
10007638:	69a1      	ldr	r1, [r4, #24]
1000763a:	18cf      	adds	r7, r1, r3
1000763c:	bf2c      	ite	cs
1000763e:	2001      	movcs	r0, #1
10007640:	2000      	movcc	r0, #0
10007642:	45b9      	cmp	r9, r7
10007644:	eba9 0203 	sub.w	r2, r9, r3
10007648:	6067      	str	r7, [r4, #4]
1000764a:	6124      	str	r4, [r4, #16]
1000764c:	d2ee      	bcs.n	1000762c <prvTimerTask+0x328>
1000764e:	4599      	cmp	r9, r3
10007650:	d201      	bcs.n	10007656 <prvTimerTask+0x352>
10007652:	2800      	cmp	r0, #0
10007654:	d0ec      	beq.n	10007630 <prvTimerTask+0x32c>
10007656:	6830      	ldr	r0, [r6, #0]
10007658:	1d21      	adds	r1, r4, #4
1000765a:	46a2      	mov	sl, r4
1000765c:	f7fd fb7c 	bl	10004d58 <vListInsert>
10007660:	e6f8      	b.n	10007454 <prvTimerTask+0x150>
10007662:	f8d8 0000 	ldr.w	r0, [r8]
10007666:	1d21      	adds	r1, r4, #4
10007668:	46a2      	mov	sl, r4
1000766a:	f7fd fb75 	bl	10004d58 <vListInsert>
1000766e:	e6f1      	b.n	10007454 <prvTimerTask+0x150>

10007670 <xTimerCreateTimerTask>:
10007670:	b5f0      	push	{r4, r5, r6, r7, lr}
10007672:	4c19      	ldr	r4, [pc, #100]	; (100076d8 <xTimerCreateTimerTask+0x68>)
10007674:	b085      	sub	sp, #20
10007676:	f7ff f885 	bl	10006784 <vTaskEnterCritical>
1000767a:	6825      	ldr	r5, [r4, #0]
1000767c:	b19d      	cbz	r5, 100076a6 <xTimerCreateTimerTask+0x36>
1000767e:	f7ff fd8d 	bl	1000719c <vTaskExitCritical>
10007682:	6820      	ldr	r0, [r4, #0]
10007684:	b168      	cbz	r0, 100076a2 <xTimerCreateTimerTask+0x32>
10007686:	f04f 35ff 	mov.w	r5, #4294967295	; 0xffffffff
1000768a:	241f      	movs	r4, #31
1000768c:	4913      	ldr	r1, [pc, #76]	; (100076dc <xTimerCreateTimerTask+0x6c>)
1000768e:	2300      	movs	r3, #0
10007690:	9102      	str	r1, [sp, #8]
10007692:	f44f 6280 	mov.w	r2, #1024	; 0x400
10007696:	e9cd 4500 	strd	r4, r5, [sp]
1000769a:	4911      	ldr	r1, [pc, #68]	; (100076e0 <xTimerCreateTimerTask+0x70>)
1000769c:	4811      	ldr	r0, [pc, #68]	; (100076e4 <xTimerCreateTimerTask+0x74>)
1000769e:	f7ff fa39 	bl	10006b14 <xTaskCreateAffinitySet>
100076a2:	b005      	add	sp, #20
100076a4:	bdf0      	pop	{r4, r5, r6, r7, pc}
100076a6:	4f10      	ldr	r7, [pc, #64]	; (100076e8 <xTimerCreateTimerTask+0x78>)
100076a8:	4e10      	ldr	r6, [pc, #64]	; (100076ec <xTimerCreateTimerTask+0x7c>)
100076aa:	4638      	mov	r0, r7
100076ac:	f7fd fb34 	bl	10004d18 <vListInitialise>
100076b0:	4630      	mov	r0, r6
100076b2:	f7fd fb31 	bl	10004d18 <vListInitialise>
100076b6:	4b0e      	ldr	r3, [pc, #56]	; (100076f0 <xTimerCreateTimerTask+0x80>)
100076b8:	462a      	mov	r2, r5
100076ba:	601f      	str	r7, [r3, #0]
100076bc:	4b0d      	ldr	r3, [pc, #52]	; (100076f4 <xTimerCreateTimerTask+0x84>)
100076be:	2110      	movs	r1, #16
100076c0:	200a      	movs	r0, #10
100076c2:	601e      	str	r6, [r3, #0]
100076c4:	f7fd fc92 	bl	10004fec <xQueueGenericCreate>
100076c8:	6020      	str	r0, [r4, #0]
100076ca:	2800      	cmp	r0, #0
100076cc:	d0d7      	beq.n	1000767e <xTimerCreateTimerTask+0xe>
100076ce:	490a      	ldr	r1, [pc, #40]	; (100076f8 <xTimerCreateTimerTask+0x88>)
100076d0:	f7fd fec4 	bl	1000545c <vQueueAddToRegistry>
100076d4:	e7d3      	b.n	1000767e <xTimerCreateTimerTask+0xe>
100076d6:	bf00      	nop
100076d8:	2002228c 	.word	0x2002228c
100076dc:	20022290 	.word	0x20022290
100076e0:	10008178 	.word	0x10008178
100076e4:	10007305 	.word	0x10007305
100076e8:	200221bc 	.word	0x200221bc
100076ec:	200221d0 	.word	0x200221d0
100076f0:	20001ed0 	.word	0x20001ed0
100076f4:	20001ee0 	.word	0x20001ee0
100076f8:	10008170 	.word	0x10008170

100076fc <xTimerPendFunctionCallFromISR>:
100076fc:	469c      	mov	ip, r3
100076fe:	b5f0      	push	{r4, r5, r6, r7, lr}
10007700:	4607      	mov	r7, r0
10007702:	460e      	mov	r6, r1
10007704:	4615      	mov	r5, r2
10007706:	f06f 0401 	mvn.w	r4, #1
1000770a:	4b07      	ldr	r3, [pc, #28]	; (10007728 <xTimerPendFunctionCallFromISR+0x2c>)
1000770c:	b085      	sub	sp, #20
1000770e:	4669      	mov	r1, sp
10007710:	4662      	mov	r2, ip
10007712:	6818      	ldr	r0, [r3, #0]
10007714:	2300      	movs	r3, #0
10007716:	e9cd 7601 	strd	r7, r6, [sp, #4]
1000771a:	9503      	str	r5, [sp, #12]
1000771c:	9400      	str	r4, [sp, #0]
1000771e:	f7fd fcdb 	bl	100050d8 <xQueueGenericSendFromISR>
10007722:	b005      	add	sp, #20
10007724:	bdf0      	pop	{r4, r5, r6, r7, pc}
10007726:	bf00      	nop
10007728:	2002228c 	.word	0x2002228c

1000772c <exception_set_exclusive_handler>:
1000772c:	b5f8      	push	{r3, r4, r5, r6, r7, lr}
1000772e:	4604      	mov	r4, r0
10007730:	460d      	mov	r5, r1
10007732:	f3ef 8710 	mrs	r7, PRIMASK
10007736:	b672      	cpsid	i
10007738:	4b0c      	ldr	r3, [pc, #48]	; (1000776c <exception_set_exclusive_handler+0x40>)
1000773a:	689b      	ldr	r3, [r3, #8]
1000773c:	f853 6020 	ldr.w	r6, [r3, r0, lsl #2]
10007740:	42b1      	cmp	r1, r6
10007742:	d005      	beq.n	10007750 <exception_set_exclusive_handler+0x24>
10007744:	4b0a      	ldr	r3, [pc, #40]	; (10007770 <exception_set_exclusive_handler+0x44>)
10007746:	429e      	cmp	r6, r3
10007748:	d30c      	bcc.n	10007764 <exception_set_exclusive_handler+0x38>
1000774a:	4b0a      	ldr	r3, [pc, #40]	; (10007774 <exception_set_exclusive_handler+0x48>)
1000774c:	429e      	cmp	r6, r3
1000774e:	d209      	bcs.n	10007764 <exception_set_exclusive_handler+0x38>
10007750:	4b06      	ldr	r3, [pc, #24]	; (1000776c <exception_set_exclusive_handler+0x40>)
10007752:	689b      	ldr	r3, [r3, #8]
10007754:	f843 5024 	str.w	r5, [r3, r4, lsl #2]
10007758:	f3bf 8f5f 	dmb	sy
1000775c:	f387 8810 	msr	PRIMASK, r7
10007760:	4630      	mov	r0, r6
10007762:	bdf8      	pop	{r3, r4, r5, r6, r7, pc}
10007764:	f7fa f8e4 	bl	10001930 <hard_assertion_failure>
10007768:	e7f2      	b.n	10007750 <exception_set_exclusive_handler+0x24>
1000776a:	bf00      	nop
1000776c:	e000ed00 	.word	0xe000ed00
10007770:	10000110 	.word	0x10000110
10007774:	1000011c 	.word	0x1000011c

10007778 <core1_trampoline>:
10007778:	bd03      	pop	{r0, r1, pc}
1000777a:	bf00      	nop

1000777c <core1_wrapper>:
1000777c:	b510      	push	{r4, lr}
1000777e:	4604      	mov	r4, r0
10007780:	f7fa f8ec 	bl	1000195c <runtime_run_per_core_initializers>
10007784:	4623      	mov	r3, r4
10007786:	e8bd 4010 	ldmia.w	sp!, {r4, lr}
1000778a:	4718      	bx	r3

1000778c <multicore_launch_core1_raw>:
1000778c:	b5f0      	push	{r4, r5, r6, r7, lr}
1000778e:	4605      	mov	r5, r0
10007790:	b087      	sub	sp, #28
10007792:	2019      	movs	r0, #25
10007794:	4617      	mov	r7, r2
10007796:	460e      	mov	r6, r1
10007798:	f7f9 f866 	bl	10000868 <irq_is_enabled>
1000779c:	2100      	movs	r1, #0
1000779e:	4604      	mov	r4, r0
100077a0:	2019      	movs	r0, #25
100077a2:	f7f9 f84b 	bl	1000083c <irq_set_enabled>
100077a6:	2100      	movs	r1, #0
100077a8:	e9cd 6504 	strd	r6, r5, [sp, #16]
100077ac:	9703      	str	r7, [sp, #12]
100077ae:	2600      	movs	r6, #0
100077b0:	2700      	movs	r7, #0
100077b2:	2201      	movs	r2, #1
100077b4:	f04f 4350 	mov.w	r3, #3489660928	; 0xd0000000
100077b8:	468c      	mov	ip, r1
100077ba:	e9cd 6700 	strd	r6, r7, [sp]
100077be:	9202      	str	r2, [sp, #8]
100077c0:	b1b9      	cbz	r1, 100077f2 <multicore_launch_core1_raw+0x66>
100077c2:	6d1a      	ldr	r2, [r3, #80]	; 0x50
100077c4:	0795      	lsls	r5, r2, #30
100077c6:	d5fc      	bpl.n	100077c2 <multicore_launch_core1_raw+0x36>
100077c8:	6559      	str	r1, [r3, #84]	; 0x54
100077ca:	bf40      	sev
100077cc:	6d1a      	ldr	r2, [r3, #80]	; 0x50
100077ce:	07d0      	lsls	r0, r2, #31
100077d0:	d403      	bmi.n	100077da <multicore_launch_core1_raw+0x4e>
100077d2:	bf20      	wfe
100077d4:	6d1a      	ldr	r2, [r3, #80]	; 0x50
100077d6:	07d2      	lsls	r2, r2, #31
100077d8:	d5fb      	bpl.n	100077d2 <multicore_launch_core1_raw+0x46>
100077da:	6d9a      	ldr	r2, [r3, #88]	; 0x58
100077dc:	428a      	cmp	r2, r1
100077de:	d00d      	beq.n	100077fc <multicore_launch_core1_raw+0x70>
100077e0:	f04f 0c00 	mov.w	ip, #0
100077e4:	aa06      	add	r2, sp, #24
100077e6:	eb02 028c 	add.w	r2, r2, ip, lsl #2
100077ea:	f852 1c18 	ldr.w	r1, [r2, #-24]
100077ee:	e7e7      	b.n	100077c0 <multicore_launch_core1_raw+0x34>
100077f0:	6d9a      	ldr	r2, [r3, #88]	; 0x58
100077f2:	6d1a      	ldr	r2, [r3, #80]	; 0x50
100077f4:	07d6      	lsls	r6, r2, #31
100077f6:	d4fb      	bmi.n	100077f0 <multicore_launch_core1_raw+0x64>
100077f8:	bf40      	sev
100077fa:	e7e2      	b.n	100077c2 <multicore_launch_core1_raw+0x36>
100077fc:	f10c 0c01 	add.w	ip, ip, #1
10007800:	f1bc 0f05 	cmp.w	ip, #5
10007804:	d9ee      	bls.n	100077e4 <multicore_launch_core1_raw+0x58>
10007806:	4621      	mov	r1, r4
10007808:	2019      	movs	r0, #25
1000780a:	b007      	add	sp, #28
1000780c:	e8bd 40f0 	ldmia.w	sp!, {r4, r5, r6, r7, lr}
10007810:	f7f9 b814 	b.w	1000083c <irq_set_enabled>

10007814 <multicore_launch_core1>:
10007814:	4b0b      	ldr	r3, [pc, #44]	; (10007844 <multicore_launch_core1+0x30>)
10007816:	4a0c      	ldr	r2, [pc, #48]	; (10007848 <multicore_launch_core1+0x34>)
10007818:	b410      	push	{r4}
1000781a:	429a      	cmp	r2, r3
1000781c:	bf88      	it	hi
1000781e:	f04f 33ff 	movhi.w	r3, #4294967295	; 0xffffffff
10007822:	4c0a      	ldr	r4, [pc, #40]	; (1000784c <multicore_launch_core1+0x38>)
10007824:	4a0a      	ldr	r2, [pc, #40]	; (10007850 <multicore_launch_core1+0x3c>)
10007826:	f203 71f4 	addw	r1, r3, #2036	; 0x7f4
1000782a:	6892      	ldr	r2, [r2, #8]
1000782c:	f8c3 07f4 	str.w	r0, [r3, #2036]	; 0x7f4
10007830:	f8c3 47fc 	str.w	r4, [r3, #2044]	; 0x7fc
10007834:	4807      	ldr	r0, [pc, #28]	; (10007854 <multicore_launch_core1+0x40>)
10007836:	f85d 4b04 	ldr.w	r4, [sp], #4
1000783a:	f8c3 37f8 	str.w	r3, [r3, #2040]	; 0x7f8
1000783e:	f7ff bfa5 	b.w	1000778c <multicore_launch_core1_raw>
10007842:	bf00      	nop
10007844:	20080800 	.word	0x20080800
10007848:	20080000 	.word	0x20080000
1000784c:	1000777d 	.word	0x1000777d
10007850:	e000ed00 	.word	0xe000ed00
10007854:	10007779 	.word	0x10007779

10007858 <multicore_doorbell_claim_unused>:
10007858:	b5f8      	push	{r3, r4, r5, r6, r7, lr}
1000785a:	4604      	mov	r4, r0
1000785c:	4e3a      	ldr	r6, [pc, #232]	; (10007948 <multicore_doorbell_claim_unused+0xf0>)
1000785e:	460f      	mov	r7, r1
10007860:	f7f8 fefa 	bl	10000658 <hw_claim_lock>
10007864:	78b3      	ldrb	r3, [r6, #2]
10007866:	7832      	ldrb	r2, [r6, #0]
10007868:	f003 0101 	and.w	r1, r3, #1
1000786c:	f996 3000 	ldrsb.w	r3, [r6]
10007870:	0fdb      	lsrs	r3, r3, #31
10007872:	ea43 0341 	orr.w	r3, r3, r1, lsl #1
10007876:	4223      	tst	r3, r4
10007878:	d053      	beq.n	10007922 <multicore_doorbell_claim_unused+0xca>
1000787a:	f996 1001 	ldrsb.w	r1, [r6, #1]
1000787e:	0fcb      	lsrs	r3, r1, #31
10007880:	f3c2 1180 	ubfx	r1, r2, #6, #1
10007884:	ea41 0143 	orr.w	r1, r1, r3, lsl #1
10007888:	4221      	tst	r1, r4
1000788a:	7873      	ldrb	r3, [r6, #1]
1000788c:	d04c      	beq.n	10007928 <multicore_doorbell_claim_unused+0xd0>
1000788e:	f3c3 1180 	ubfx	r1, r3, #6, #1
10007892:	f3c2 1540 	ubfx	r5, r2, #5, #1
10007896:	ea45 0141 	orr.w	r1, r5, r1, lsl #1
1000789a:	4221      	tst	r1, r4
1000789c:	d047      	beq.n	1000792e <multicore_doorbell_claim_unused+0xd6>
1000789e:	f3c3 1140 	ubfx	r1, r3, #5, #1
100078a2:	f3c2 1500 	ubfx	r5, r2, #4, #1
100078a6:	ea45 0141 	orr.w	r1, r5, r1, lsl #1
100078aa:	4221      	tst	r1, r4
100078ac:	d042      	beq.n	10007934 <multicore_doorbell_claim_unused+0xdc>
100078ae:	f3c3 1100 	ubfx	r1, r3, #4, #1
100078b2:	f3c2 05c0 	ubfx	r5, r2, #3, #1
100078b6:	ea45 0141 	orr.w	r1, r5, r1, lsl #1
100078ba:	4221      	tst	r1, r4
100078bc:	d03d      	beq.n	1000793a <multicore_doorbell_claim_unused+0xe2>
100078be:	f3c3 01c0 	ubfx	r1, r3, #3, #1
100078c2:	f3c2 0580 	ubfx	r5, r2, #2, #1
100078c6:	ea45 0141 	orr.w	r1, r5, r1, lsl #1
100078ca:	4221      	tst	r1, r4
100078cc:	d015      	beq.n	100078fa <multicore_doorbell_claim_unused+0xa2>
100078ce:	f3c3 0180 	ubfx	r1, r3, #2, #1
100078d2:	f3c2 0540 	ubfx	r5, r2, #1, #1
100078d6:	ea45 0141 	orr.w	r1, r5, r1, lsl #1
100078da:	4221      	tst	r1, r4
100078dc:	d01c      	beq.n	10007918 <multicore_doorbell_claim_unused+0xc0>
100078de:	f003 0302 	and.w	r3, r3, #2
100078e2:	f002 0501 	and.w	r5, r2, #1
100078e6:	431d      	orrs	r5, r3
100078e8:	4025      	ands	r5, r4
100078ea:	d018      	beq.n	1000791e <multicore_doorbell_claim_unused+0xc6>
100078ec:	bb47      	cbnz	r7, 10007940 <multicore_doorbell_claim_unused+0xe8>
100078ee:	f06f 0508 	mvn.w	r5, #8
100078f2:	f7f8 fec3 	bl	1000067c <hw_claim_unlock>
100078f6:	4628      	mov	r0, r5
100078f8:	bdf8      	pop	{r3, r4, r5, r6, r7, pc}
100078fa:	2502      	movs	r5, #2
100078fc:	2304      	movs	r3, #4
100078fe:	07e1      	lsls	r1, r4, #31
10007900:	bf44      	itt	mi
10007902:	431a      	orrmi	r2, r3
10007904:	7032      	strbmi	r2, [r6, #0]
10007906:	07a2      	lsls	r2, r4, #30
10007908:	d5f3      	bpl.n	100078f2 <multicore_doorbell_claim_unused+0x9a>
1000790a:	7872      	ldrb	r2, [r6, #1]
1000790c:	4313      	orrs	r3, r2
1000790e:	7073      	strb	r3, [r6, #1]
10007910:	f7f8 feb4 	bl	1000067c <hw_claim_unlock>
10007914:	4628      	mov	r0, r5
10007916:	bdf8      	pop	{r3, r4, r5, r6, r7, pc}
10007918:	2501      	movs	r5, #1
1000791a:	2302      	movs	r3, #2
1000791c:	e7ef      	b.n	100078fe <multicore_doorbell_claim_unused+0xa6>
1000791e:	2301      	movs	r3, #1
10007920:	e7ed      	b.n	100078fe <multicore_doorbell_claim_unused+0xa6>
10007922:	2507      	movs	r5, #7
10007924:	2380      	movs	r3, #128	; 0x80
10007926:	e7ea      	b.n	100078fe <multicore_doorbell_claim_unused+0xa6>
10007928:	2506      	movs	r5, #6
1000792a:	2340      	movs	r3, #64	; 0x40
1000792c:	e7e7      	b.n	100078fe <multicore_doorbell_claim_unused+0xa6>
1000792e:	2505      	movs	r5, #5
10007930:	2320      	movs	r3, #32
10007932:	e7e4      	b.n	100078fe <multicore_doorbell_claim_unused+0xa6>
10007934:	2504      	movs	r5, #4
10007936:	2310      	movs	r3, #16
10007938:	e7e1      	b.n	100078fe <multicore_doorbell_claim_unused+0xa6>
1000793a:	2503      	movs	r5, #3
1000793c:	2308      	movs	r3, #8
1000793e:	e7de      	b.n	100078fe <multicore_doorbell_claim_unused+0xa6>
10007940:	4802      	ldr	r0, [pc, #8]	; (1000794c <multicore_doorbell_claim_unused+0xf4>)
10007942:	f7f8 fe71 	bl	10000628 <panic>
10007946:	bf00      	nop
10007948:	20001a84 	.word	0x20001a84
1000794c:	10008180 	.word	0x10008180

10007950 <pvPortMalloc>:
10007950:	b5f8      	push	{r3, r4, r5, r6, r7, lr}
10007952:	1e43      	subs	r3, r0, #1
10007954:	330a      	adds	r3, #10
10007956:	d811      	bhi.n	1000797c <pvPortMalloc+0x2c>
10007958:	f100 0408 	add.w	r4, r0, #8
1000795c:	f010 0007 	ands.w	r0, r0, #7
10007960:	d005      	beq.n	1000796e <pvPortMalloc+0x1e>
10007962:	f1c0 0008 	rsb	r0, r0, #8
10007966:	43c3      	mvns	r3, r0
10007968:	42a3      	cmp	r3, r4
1000796a:	d307      	bcc.n	1000797c <pvPortMalloc+0x2c>
1000796c:	4404      	add	r4, r0
1000796e:	f7fe f99b 	bl	10005ca8 <vTaskSuspendAll>
10007972:	4933      	ldr	r1, [pc, #204]	; (10007a40 <pvPortMalloc+0xf0>)
10007974:	4623      	mov	r3, r4
10007976:	680d      	ldr	r5, [r1, #0]
10007978:	bb15      	cbnz	r5, 100079c0 <pvPortMalloc+0x70>
1000797a:	e00a      	b.n	10007992 <pvPortMalloc+0x42>
1000797c:	f7fe f994 	bl	10005ca8 <vTaskSuspendAll>
10007980:	492f      	ldr	r1, [pc, #188]	; (10007a40 <pvPortMalloc+0xf0>)
10007982:	680b      	ldr	r3, [r1, #0]
10007984:	b123      	cbz	r3, 10007990 <pvPortMalloc+0x40>
10007986:	2500      	movs	r5, #0
10007988:	f7ff fae0 	bl	10006f4c <xTaskResumeAll>
1000798c:	4628      	mov	r0, r5
1000798e:	bdf8      	pop	{r3, r4, r5, r6, r7, pc}
10007990:	461c      	mov	r4, r3
10007992:	482c      	ldr	r0, [pc, #176]	; (10007a44 <pvPortMalloc+0xf4>)
10007994:	0742      	lsls	r2, r0, #29
10007996:	d14b      	bne.n	10007a30 <pvPortMalloc+0xe0>
10007998:	4602      	mov	r2, r0
1000799a:	f500 3500 	add.w	r5, r0, #131072	; 0x20000
1000799e:	3d08      	subs	r5, #8
100079a0:	f025 0507 	bic.w	r5, r5, #7
100079a4:	600d      	str	r5, [r1, #0]
100079a6:	2100      	movs	r1, #0
100079a8:	4e27      	ldr	r6, [pc, #156]	; (10007a48 <pvPortMalloc+0xf8>)
100079aa:	1aaa      	subs	r2, r5, r2
100079ac:	e9c6 0100 	strd	r0, r1, [r6]
100079b0:	e9c5 1100 	strd	r1, r1, [r5]
100079b4:	4925      	ldr	r1, [pc, #148]	; (10007a4c <pvPortMalloc+0xfc>)
100079b6:	e9c0 5200 	strd	r5, r2, [r0]
100079ba:	600a      	str	r2, [r1, #0]
100079bc:	4924      	ldr	r1, [pc, #144]	; (10007a50 <pvPortMalloc+0x100>)
100079be:	600a      	str	r2, [r1, #0]
100079c0:	2b00      	cmp	r3, #0
100079c2:	dde0      	ble.n	10007986 <pvPortMalloc+0x36>
100079c4:	4f22      	ldr	r7, [pc, #136]	; (10007a50 <pvPortMalloc+0x100>)
100079c6:	683e      	ldr	r6, [r7, #0]
100079c8:	42a6      	cmp	r6, r4
100079ca:	d3dc      	bcc.n	10007986 <pvPortMalloc+0x36>
100079cc:	4b1e      	ldr	r3, [pc, #120]	; (10007a48 <pvPortMalloc+0xf8>)
100079ce:	4618      	mov	r0, r3
100079d0:	681b      	ldr	r3, [r3, #0]
100079d2:	e003      	b.n	100079dc <pvPortMalloc+0x8c>
100079d4:	681a      	ldr	r2, [r3, #0]
100079d6:	b122      	cbz	r2, 100079e2 <pvPortMalloc+0x92>
100079d8:	4618      	mov	r0, r3
100079da:	4613      	mov	r3, r2
100079dc:	6859      	ldr	r1, [r3, #4]
100079de:	42a1      	cmp	r1, r4
100079e0:	d3f8      	bcc.n	100079d4 <pvPortMalloc+0x84>
100079e2:	42ab      	cmp	r3, r5
100079e4:	d0cf      	beq.n	10007986 <pvPortMalloc+0x36>
100079e6:	461d      	mov	r5, r3
100079e8:	eba1 0c04 	sub.w	ip, r1, r4
100079ec:	f855 2b08 	ldr.w	r2, [r5], #8
100079f0:	f1bc 0f10 	cmp.w	ip, #16
100079f4:	6002      	str	r2, [r0, #0]
100079f6:	d907      	bls.n	10007a08 <pvPortMalloc+0xb8>
100079f8:	4621      	mov	r1, r4
100079fa:	eb03 0e04 	add.w	lr, r3, r4
100079fe:	f8ce c004 	str.w	ip, [lr, #4]
10007a02:	511a      	str	r2, [r3, r4]
10007a04:	f8c0 e000 	str.w	lr, [r0]
10007a08:	2400      	movs	r4, #0
10007a0a:	4a10      	ldr	r2, [pc, #64]	; (10007a4c <pvPortMalloc+0xfc>)
10007a0c:	1a76      	subs	r6, r6, r1
10007a0e:	6810      	ldr	r0, [r2, #0]
10007a10:	f041 4100 	orr.w	r1, r1, #2147483648	; 0x80000000
10007a14:	4286      	cmp	r6, r0
10007a16:	480f      	ldr	r0, [pc, #60]	; (10007a54 <pvPortMalloc+0x104>)
10007a18:	bf38      	it	cc
10007a1a:	6016      	strcc	r6, [r2, #0]
10007a1c:	6802      	ldr	r2, [r0, #0]
10007a1e:	6059      	str	r1, [r3, #4]
10007a20:	3201      	adds	r2, #1
10007a22:	601c      	str	r4, [r3, #0]
10007a24:	603e      	str	r6, [r7, #0]
10007a26:	6002      	str	r2, [r0, #0]
10007a28:	f7ff fa90 	bl	10006f4c <xTaskResumeAll>
10007a2c:	4628      	mov	r0, r5
10007a2e:	bdf8      	pop	{r3, r4, r5, r6, r7, pc}
10007a30:	1dc2      	adds	r2, r0, #7
10007a32:	f022 0207 	bic.w	r2, r2, #7
10007a36:	f500 3500 	add.w	r5, r0, #131072	; 0x20000
10007a3a:	4610      	mov	r0, r2
10007a3c:	e7af      	b.n	1000799e <pvPortMalloc+0x4e>
10007a3e:	bf00      	nop
10007a40:	20001ed8 	.word	0x20001ed8
10007a44:	20002180 	.word	0x20002180
10007a48:	20022258 	.word	0x20022258
10007a4c:	20022228 	.word	0x20022228
10007a50:	20022214 	.word	0x20022214
10007a54:	20022234 	.word	0x20022234

10007a58 <vPortFree>:
10007a58:	b130      	cbz	r0, 10007a68 <vPortFree+0x10>
10007a5a:	f850 3c04 	ldr.w	r3, [r0, #-4]
10007a5e:	2b00      	cmp	r3, #0
10007a60:	da02      	bge.n	10007a68 <vPortFree+0x10>
10007a62:	f850 2c08 	ldr.w	r2, [r0, #-8]
10007a66:	b102      	cbz	r2, 10007a6a <vPortFree+0x12>
10007a68:	4770      	bx	lr
10007a6a:	b510      	push	{r4, lr}
10007a6c:	f023 4300 	bic.w	r3, r3, #2147483648	; 0x80000000
10007a70:	b082      	sub	sp, #8
10007a72:	f840 3c04 	str.w	r3, [r0, #-4]
10007a76:	4c19      	ldr	r4, [pc, #100]	; (10007adc <vPortFree+0x84>)
10007a78:	9001      	str	r0, [sp, #4]
10007a7a:	f7fe f915 	bl	10005ca8 <vTaskSuspendAll>
10007a7e:	9801      	ldr	r0, [sp, #4]
10007a80:	6822      	ldr	r2, [r4, #0]
10007a82:	f850 1c04 	ldr.w	r1, [r0, #-4]
10007a86:	4b16      	ldr	r3, [pc, #88]	; (10007ae0 <vPortFree+0x88>)
10007a88:	440a      	add	r2, r1
10007a8a:	3808      	subs	r0, #8
10007a8c:	6022      	str	r2, [r4, #0]
10007a8e:	461a      	mov	r2, r3
10007a90:	681b      	ldr	r3, [r3, #0]
10007a92:	4298      	cmp	r0, r3
10007a94:	d8fb      	bhi.n	10007a8e <vPortFree+0x36>
10007a96:	6854      	ldr	r4, [r2, #4]
10007a98:	eb02 0c04 	add.w	ip, r2, r4
10007a9c:	4560      	cmp	r0, ip
10007a9e:	d019      	beq.n	10007ad4 <vPortFree+0x7c>
10007aa0:	1844      	adds	r4, r0, r1
10007aa2:	42a3      	cmp	r3, r4
10007aa4:	d00c      	beq.n	10007ac0 <vPortFree+0x68>
10007aa6:	6003      	str	r3, [r0, #0]
10007aa8:	4282      	cmp	r2, r0
10007aaa:	bf18      	it	ne
10007aac:	6010      	strne	r0, [r2, #0]
10007aae:	4a0d      	ldr	r2, [pc, #52]	; (10007ae4 <vPortFree+0x8c>)
10007ab0:	6813      	ldr	r3, [r2, #0]
10007ab2:	3301      	adds	r3, #1
10007ab4:	6013      	str	r3, [r2, #0]
10007ab6:	b002      	add	sp, #8
10007ab8:	e8bd 4010 	ldmia.w	sp!, {r4, lr}
10007abc:	f7ff ba46 	b.w	10006f4c <xTaskResumeAll>
10007ac0:	4c09      	ldr	r4, [pc, #36]	; (10007ae8 <vPortFree+0x90>)
10007ac2:	6824      	ldr	r4, [r4, #0]
10007ac4:	42a3      	cmp	r3, r4
10007ac6:	d0ee      	beq.n	10007aa6 <vPortFree+0x4e>
10007ac8:	e9d3 3400 	ldrd	r3, r4, [r3]
10007acc:	4421      	add	r1, r4
10007ace:	e9c0 3100 	strd	r3, r1, [r0]
10007ad2:	e7e9      	b.n	10007aa8 <vPortFree+0x50>
10007ad4:	4421      	add	r1, r4
10007ad6:	4610      	mov	r0, r2
10007ad8:	6051      	str	r1, [r2, #4]
10007ada:	e7e1      	b.n	10007aa0 <vPortFree+0x48>
10007adc:	20022214 	.word	0x20022214
10007ae0:	20022258 	.word	0x20022258
10007ae4:	20022238 	.word	0x20022238
10007ae8:	20001ed8 	.word	0x20001ed8

10007aec <memcpy>:
10007aec:	4684      	mov	ip, r0
10007aee:	ea41 0300 	orr.w	r3, r1, r0
10007af2:	f013 0303 	ands.w	r3, r3, #3
10007af6:	d149      	bne.n	10007b8c <memcpy+0xa0>
10007af8:	3a40      	subs	r2, #64	; 0x40
10007afa:	d323      	bcc.n	10007b44 <memcpy+0x58>
10007afc:	680b      	ldr	r3, [r1, #0]
10007afe:	6003      	str	r3, [r0, #0]
10007b00:	684b      	ldr	r3, [r1, #4]
10007b02:	6043      	str	r3, [r0, #4]
10007b04:	688b      	ldr	r3, [r1, #8]
10007b06:	6083      	str	r3, [r0, #8]
10007b08:	68cb      	ldr	r3, [r1, #12]
10007b0a:	60c3      	str	r3, [r0, #12]
10007b0c:	690b      	ldr	r3, [r1, #16]
10007b0e:	6103      	str	r3, [r0, #16]
10007b10:	694b      	ldr	r3, [r1, #20]
10007b12:	6143      	str	r3, [r0, #20]
10007b14:	698b      	ldr	r3, [r1, #24]
10007b16:	6183      	str	r3, [r0, #24]
10007b18:	69cb      	ldr	r3, [r1, #28]
10007b1a:	61c3      	str	r3, [r0, #28]
10007b1c:	6a0b      	ldr	r3, [r1, #32]
10007b1e:	6203      	str	r3, [r0, #32]
10007b20:	6a4b      	ldr	r3, [r1, #36]	; 0x24
10007b22:	6243      	str	r3, [r0, #36]	; 0x24
10007b24:	6a8b      	ldr	r3, [r1, #40]	; 0x28
10007b26:	6283      	str	r3, [r0, #40]	; 0x28
10007b28:	6acb      	ldr	r3, [r1, #44]	; 0x2c
10007b2a:	62c3      	str	r3, [r0, #44]	; 0x2c
10007b2c:	6b0b      	ldr	r3, [r1, #48]	; 0x30
10007b2e:	6303      	str	r3, [r0, #48]	; 0x30
10007b30:	6b4b      	ldr	r3, [r1, #52]	; 0x34
10007b32:	6343      	str	r3, [r0, #52]	; 0x34
10007b34:	6b8b      	ldr	r3, [r1, #56]	; 0x38
10007b36:	6383      	str	r3, [r0, #56]	; 0x38
10007b38:	6bcb      	ldr	r3, [r1, #60]	; 0x3c
10007b3a:	63c3      	str	r3, [r0, #60]	; 0x3c
10007b3c:	3040      	adds	r0, #64	; 0x40
10007b3e:	3140      	adds	r1, #64	; 0x40
10007b40:	3a40      	subs	r2, #64	; 0x40
10007b42:	d2db      	bcs.n	10007afc <memcpy+0x10>
10007b44:	3230      	adds	r2, #48	; 0x30
10007b46:	d30b      	bcc.n	10007b60 <memcpy+0x74>
10007b48:	680b      	ldr	r3, [r1, #0]
10007b4a:	6003      	str	r3, [r0, #0]
10007b4c:	684b      	ldr	r3, [r1, #4]
10007b4e:	6043      	str	r3, [r0, #4]
10007b50:	688b      	ldr	r3, [r1, #8]
10007b52:	6083      	str	r3, [r0, #8]
10007b54:	68cb      	ldr	r3, [r1, #12]
10007b56:	60c3      	str	r3, [r0, #12]
10007b58:	3010      	adds	r0, #16
10007b5a:	3110      	adds	r1, #16
10007b5c:	3a10      	subs	r2, #16
10007b5e:	d2f3      	bcs.n	10007b48 <memcpy+0x5c>
10007b60:	320c      	adds	r2, #12
10007b62:	d305      	bcc.n	10007b70 <memcpy+0x84>
10007b64:	f851 3b04 	ldr.w	r3, [r1], #4
10007b68:	f840 3b04 	str.w	r3, [r0], #4
10007b6c:	3a04      	subs	r2, #4
10007b6e:	d2f9      	bcs.n	10007b64 <memcpy+0x78>
10007b70:	3204      	adds	r2, #4
10007b72:	d008      	beq.n	10007b86 <memcpy+0x9a>
10007b74:	07d2      	lsls	r2, r2, #31
10007b76:	bf1c      	itt	ne
10007b78:	f811 3b01 	ldrbne.w	r3, [r1], #1
10007b7c:	f800 3b01 	strbne.w	r3, [r0], #1
10007b80:	d301      	bcc.n	10007b86 <memcpy+0x9a>
10007b82:	880b      	ldrh	r3, [r1, #0]
10007b84:	8003      	strh	r3, [r0, #0]
10007b86:	4660      	mov	r0, ip
10007b88:	4770      	bx	lr
10007b8a:	bf00      	nop
10007b8c:	2a08      	cmp	r2, #8
10007b8e:	d313      	bcc.n	10007bb8 <memcpy+0xcc>
10007b90:	078b      	lsls	r3, r1, #30
10007b92:	d0b1      	beq.n	10007af8 <memcpy+0xc>
10007b94:	f010 0303 	ands.w	r3, r0, #3
10007b98:	d0ae      	beq.n	10007af8 <memcpy+0xc>
10007b9a:	f1c3 0304 	rsb	r3, r3, #4
10007b9e:	1ad2      	subs	r2, r2, r3
10007ba0:	07db      	lsls	r3, r3, #31
10007ba2:	bf1c      	itt	ne
10007ba4:	f811 3b01 	ldrbne.w	r3, [r1], #1
10007ba8:	f800 3b01 	strbne.w	r3, [r0], #1
10007bac:	d3a4      	bcc.n	10007af8 <memcpy+0xc>
10007bae:	f831 3b02 	ldrh.w	r3, [r1], #2
10007bb2:	f820 3b02 	strh.w	r3, [r0], #2
10007bb6:	e79f      	b.n	10007af8 <memcpy+0xc>
10007bb8:	3a04      	subs	r2, #4
10007bba:	d3d9      	bcc.n	10007b70 <memcpy+0x84>
10007bbc:	3a01      	subs	r2, #1
10007bbe:	f811 3b01 	ldrb.w	r3, [r1], #1
10007bc2:	f800 3b01 	strb.w	r3, [r0], #1
10007bc6:	d2f9      	bcs.n	10007bbc <memcpy+0xd0>
10007bc8:	780b      	ldrb	r3, [r1, #0]
10007bca:	7003      	strb	r3, [r0, #0]
10007bcc:	784b      	ldrb	r3, [r1, #1]
10007bce:	7043      	strb	r3, [r0, #1]
10007bd0:	788b      	ldrb	r3, [r1, #2]
10007bd2:	7083      	strb	r3, [r0, #2]
10007bd4:	4660      	mov	r0, ip
10007bd6:	4770      	bx	lr

10007bd8 <memset>:
10007bd8:	b570      	push	{r4, r5, r6, lr}
10007bda:	0786      	lsls	r6, r0, #30
10007bdc:	d048      	beq.n	10007c70 <memset+0x98>
10007bde:	1e54      	subs	r4, r2, #1
10007be0:	2a00      	cmp	r2, #0
10007be2:	d03f      	beq.n	10007c64 <memset+0x8c>
10007be4:	b2ca      	uxtb	r2, r1
10007be6:	4603      	mov	r3, r0
10007be8:	e001      	b.n	10007bee <memset+0x16>
10007bea:	3c01      	subs	r4, #1
10007bec:	d33a      	bcc.n	10007c64 <memset+0x8c>
10007bee:	f803 2b01 	strb.w	r2, [r3], #1
10007bf2:	079d      	lsls	r5, r3, #30
10007bf4:	d1f9      	bne.n	10007bea <memset+0x12>
10007bf6:	2c03      	cmp	r4, #3
10007bf8:	d92d      	bls.n	10007c56 <memset+0x7e>
10007bfa:	b2cd      	uxtb	r5, r1
10007bfc:	2c0f      	cmp	r4, #15
10007bfe:	ea45 2505 	orr.w	r5, r5, r5, lsl #8
10007c02:	ea45 4505 	orr.w	r5, r5, r5, lsl #16
10007c06:	d936      	bls.n	10007c76 <memset+0x9e>
10007c08:	f1a4 0c10 	sub.w	ip, r4, #16
10007c0c:	f103 0e20 	add.w	lr, r3, #32
10007c10:	f103 0210 	add.w	r2, r3, #16
10007c14:	f02c 060f 	bic.w	r6, ip, #15
10007c18:	ea4f 1c1c 	mov.w	ip, ip, lsr #4
10007c1c:	44b6      	add	lr, r6
10007c1e:	e942 5504 	strd	r5, r5, [r2, #-16]
10007c22:	e942 5502 	strd	r5, r5, [r2, #-8]
10007c26:	3210      	adds	r2, #16
10007c28:	4572      	cmp	r2, lr
10007c2a:	d1f8      	bne.n	10007c1e <memset+0x46>
10007c2c:	f10c 0201 	add.w	r2, ip, #1
10007c30:	f014 0f0c 	tst.w	r4, #12
10007c34:	f004 0c0f 	and.w	ip, r4, #15
10007c38:	eb03 1202 	add.w	r2, r3, r2, lsl #4
10007c3c:	d013      	beq.n	10007c66 <memset+0x8e>
10007c3e:	f1ac 0304 	sub.w	r3, ip, #4
10007c42:	f023 0303 	bic.w	r3, r3, #3
10007c46:	3304      	adds	r3, #4
10007c48:	4413      	add	r3, r2
10007c4a:	f842 5b04 	str.w	r5, [r2], #4
10007c4e:	4293      	cmp	r3, r2
10007c50:	d1fb      	bne.n	10007c4a <memset+0x72>
10007c52:	f00c 0403 	and.w	r4, ip, #3
10007c56:	b12c      	cbz	r4, 10007c64 <memset+0x8c>
10007c58:	b2ca      	uxtb	r2, r1
10007c5a:	441c      	add	r4, r3
10007c5c:	f803 2b01 	strb.w	r2, [r3], #1
10007c60:	429c      	cmp	r4, r3
10007c62:	d1fb      	bne.n	10007c5c <memset+0x84>
10007c64:	bd70      	pop	{r4, r5, r6, pc}
10007c66:	4664      	mov	r4, ip
10007c68:	4613      	mov	r3, r2
10007c6a:	2c00      	cmp	r4, #0
10007c6c:	d1f4      	bne.n	10007c58 <memset+0x80>
10007c6e:	e7f9      	b.n	10007c64 <memset+0x8c>
10007c70:	4603      	mov	r3, r0
10007c72:	4614      	mov	r4, r2
10007c74:	e7bf      	b.n	10007bf6 <memset+0x1e>
10007c76:	461a      	mov	r2, r3
10007c78:	46a4      	mov	ip, r4
10007c7a:	e7e0      	b.n	10007c3e <memset+0x66>

10007c7c <strlen>:
10007c7c:	f020 0103 	bic.w	r1, r0, #3
10007c80:	f010 0003 	ands.w	r0, r0, #3
10007c84:	f1c0 0000 	rsb	r0, r0, #0
10007c88:	f851 3b04 	ldr.w	r3, [r1], #4
10007c8c:	f100 0c04 	add.w	ip, r0, #4
10007c90:	ea4f 0ccc 	mov.w	ip, ip, lsl #3
10007c94:	f06f 0200 	mvn.w	r2, #0
10007c98:	bf1c      	itt	ne
10007c9a:	fa22 f20c 	lsrne.w	r2, r2, ip
10007c9e:	4313      	orrne	r3, r2
10007ca0:	f04f 0c01 	mov.w	ip, #1
10007ca4:	ea4c 2c0c 	orr.w	ip, ip, ip, lsl #8
10007ca8:	ea4c 4c0c 	orr.w	ip, ip, ip, lsl #16
10007cac:	eba3 020c 	sub.w	r2, r3, ip
10007cb0:	ea22 0203 	bic.w	r2, r2, r3
10007cb4:	ea12 12cc 	ands.w	r2, r2, ip, lsl #7
10007cb8:	bf04      	itt	eq
10007cba:	f851 3b04 	ldreq.w	r3, [r1], #4
10007cbe:	3004      	addeq	r0, #4
10007cc0:	d0f4      	beq.n	10007cac <strlen+0x30>
10007cc2:	f1c2 0100 	rsb	r1, r2, #0
10007cc6:	ea02 0201 	and.w	r2, r2, r1
10007cca:	fab2 f282 	clz	r2, r2
10007cce:	f1c2 021f 	rsb	r2, r2, #31
10007cd2:	eb00 00d2 	add.w	r0, r0, r2, lsr #3
10007cd6:	4770      	bx	lr

10007cd8 <_fini>:
10007cd8:	b5f8      	push	{r3, r4, r5, r6, r7, lr}
10007cda:	bf00      	nop
10007cdc:	0000      	movs	r0, r0
	...

10007ce0 <__mutex_exit_veneer>:
10007ce0:	b401      	push	{r0}
10007ce2:	4802      	ldr	r0, [pc, #8]	; (10007cec <__mutex_exit_veneer+0xc>)
10007ce4:	4684      	mov	ip, r0
10007ce6:	bc01      	pop	{r0}
10007ce8:	4760      	bx	ip
10007cea:	bf00      	nop
10007cec:	20000285 	.word	0x20000285

10007cf0 <__e15_is_bulkin_ep_veneer>:
10007cf0:	b401      	push	{r0}
10007cf2:	4802      	ldr	r0, [pc, #8]	; (10007cfc <__e15_is_bulkin_ep_veneer+0xc>)
10007cf4:	4684      	mov	ip, r0
10007cf6:	bc01      	pop	{r0}
10007cf8:	4760      	bx	ip
10007cfa:	bf00      	nop
10007cfc:	20000a61 	.word	0x20000a61

10007d00 <__mutex_try_enter_veneer>:
10007d00:	b401      	push	{r0}
10007d02:	4802      	ldr	r0, [pc, #8]	; (10007d0c <__mutex_try_enter_veneer+0xc>)
10007d04:	4684      	mov	ip, r0
10007d06:	bc01      	pop	{r0}
10007d08:	4760      	bx	ip
10007d0a:	bf00      	nop
10007d0c:	20000111 	.word	0x20000111

10007d10 <__mutex_enter_timeout_ms_veneer>:
10007d10:	b401      	push	{r0}
10007d12:	4802      	ldr	r0, [pc, #8]	; (10007d1c <__mutex_enter_timeout_ms_veneer+0xc>)
10007d14:	4684      	mov	ip, r0
10007d16:	bc01      	pop	{r0}
10007d18:	4760      	bx	ip
10007d1a:	bf00      	nop
10007d1c:	2000020d 	.word	0x2000020d

10007d20 <____aeabi_ldivmod_veneer>:
10007d20:	b401      	push	{r0}
10007d22:	4802      	ldr	r0, [pc, #8]	; (10007d2c <____aeabi_ldivmod_veneer+0xc>)
10007d24:	4684      	mov	ip, r0
10007d26:	bc01      	pop	{r0}
10007d28:	4760      	bx	ip
10007d2a:	bf00      	nop
10007d2c:	20000dbd 	.word	0x20000dbd

10007d30 <__mutex_try_enter_block_until_veneer>:
10007d30:	b401      	push	{r0}
10007d32:	4802      	ldr	r0, [pc, #8]	; (10007d3c <__mutex_try_enter_block_until_veneer+0xc>)
10007d34:	4684      	mov	ip, r0
10007d36:	bc01      	pop	{r0}
10007d38:	4760      	bx	ip
10007d3a:	bf00      	nop
10007d3c:	2000015d 	.word	0x2000015d

10007d40 <__hw_endpoint_start_next_buffer_veneer>:
10007d40:	b401      	push	{r0}
10007d42:	4802      	ldr	r0, [pc, #8]	; (10007d4c <__hw_endpoint_start_next_buffer_veneer+0xc>)
10007d44:	4684      	mov	ip, r0
10007d46:	bc01      	pop	{r0}
10007d48:	4760      	bx	ip
10007d4a:	bf00      	nop
10007d4c:	20000b01 	.word	0x20000b01

10007d50 <__hw_endpoint_reset_transfer_veneer>:
10007d50:	b401      	push	{r0}
10007d52:	4802      	ldr	r0, [pc, #8]	; (10007d5c <__hw_endpoint_reset_transfer_veneer+0xc>)
10007d54:	4684      	mov	ip, r0
10007d56:	bc01      	pop	{r0}
10007d58:	4760      	bx	ip
10007d5a:	bf00      	nop
10007d5c:	20000ab1 	.word	0x20000ab1

10007d60 <__reset_non_control_endpoints_veneer>:
10007d60:	b401      	push	{r0}
10007d62:	4802      	ldr	r0, [pc, #8]	; (10007d6c <__reset_non_control_endpoints_veneer+0xc>)
10007d64:	4684      	mov	ip, r0
10007d66:	bc01      	pop	{r0}
10007d68:	4760      	bx	ip
10007d6a:	bf00      	nop
10007d6c:	200002b9 	.word	0x200002b9

10007d70 <___hw_endpoint_buffer_control_update32_veneer>:
10007d70:	b401      	push	{r0}
10007d72:	4802      	ldr	r0, [pc, #8]	; (10007d7c <___hw_endpoint_buffer_control_update32_veneer+0xc>)
10007d74:	4684      	mov	ip, r0
10007d76:	bc01      	pop	{r0}
10007d78:	4760      	bx	ip
10007d7a:	bf00      	nop
10007d7c:	20000abd 	.word	0x20000abd

10007d80 <__e15_is_critical_frame_period_veneer>:
10007d80:	b401      	push	{r0}
10007d82:	4802      	ldr	r0, [pc, #8]	; (10007d8c <__e15_is_critical_frame_period_veneer+0xc>)
10007d84:	4684      	mov	ip, r0
10007d86:	bc01      	pop	{r0}
10007d88:	4760      	bx	ip
10007d8a:	bf00      	nop
10007d8c:	20000a89 	.word	0x20000a89

10007d90 <__pre_init_runtime_init_bootrom_reset>:
10007d90:	10001a09                                ....

10007d94 <__pre_init_runtime_init_early_resets>:
10007d94:	1000197d                                }...

10007d98 <__pre_init_runtime_init_usb_power_down>:
10007d98:	100019b1                                ....

10007d9c <__pre_init_runtime_init_clocks>:
10007d9c:	10001a55                                U...

10007da0 <__pre_init_runtime_init_post_clock_resets>:
10007da0:	100019e9                                ....

10007da4 <__pre_init_runtime_init_boot_locks_reset>:
10007da4:	100018e1                                ....

10007da8 <__pre_init_runtime_init_spin_locks_reset>:
10007da8:	10001a31                                1...

10007dac <__pre_init_runtime_init_bootrom_locking_enable>:
10007dac:	100018cd                                ....

10007db0 <__pre_init_runtime_init_mutex>:
10007db0:	10000e11                                ....

10007db4 <__pre_init_runtime_init_install_ram_vector_table>:
10007db4:	10001a35                                5...

10007db8 <__pre_init_runtime_init_default_alarm_pool>:
10007db8:	100011f5                                ....

10007dbc <__pre_init_first_per_core_initializer>:
10007dbc:	1000192d                                -...

10007dc0 <__pre_init_runtime_init_per_core_bootrom_reset>:
10007dc0:	10001a1d                                ....

10007dc4 <__pre_init_runtime_init_per_core_enable_coprocessors>:
10007dc4:	100019cd                                ....

10007dc8 <__pre_init_spinlock_set_extexclall>:
10007dc8:	100007d5                                ....

10007dcc <__pre_init_runtime_init_per_core_irq_priorities>:
10007dcc:	100007fd                                ....

10007dd0 <__frame_dummy_init_array_entry>:
10007dd0:	10000215 1000237d 10004a19              ....}#...J..

Disassembly of section .data:

20000110 <mutex_try_enter>:
20000110:	b538      	push	{r3, r4, r5, lr}
20000112:	4604      	mov	r4, r0
20000114:	6803      	ldr	r3, [r0, #0]
20000116:	f3ef 8510 	mrs	r5, PRIMASK
2000011a:	b672      	cpsid	i
2000011c:	e8d3 0fcf 	ldaexb	r0, [r3]
20000120:	2201      	movs	r2, #1
20000122:	2800      	cmp	r0, #0
20000124:	d1fa      	bne.n	2000011c <mutex_try_enter+0xc>
20000126:	e8c3 2f40 	strexb	r0, r2, [r3]
2000012a:	2800      	cmp	r0, #0
2000012c:	d1f6      	bne.n	2000011c <mutex_try_enter+0xc>
2000012e:	f3bf 8f5f 	dmb	sy
20000132:	6863      	ldr	r3, [r4, #4]
20000134:	1c5a      	adds	r2, r3, #1
20000136:	d00b      	beq.n	20000150 <mutex_try_enter+0x40>
20000138:	b141      	cbz	r1, 2000014c <mutex_try_enter+0x3c>
2000013a:	2000      	movs	r0, #0
2000013c:	600b      	str	r3, [r1, #0]
2000013e:	2300      	movs	r3, #0
20000140:	6822      	ldr	r2, [r4, #0]
20000142:	e8c2 3f8f 	stlb	r3, [r2]
20000146:	f385 8810 	msr	PRIMASK, r5
2000014a:	bd38      	pop	{r3, r4, r5, pc}
2000014c:	4608      	mov	r0, r1
2000014e:	e7f6      	b.n	2000013e <mutex_try_enter+0x2e>
20000150:	f001 f816 	bl	20001180 <__ulPortLockGetCurrentOwnerId_veneer>
20000154:	4603      	mov	r3, r0
20000156:	2001      	movs	r0, #1
20000158:	6063      	str	r3, [r4, #4]
2000015a:	e7f0      	b.n	2000013e <mutex_try_enter+0x2e>

2000015c <mutex_try_enter_block_until>:
2000015c:	e92d 41f0 	stmdb	sp!, {r4, r5, r6, r7, r8, lr}
20000160:	461f      	mov	r7, r3
20000162:	4604      	mov	r4, r0
20000164:	4616      	mov	r6, r2
20000166:	6803      	ldr	r3, [r0, #0]
20000168:	f3ef 8810 	mrs	r8, PRIMASK
2000016c:	b672      	cpsid	i
2000016e:	e8d3 1fcf 	ldaexb	r1, [r3]
20000172:	2201      	movs	r2, #1
20000174:	2900      	cmp	r1, #0
20000176:	d1fa      	bne.n	2000016e <mutex_try_enter_block_until+0x12>
20000178:	e8c3 2f41 	strexb	r1, r2, [r3]
2000017c:	2900      	cmp	r1, #0
2000017e:	d1f6      	bne.n	2000016e <mutex_try_enter_block_until+0x12>
20000180:	f3bf 8f5f 	dmb	sy
20000184:	6845      	ldr	r5, [r0, #4]
20000186:	1c6b      	adds	r3, r5, #1
20000188:	d00c      	beq.n	200001a4 <mutex_try_enter_block_until+0x48>
2000018a:	2300      	movs	r3, #0
2000018c:	6802      	ldr	r2, [r0, #0]
2000018e:	e8c2 3f8f 	stlb	r3, [r2]
20000192:	f388 8810 	msr	PRIMASK, r8
20000196:	f000 fff3 	bl	20001180 <__ulPortLockGetCurrentOwnerId_veneer>
2000019a:	42a8      	cmp	r0, r5
2000019c:	d10e      	bne.n	200001bc <mutex_try_enter_block_until+0x60>
2000019e:	2000      	movs	r0, #0
200001a0:	e8bd 81f0 	ldmia.w	sp!, {r4, r5, r6, r7, r8, pc}
200001a4:	f000 ffec 	bl	20001180 <__ulPortLockGetCurrentOwnerId_veneer>
200001a8:	2300      	movs	r3, #0
200001aa:	6822      	ldr	r2, [r4, #0]
200001ac:	6060      	str	r0, [r4, #4]
200001ae:	e8c2 3f8f 	stlb	r3, [r2]
200001b2:	f388 8810 	msr	PRIMASK, r8
200001b6:	2001      	movs	r0, #1
200001b8:	e8bd 81f0 	ldmia.w	sp!, {r4, r5, r6, r7, r8, pc}
200001bc:	f000 ffe0 	bl	20001180 <__ulPortLockGetCurrentOwnerId_veneer>
200001c0:	4680      	mov	r8, r0
200001c2:	e006      	b.n	200001d2 <mutex_try_enter_block_until+0x76>
200001c4:	4632      	mov	r2, r6
200001c6:	463b      	mov	r3, r7
200001c8:	4620      	mov	r0, r4
200001ca:	f000 ffe1 	bl	20001190 <__xPortLockInternalSpinUnlockWithBestEffortWaitOrTimeout_veneer>
200001ce:	2800      	cmp	r0, #0
200001d0:	d1e5      	bne.n	2000019e <mutex_try_enter_block_until+0x42>
200001d2:	6825      	ldr	r5, [r4, #0]
200001d4:	f3ef 8110 	mrs	r1, PRIMASK
200001d8:	b672      	cpsid	i
200001da:	e8d5 2fcf 	ldaexb	r2, [r5]
200001de:	2301      	movs	r3, #1
200001e0:	2a00      	cmp	r2, #0
200001e2:	d1fa      	bne.n	200001da <mutex_try_enter_block_until+0x7e>
200001e4:	e8c5 3f42 	strexb	r2, r3, [r5]
200001e8:	2a00      	cmp	r2, #0
200001ea:	d1f6      	bne.n	200001da <mutex_try_enter_block_until+0x7e>
200001ec:	f3bf 8f5f 	dmb	sy
200001f0:	6863      	ldr	r3, [r4, #4]
200001f2:	3301      	adds	r3, #1
200001f4:	d1e6      	bne.n	200001c4 <mutex_try_enter_block_until+0x68>
200001f6:	2300      	movs	r3, #0
200001f8:	6822      	ldr	r2, [r4, #0]
200001fa:	f8c4 8004 	str.w	r8, [r4, #4]
200001fe:	e8c2 3f8f 	stlb	r3, [r2]
20000202:	f381 8810 	msr	PRIMASK, r1
20000206:	2001      	movs	r0, #1
20000208:	e7ca      	b.n	200001a0 <mutex_try_enter_block_until+0x44>
2000020a:	bf00      	nop

2000020c <mutex_enter_timeout_ms>:
2000020c:	e92d 41f0 	stmdb	sp!, {r4, r5, r6, r7, r8, lr}
20000210:	460d      	mov	r5, r1
20000212:	4604      	mov	r4, r0
20000214:	f000 ffac 	bl	20001170 <__time_us_64_veneer>
20000218:	f44f 737a 	mov.w	r3, #1000	; 0x3e8
2000021c:	fbe5 0103 	umlal	r0, r1, r5, r3
20000220:	2900      	cmp	r1, #0
20000222:	bfb9      	ittee	lt
20000224:	f04f 36ff 	movlt.w	r6, #4294967295	; 0xffffffff
20000228:	f06f 4700 	mvnlt.w	r7, #2147483648	; 0x80000000
2000022c:	460f      	movge	r7, r1
2000022e:	4606      	movge	r6, r0
20000230:	f000 ffa6 	bl	20001180 <__ulPortLockGetCurrentOwnerId_veneer>
20000234:	4680      	mov	r8, r0
20000236:	e005      	b.n	20000244 <mutex_enter_timeout_ms+0x38>
20000238:	4632      	mov	r2, r6
2000023a:	463b      	mov	r3, r7
2000023c:	4620      	mov	r0, r4
2000023e:	f000 ffa7 	bl	20001190 <__xPortLockInternalSpinUnlockWithBestEffortWaitOrTimeout_veneer>
20000242:	b9e0      	cbnz	r0, 2000027e <mutex_enter_timeout_ms+0x72>
20000244:	6825      	ldr	r5, [r4, #0]
20000246:	f3ef 8110 	mrs	r1, PRIMASK
2000024a:	b672      	cpsid	i
2000024c:	e8d5 2fcf 	ldaexb	r2, [r5]
20000250:	2301      	movs	r3, #1
20000252:	2a00      	cmp	r2, #0
20000254:	d1fa      	bne.n	2000024c <mutex_enter_timeout_ms+0x40>
20000256:	e8c5 3f42 	strexb	r2, r3, [r5]
2000025a:	2a00      	cmp	r2, #0
2000025c:	d1f6      	bne.n	2000024c <mutex_enter_timeout_ms+0x40>
2000025e:	f3bf 8f5f 	dmb	sy
20000262:	6865      	ldr	r5, [r4, #4]
20000264:	3501      	adds	r5, #1
20000266:	d1e7      	bne.n	20000238 <mutex_enter_timeout_ms+0x2c>
20000268:	2300      	movs	r3, #0
2000026a:	6822      	ldr	r2, [r4, #0]
2000026c:	f8c4 8004 	str.w	r8, [r4, #4]
20000270:	e8c2 3f8f 	stlb	r3, [r2]
20000274:	f381 8810 	msr	PRIMASK, r1
20000278:	2001      	movs	r0, #1
2000027a:	e8bd 81f0 	ldmia.w	sp!, {r4, r5, r6, r7, r8, pc}
2000027e:	2000      	movs	r0, #0
20000280:	e8bd 81f0 	ldmia.w	sp!, {r4, r5, r6, r7, r8, pc}

20000284 <mutex_exit>:
20000284:	b500      	push	{lr}
20000286:	6802      	ldr	r2, [r0, #0]
20000288:	f3ef 8110 	mrs	r1, PRIMASK
2000028c:	b672      	cpsid	i
2000028e:	e8d2 efcf 	ldaexb	lr, [r2]
20000292:	f05f 0c01 	movs.w	ip, #1
20000296:	f1be 0f00 	cmp.w	lr, #0
2000029a:	d1f8      	bne.n	2000028e <mutex_exit+0xa>
2000029c:	e8c2 cf4e 	strexb	lr, ip, [r2]
200002a0:	f1be 0f00 	cmp.w	lr, #0
200002a4:	d1f3      	bne.n	2000028e <mutex_exit+0xa>
200002a6:	f3bf 8f5f 	dmb	sy
200002aa:	f04f 32ff 	mov.w	r2, #4294967295	; 0xffffffff
200002ae:	f85d eb04 	ldr.w	lr, [sp], #4
200002b2:	6042      	str	r2, [r0, #4]
200002b4:	f000 bf74 	b.w	200011a0 <__vPortLockInternalSpinUnlockWithNotify_veneer>

200002b8 <reset_non_control_endpoints>:
200002b8:	2100      	movs	r1, #0
200002ba:	b508      	push	{r3, lr}
200002bc:	4b13      	ldr	r3, [pc, #76]	; (2000030c <reset_non_control_endpoints+0x54>)
200002be:	f44f 7270 	mov.w	r2, #960	; 0x3c0
200002c2:	6099      	str	r1, [r3, #8]
200002c4:	4812      	ldr	r0, [pc, #72]	; (20000310 <reset_non_control_endpoints+0x58>)
200002c6:	60d9      	str	r1, [r3, #12]
200002c8:	6119      	str	r1, [r3, #16]
200002ca:	6159      	str	r1, [r3, #20]
200002cc:	6199      	str	r1, [r3, #24]
200002ce:	61d9      	str	r1, [r3, #28]
200002d0:	6219      	str	r1, [r3, #32]
200002d2:	6259      	str	r1, [r3, #36]	; 0x24
200002d4:	6299      	str	r1, [r3, #40]	; 0x28
200002d6:	62d9      	str	r1, [r3, #44]	; 0x2c
200002d8:	6319      	str	r1, [r3, #48]	; 0x30
200002da:	6359      	str	r1, [r3, #52]	; 0x34
200002dc:	6399      	str	r1, [r3, #56]	; 0x38
200002de:	63d9      	str	r1, [r3, #60]	; 0x3c
200002e0:	6419      	str	r1, [r3, #64]	; 0x40
200002e2:	6459      	str	r1, [r3, #68]	; 0x44
200002e4:	6499      	str	r1, [r3, #72]	; 0x48
200002e6:	64d9      	str	r1, [r3, #76]	; 0x4c
200002e8:	6519      	str	r1, [r3, #80]	; 0x50
200002ea:	6559      	str	r1, [r3, #84]	; 0x54
200002ec:	6599      	str	r1, [r3, #88]	; 0x58
200002ee:	65d9      	str	r1, [r3, #92]	; 0x5c
200002f0:	6619      	str	r1, [r3, #96]	; 0x60
200002f2:	6659      	str	r1, [r3, #100]	; 0x64
200002f4:	6699      	str	r1, [r3, #104]	; 0x68
200002f6:	66d9      	str	r1, [r3, #108]	; 0x6c
200002f8:	6719      	str	r1, [r3, #112]	; 0x70
200002fa:	6759      	str	r1, [r3, #116]	; 0x74
200002fc:	6799      	str	r1, [r3, #120]	; 0x78
200002fe:	67d9      	str	r1, [r3, #124]	; 0x7c
20000300:	f000 ff56 	bl	200011b0 <__memset_veneer>
20000304:	4b03      	ldr	r3, [pc, #12]	; (20000314 <reset_non_control_endpoints+0x5c>)
20000306:	4a04      	ldr	r2, [pc, #16]	; (20000318 <reset_non_control_endpoints+0x60>)
20000308:	601a      	str	r2, [r3, #0]
2000030a:	bd08      	pop	{r3, pc}
2000030c:	50100000 	.word	0x50100000
20000310:	20001ad4 	.word	0x20001ad4
20000314:	20001e9c 	.word	0x20001e9c
20000318:	50100180 	.word	0x50100180

2000031c <hw_handle_buff_status>:
2000031c:	e92d 4ff0 	stmdb	sp!, {r4, r5, r6, r7, r8, r9, sl, fp, lr}
20000320:	4b23      	ldr	r3, [pc, #140]	; (200003b0 <hw_handle_buff_status+0x94>)
20000322:	b085      	sub	sp, #20
20000324:	f8d3 a058 	ldr.w	sl, [r3, #88]	; 0x58
20000328:	f1ba 0f00 	cmp.w	sl, #0
2000032c:	d025      	beq.n	2000037a <hw_handle_buff_status+0x5e>
2000032e:	2400      	movs	r4, #0
20000330:	2501      	movs	r5, #1
20000332:	f04f 0802 	mov.w	r8, #2
20000336:	4f1f      	ldr	r7, [pc, #124]	; (200003b4 <hw_handle_buff_status+0x98>)
20000338:	e003      	b.n	20000342 <hw_handle_buff_status+0x26>
2000033a:	006d      	lsls	r5, r5, #1
2000033c:	b2dc      	uxtb	r4, r3
2000033e:	2c20      	cmp	r4, #32
20000340:	d01b      	beq.n	2000037a <hw_handle_buff_status+0x5e>
20000342:	ea1a 0f05 	tst.w	sl, r5
20000346:	f104 0301 	add.w	r3, r4, #1
2000034a:	d0f6      	beq.n	2000033a <hw_handle_buff_status+0x1e>
2000034c:	43e6      	mvns	r6, r4
2000034e:	ea4f 0954 	mov.w	r9, r4, lsr #1
20000352:	f006 0601 	and.w	r6, r6, #1
20000356:	fb18 6b09 	smlabb	fp, r8, r9, r6
2000035a:	4b17      	ldr	r3, [pc, #92]	; (200003b8 <hw_handle_buff_status+0x9c>)
2000035c:	eb07 1b4b 	add.w	fp, r7, fp, lsl #5
20000360:	659d      	str	r5, [r3, #88]	; 0x58
20000362:	4658      	mov	r0, fp
20000364:	ea2a 0a05 	bic.w	sl, sl, r5
20000368:	006d      	lsls	r5, r5, #1
2000036a:	f000 fbfb 	bl	20000b64 <hw_endpoint_xfer_continue>
2000036e:	b938      	cbnz	r0, 20000380 <hw_handle_buff_status+0x64>
20000370:	3401      	adds	r4, #1
20000372:	b2e4      	uxtb	r4, r4
20000374:	f1ba 0f00 	cmp.w	sl, #0
20000378:	d1e1      	bne.n	2000033e <hw_handle_buff_status+0x22>
2000037a:	b005      	add	sp, #20
2000037c:	e8bd 8ff0 	ldmia.w	sp!, {r4, r5, r6, r7, r8, r9, sl, fp, pc}
20000380:	f44f 63e0 	mov.w	r3, #1792	; 0x700
20000384:	f8ad 3004 	strh.w	r3, [sp, #4]
20000388:	2300      	movs	r3, #0
2000038a:	eb06 0649 	add.w	r6, r6, r9, lsl #1
2000038e:	eb07 1646 	add.w	r6, r7, r6, lsl #5
20000392:	78b2      	ldrb	r2, [r6, #2]
20000394:	f88d 3009 	strb.w	r3, [sp, #9]
20000398:	8af3      	ldrh	r3, [r6, #22]
2000039a:	a801      	add	r0, sp, #4
2000039c:	2101      	movs	r1, #1
2000039e:	f88d 2008 	strb.w	r2, [sp, #8]
200003a2:	9303      	str	r3, [sp, #12]
200003a4:	f000 fbfe 	bl	20000ba4 <dcd_event_handler>
200003a8:	4658      	mov	r0, fp
200003aa:	f000 fb81 	bl	20000ab0 <hw_endpoint_reset_transfer>
200003ae:	e7df      	b.n	20000370 <hw_handle_buff_status+0x54>
200003b0:	50110000 	.word	0x50110000
200003b4:	20001a94 	.word	0x20001a94
200003b8:	50113000 	.word	0x50113000

200003bc <dcd_rp2040_irq>:
200003bc:	b570      	push	{r4, r5, r6, lr}
200003be:	4bb2      	ldr	r3, [pc, #712]	; (20000688 <dcd_rp2040_irq+0x2cc>)
200003c0:	b084      	sub	sp, #16
200003c2:	f8d3 5098 	ldr.w	r5, [r3, #152]	; 0x98
200003c6:	f415 3600 	ands.w	r6, r5, #131072	; 0x20000
200003ca:	d074      	beq.n	200004b6 <dcd_rp2040_irq+0xfa>
200003cc:	4baf      	ldr	r3, [pc, #700]	; (2000068c <dcd_rp2040_irq+0x2d0>)
200003ce:	4cb0      	ldr	r4, [pc, #704]	; (20000690 <dcd_rp2040_irq+0x2d4>)
200003d0:	6a99      	ldr	r1, [r3, #40]	; 0x28
200003d2:	f894 303b 	ldrb.w	r3, [r4, #59]	; 0x3b
200003d6:	4aaf      	ldr	r2, [pc, #700]	; (20000694 <dcd_rp2040_irq+0x2d8>)
200003d8:	2b02      	cmp	r3, #2
200003da:	6011      	str	r1, [r2, #0]
200003dc:	f000 80f9 	beq.w	200005d2 <dcd_rp2040_irq+0x216>
200003e0:	2600      	movs	r6, #0
200003e2:	f894 307b 	ldrb.w	r3, [r4, #123]	; 0x7b
200003e6:	2b02      	cmp	r3, #2
200003e8:	f000 81c8 	beq.w	2000077c <dcd_rp2040_irq+0x3c0>
200003ec:	f894 30bb 	ldrb.w	r3, [r4, #187]	; 0xbb
200003f0:	2b02      	cmp	r3, #2
200003f2:	f000 81b9 	beq.w	20000768 <dcd_rp2040_irq+0x3ac>
200003f6:	f894 30fb 	ldrb.w	r3, [r4, #251]	; 0xfb
200003fa:	2b02      	cmp	r3, #2
200003fc:	f000 81aa 	beq.w	20000754 <dcd_rp2040_irq+0x398>
20000400:	f894 313b 	ldrb.w	r3, [r4, #315]	; 0x13b
20000404:	2b02      	cmp	r3, #2
20000406:	f000 819a 	beq.w	2000073e <dcd_rp2040_irq+0x382>
2000040a:	f894 317b 	ldrb.w	r3, [r4, #379]	; 0x17b
2000040e:	2b02      	cmp	r3, #2
20000410:	f000 818a 	beq.w	20000728 <dcd_rp2040_irq+0x36c>
20000414:	f894 31bb 	ldrb.w	r3, [r4, #443]	; 0x1bb
20000418:	2b02      	cmp	r3, #2
2000041a:	f000 817a 	beq.w	20000712 <dcd_rp2040_irq+0x356>
2000041e:	f894 31fb 	ldrb.w	r3, [r4, #507]	; 0x1fb
20000422:	2b02      	cmp	r3, #2
20000424:	f000 816a 	beq.w	200006fc <dcd_rp2040_irq+0x340>
20000428:	f894 323b 	ldrb.w	r3, [r4, #571]	; 0x23b
2000042c:	2b02      	cmp	r3, #2
2000042e:	f000 8159 	beq.w	200006e4 <dcd_rp2040_irq+0x328>
20000432:	f894 327b 	ldrb.w	r3, [r4, #635]	; 0x27b
20000436:	2b02      	cmp	r3, #2
20000438:	f000 8148 	beq.w	200006cc <dcd_rp2040_irq+0x310>
2000043c:	f894 32bb 	ldrb.w	r3, [r4, #699]	; 0x2bb
20000440:	2b02      	cmp	r3, #2
20000442:	f000 8137 	beq.w	200006b4 <dcd_rp2040_irq+0x2f8>
20000446:	f894 32fb 	ldrb.w	r3, [r4, #763]	; 0x2fb
2000044a:	2b02      	cmp	r3, #2
2000044c:	f000 8110 	beq.w	20000670 <dcd_rp2040_irq+0x2b4>
20000450:	f894 333b 	ldrb.w	r3, [r4, #827]	; 0x33b
20000454:	2b02      	cmp	r3, #2
20000456:	f000 80ff 	beq.w	20000658 <dcd_rp2040_irq+0x29c>
2000045a:	f894 337b 	ldrb.w	r3, [r4, #891]	; 0x37b
2000045e:	2b02      	cmp	r3, #2
20000460:	f000 80ee 	beq.w	20000640 <dcd_rp2040_irq+0x284>
20000464:	f894 33bb 	ldrb.w	r3, [r4, #955]	; 0x3bb
20000468:	2b02      	cmp	r3, #2
2000046a:	f000 80d5 	beq.w	20000618 <dcd_rp2040_irq+0x25c>
2000046e:	f894 33fb 	ldrb.w	r3, [r4, #1019]	; 0x3fb
20000472:	2b02      	cmp	r3, #2
20000474:	f000 80bf 	beq.w	200005f6 <dcd_rp2040_irq+0x23a>
20000478:	b93e      	cbnz	r6, 2000048a <dcd_rp2040_irq+0xce>
2000047a:	4b87      	ldr	r3, [pc, #540]	; (20000698 <dcd_rp2040_irq+0x2dc>)
2000047c:	781b      	ldrb	r3, [r3, #0]
2000047e:	b923      	cbnz	r3, 2000048a <dcd_rp2040_irq+0xce>
20000480:	f44f 3200 	mov.w	r2, #131072	; 0x20000
20000484:	4b85      	ldr	r3, [pc, #532]	; (2000069c <dcd_rp2040_irq+0x2e0>)
20000486:	f8c3 2090 	str.w	r2, [r3, #144]	; 0x90
2000048a:	f44f 7240 	mov.w	r2, #768	; 0x300
2000048e:	4b7e      	ldr	r3, [pc, #504]	; (20000688 <dcd_rp2040_irq+0x2cc>)
20000490:	2101      	movs	r1, #1
20000492:	6c9b      	ldr	r3, [r3, #72]	; 0x48
20000494:	a801      	add	r0, sp, #4
20000496:	f3c3 030a 	ubfx	r3, r3, #0, #11
2000049a:	9302      	str	r3, [sp, #8]
2000049c:	f8ad 2004 	strh.w	r2, [sp, #4]
200004a0:	f000 fb80 	bl	20000ba4 <dcd_event_handler>
200004a4:	06e9      	lsls	r1, r5, #27
200004a6:	f44f 3600 	mov.w	r6, #131072	; 0x20000
200004aa:	4c7d      	ldr	r4, [pc, #500]	; (200006a0 <dcd_rp2040_irq+0x2e4>)
200004ac:	d507      	bpl.n	200004be <dcd_rp2040_irq+0x102>
200004ae:	f7ff ff35 	bl	2000031c <hw_handle_buff_status>
200004b2:	4626      	mov	r6, r4
200004b4:	e003      	b.n	200004be <dcd_rp2040_irq+0x102>
200004b6:	06e9      	lsls	r1, r5, #27
200004b8:	f04f 0410 	mov.w	r4, #16
200004bc:	d4f7      	bmi.n	200004ae <dcd_rp2040_irq+0xf2>
200004be:	03ea      	lsls	r2, r5, #15
200004c0:	d532      	bpl.n	20000528 <dcd_rp2040_irq+0x16c>
200004c2:	4c73      	ldr	r4, [pc, #460]	; (20000690 <dcd_rp2040_irq+0x2d4>)
200004c4:	f446 3680 	orr.w	r6, r6, #65536	; 0x10000
200004c8:	7ea3      	ldrb	r3, [r4, #26]
200004ca:	b19b      	cbz	r3, 200004f4 <dcd_rp2040_irq+0x138>
200004cc:	2102      	movs	r1, #2
200004ce:	4b75      	ldr	r3, [pc, #468]	; (200006a4 <dcd_rp2040_irq+0x2e8>)
200004d0:	4a6d      	ldr	r2, [pc, #436]	; (20000688 <dcd_rp2040_irq+0x2cc>)
200004d2:	6619      	str	r1, [r3, #96]	; 0x60
200004d4:	6e53      	ldr	r3, [r2, #100]	; 0x64
200004d6:	079b      	lsls	r3, r3, #30
200004d8:	d5fc      	bpl.n	200004d4 <dcd_rp2040_irq+0x118>
200004da:	f44f 5240 	mov.w	r2, #12288	; 0x3000
200004de:	2100      	movs	r1, #0
200004e0:	486b      	ldr	r0, [pc, #428]	; (20000690 <dcd_rp2040_irq+0x2d4>)
200004e2:	f000 faeb 	bl	20000abc <_hw_endpoint_buffer_control_update32>
200004e6:	486a      	ldr	r0, [pc, #424]	; (20000690 <dcd_rp2040_irq+0x2d4>)
200004e8:	f000 fae2 	bl	20000ab0 <hw_endpoint_reset_transfer>
200004ec:	2202      	movs	r2, #2
200004ee:	4b6b      	ldr	r3, [pc, #428]	; (2000069c <dcd_rp2040_irq+0x2e0>)
200004f0:	665a      	str	r2, [r3, #100]	; 0x64
200004f2:	661a      	str	r2, [r3, #96]	; 0x60
200004f4:	2301      	movs	r3, #1
200004f6:	f894 203a 	ldrb.w	r2, [r4, #58]	; 0x3a
200004fa:	70e3      	strb	r3, [r4, #3]
200004fc:	b9fa      	cbnz	r2, 2000053e <dcd_rp2040_irq+0x182>
200004fe:	2301      	movs	r3, #1
20000500:	f44f 61c0 	mov.w	r1, #1536	; 0x600
20000504:	4a68      	ldr	r2, [pc, #416]	; (200006a8 <dcd_rp2040_irq+0x2ec>)
20000506:	f884 3023 	strb.w	r3, [r4, #35]	; 0x23
2000050a:	f8ad 1004 	strh.w	r1, [sp, #4]
2000050e:	e892 0003 	ldmia.w	r2, {r0, r1}
20000512:	aa04      	add	r2, sp, #16
20000514:	e902 0003 	stmdb	r2, {r0, r1}
20000518:	4619      	mov	r1, r3
2000051a:	a801      	add	r0, sp, #4
2000051c:	f000 fb42 	bl	20000ba4 <dcd_event_handler>
20000520:	f44f 3200 	mov.w	r2, #131072	; 0x20000
20000524:	4b5d      	ldr	r3, [pc, #372]	; (2000069c <dcd_rp2040_irq+0x2e0>)
20000526:	651a      	str	r2, [r3, #80]	; 0x50
20000528:	04e9      	lsls	r1, r5, #19
2000052a:	d41d      	bmi.n	20000568 <dcd_rp2040_irq+0x1ac>
2000052c:	046a      	lsls	r2, r5, #17
2000052e:	d432      	bmi.n	20000596 <dcd_rp2040_irq+0x1da>
20000530:	042b      	lsls	r3, r5, #16
20000532:	d43f      	bmi.n	200005b4 <dcd_rp2040_irq+0x1f8>
20000534:	42ae      	cmp	r6, r5
20000536:	f040 819a 	bne.w	2000086e <dcd_rp2040_irq+0x4b2>
2000053a:	b004      	add	sp, #16
2000053c:	bd70      	pop	{r4, r5, r6, pc}
2000053e:	4a59      	ldr	r2, [pc, #356]	; (200006a4 <dcd_rp2040_irq+0x2e8>)
20000540:	6613      	str	r3, [r2, #96]	; 0x60
20000542:	f5a2 5200 	sub.w	r2, r2, #8192	; 0x2000
20000546:	6e53      	ldr	r3, [r2, #100]	; 0x64
20000548:	07d8      	lsls	r0, r3, #31
2000054a:	d5fc      	bpl.n	20000546 <dcd_rp2040_irq+0x18a>
2000054c:	f44f 5240 	mov.w	r2, #12288	; 0x3000
20000550:	2100      	movs	r1, #0
20000552:	4856      	ldr	r0, [pc, #344]	; (200006ac <dcd_rp2040_irq+0x2f0>)
20000554:	f000 fab2 	bl	20000abc <_hw_endpoint_buffer_control_update32>
20000558:	4854      	ldr	r0, [pc, #336]	; (200006ac <dcd_rp2040_irq+0x2f0>)
2000055a:	f000 faa9 	bl	20000ab0 <hw_endpoint_reset_transfer>
2000055e:	2201      	movs	r2, #1
20000560:	4b4e      	ldr	r3, [pc, #312]	; (2000069c <dcd_rp2040_irq+0x2e0>)
20000562:	665a      	str	r2, [r3, #100]	; 0x64
20000564:	661a      	str	r2, [r3, #96]	; 0x60
20000566:	e7ca      	b.n	200004fe <dcd_rp2040_irq+0x142>
20000568:	2400      	movs	r4, #0
2000056a:	4b47      	ldr	r3, [pc, #284]	; (20000688 <dcd_rp2040_irq+0x2cc>)
2000056c:	f446 5680 	orr.w	r6, r6, #4096	; 0x1000
20000570:	601c      	str	r4, [r3, #0]
20000572:	f7ff fea1 	bl	200002b8 <reset_non_control_endpoints>
20000576:	f44f 7380 	mov.w	r3, #256	; 0x100
2000057a:	2101      	movs	r1, #1
2000057c:	a801      	add	r0, sp, #4
2000057e:	f8ad 3004 	strh.w	r3, [sp, #4]
20000582:	f88d 4008 	strb.w	r4, [sp, #8]
20000586:	f000 fb0d 	bl	20000ba4 <dcd_event_handler>
2000058a:	f44f 2200 	mov.w	r2, #524288	; 0x80000
2000058e:	4b43      	ldr	r3, [pc, #268]	; (2000069c <dcd_rp2040_irq+0x2e0>)
20000590:	651a      	str	r2, [r3, #80]	; 0x50
20000592:	046a      	lsls	r2, r5, #17
20000594:	d5cc      	bpl.n	20000530 <dcd_rp2040_irq+0x174>
20000596:	f44f 6380 	mov.w	r3, #1024	; 0x400
2000059a:	2101      	movs	r1, #1
2000059c:	a801      	add	r0, sp, #4
2000059e:	f8ad 3004 	strh.w	r3, [sp, #4]
200005a2:	f000 faff 	bl	20000ba4 <dcd_event_handler>
200005a6:	2210      	movs	r2, #16
200005a8:	4b3c      	ldr	r3, [pc, #240]	; (2000069c <dcd_rp2040_irq+0x2e0>)
200005aa:	f446 4680 	orr.w	r6, r6, #16384	; 0x4000
200005ae:	651a      	str	r2, [r3, #80]	; 0x50
200005b0:	042b      	lsls	r3, r5, #16
200005b2:	d5bf      	bpl.n	20000534 <dcd_rp2040_irq+0x178>
200005b4:	f44f 63a0 	mov.w	r3, #1280	; 0x500
200005b8:	2101      	movs	r1, #1
200005ba:	a801      	add	r0, sp, #4
200005bc:	f8ad 3004 	strh.w	r3, [sp, #4]
200005c0:	f000 faf0 	bl	20000ba4 <dcd_event_handler>
200005c4:	f44f 6200 	mov.w	r2, #2048	; 0x800
200005c8:	4b34      	ldr	r3, [pc, #208]	; (2000069c <dcd_rp2040_irq+0x2e0>)
200005ca:	f446 4600 	orr.w	r6, r6, #32768	; 0x8000
200005ce:	651a      	str	r2, [r3, #80]	; 0x50
200005d0:	e7b0      	b.n	20000534 <dcd_rp2040_irq+0x178>
200005d2:	f894 603a 	ldrb.w	r6, [r4, #58]	; 0x3a
200005d6:	2e00      	cmp	r6, #0
200005d8:	f43f af03 	beq.w	200003e2 <dcd_rp2040_irq+0x26>
200005dc:	f894 303c 	ldrb.w	r3, [r4, #60]	; 0x3c
200005e0:	2b00      	cmp	r3, #0
200005e2:	f43f aefe 	beq.w	200003e2 <dcd_rp2040_irq+0x26>
200005e6:	2300      	movs	r3, #0
200005e8:	f104 0020 	add.w	r0, r4, #32
200005ec:	f884 303c 	strb.w	r3, [r4, #60]	; 0x3c
200005f0:	f000 fa86 	bl	20000b00 <hw_endpoint_start_next_buffer>
200005f4:	e6f5      	b.n	200003e2 <dcd_rp2040_irq+0x26>
200005f6:	f894 33fa 	ldrb.w	r3, [r4, #1018]	; 0x3fa
200005fa:	2b00      	cmp	r3, #0
200005fc:	f43f af3c 	beq.w	20000478 <dcd_rp2040_irq+0xbc>
20000600:	f894 33fc 	ldrb.w	r3, [r4, #1020]	; 0x3fc
20000604:	2b00      	cmp	r3, #0
20000606:	f43f af40 	beq.w	2000048a <dcd_rp2040_irq+0xce>
2000060a:	2300      	movs	r3, #0
2000060c:	4828      	ldr	r0, [pc, #160]	; (200006b0 <dcd_rp2040_irq+0x2f4>)
2000060e:	f884 33fc 	strb.w	r3, [r4, #1020]	; 0x3fc
20000612:	f000 fa75 	bl	20000b00 <hw_endpoint_start_next_buffer>
20000616:	e738      	b.n	2000048a <dcd_rp2040_irq+0xce>
20000618:	f894 33ba 	ldrb.w	r3, [r4, #954]	; 0x3ba
2000061c:	2b00      	cmp	r3, #0
2000061e:	f43f af26 	beq.w	2000046e <dcd_rp2040_irq+0xb2>
20000622:	f894 33bc 	ldrb.w	r3, [r4, #956]	; 0x3bc
20000626:	2b00      	cmp	r3, #0
20000628:	f040 80b2 	bne.w	20000790 <dcd_rp2040_irq+0x3d4>
2000062c:	f894 33fb 	ldrb.w	r3, [r4, #1019]	; 0x3fb
20000630:	2b02      	cmp	r3, #2
20000632:	f47f af2a 	bne.w	2000048a <dcd_rp2040_irq+0xce>
20000636:	f894 33fa 	ldrb.w	r3, [r4, #1018]	; 0x3fa
2000063a:	2b00      	cmp	r3, #0
2000063c:	d1e0      	bne.n	20000600 <dcd_rp2040_irq+0x244>
2000063e:	e724      	b.n	2000048a <dcd_rp2040_irq+0xce>
20000640:	f894 337a 	ldrb.w	r3, [r4, #890]	; 0x37a
20000644:	2b00      	cmp	r3, #0
20000646:	f43f af0d 	beq.w	20000464 <dcd_rp2040_irq+0xa8>
2000064a:	f894 237c 	ldrb.w	r2, [r4, #892]	; 0x37c
2000064e:	2a00      	cmp	r2, #0
20000650:	f040 8105 	bne.w	2000085e <dcd_rp2040_irq+0x4a2>
20000654:	461e      	mov	r6, r3
20000656:	e705      	b.n	20000464 <dcd_rp2040_irq+0xa8>
20000658:	f894 333a 	ldrb.w	r3, [r4, #826]	; 0x33a
2000065c:	2b00      	cmp	r3, #0
2000065e:	f43f aefc 	beq.w	2000045a <dcd_rp2040_irq+0x9e>
20000662:	f894 233c 	ldrb.w	r2, [r4, #828]	; 0x33c
20000666:	2a00      	cmp	r2, #0
20000668:	f040 80f1 	bne.w	2000084e <dcd_rp2040_irq+0x492>
2000066c:	461e      	mov	r6, r3
2000066e:	e6f4      	b.n	2000045a <dcd_rp2040_irq+0x9e>
20000670:	f894 32fa 	ldrb.w	r3, [r4, #762]	; 0x2fa
20000674:	2b00      	cmp	r3, #0
20000676:	f43f aeeb 	beq.w	20000450 <dcd_rp2040_irq+0x94>
2000067a:	f894 22fc 	ldrb.w	r2, [r4, #764]	; 0x2fc
2000067e:	2a00      	cmp	r2, #0
20000680:	f040 80dd 	bne.w	2000083e <dcd_rp2040_irq+0x482>
20000684:	461e      	mov	r6, r3
20000686:	e6e3      	b.n	20000450 <dcd_rp2040_irq+0x94>
20000688:	50110000 	.word	0x50110000
2000068c:	400b0000 	.word	0x400b0000
20000690:	20001a94 	.word	0x20001a94
20000694:	20001a8c 	.word	0x20001a8c
20000698:	2002229d 	.word	0x2002229d
2000069c:	50113000 	.word	0x50113000
200006a0:	00020010 	.word	0x00020010
200006a4:	50112000 	.word	0x50112000
200006a8:	50100000 	.word	0x50100000
200006ac:	20001ab4 	.word	0x20001ab4
200006b0:	20001e74 	.word	0x20001e74
200006b4:	f894 32ba 	ldrb.w	r3, [r4, #698]	; 0x2ba
200006b8:	2b00      	cmp	r3, #0
200006ba:	f43f aec4 	beq.w	20000446 <dcd_rp2040_irq+0x8a>
200006be:	f894 22bc 	ldrb.w	r2, [r4, #700]	; 0x2bc
200006c2:	2a00      	cmp	r2, #0
200006c4:	f040 80b3 	bne.w	2000082e <dcd_rp2040_irq+0x472>
200006c8:	461e      	mov	r6, r3
200006ca:	e6bc      	b.n	20000446 <dcd_rp2040_irq+0x8a>
200006cc:	f894 327a 	ldrb.w	r3, [r4, #634]	; 0x27a
200006d0:	2b00      	cmp	r3, #0
200006d2:	f43f aeb3 	beq.w	2000043c <dcd_rp2040_irq+0x80>
200006d6:	f894 227c 	ldrb.w	r2, [r4, #636]	; 0x27c
200006da:	2a00      	cmp	r2, #0
200006dc:	f040 809f 	bne.w	2000081e <dcd_rp2040_irq+0x462>
200006e0:	461e      	mov	r6, r3
200006e2:	e6ab      	b.n	2000043c <dcd_rp2040_irq+0x80>
200006e4:	f894 323a 	ldrb.w	r3, [r4, #570]	; 0x23a
200006e8:	2b00      	cmp	r3, #0
200006ea:	f43f aea2 	beq.w	20000432 <dcd_rp2040_irq+0x76>
200006ee:	f894 223c 	ldrb.w	r2, [r4, #572]	; 0x23c
200006f2:	2a00      	cmp	r2, #0
200006f4:	f040 808b 	bne.w	2000080e <dcd_rp2040_irq+0x452>
200006f8:	461e      	mov	r6, r3
200006fa:	e69a      	b.n	20000432 <dcd_rp2040_irq+0x76>
200006fc:	f894 31fa 	ldrb.w	r3, [r4, #506]	; 0x1fa
20000700:	2b00      	cmp	r3, #0
20000702:	f43f ae91 	beq.w	20000428 <dcd_rp2040_irq+0x6c>
20000706:	f894 21fc 	ldrb.w	r2, [r4, #508]	; 0x1fc
2000070a:	2a00      	cmp	r2, #0
2000070c:	d177      	bne.n	200007fe <dcd_rp2040_irq+0x442>
2000070e:	461e      	mov	r6, r3
20000710:	e68a      	b.n	20000428 <dcd_rp2040_irq+0x6c>
20000712:	f894 31ba 	ldrb.w	r3, [r4, #442]	; 0x1ba
20000716:	2b00      	cmp	r3, #0
20000718:	f43f ae81 	beq.w	2000041e <dcd_rp2040_irq+0x62>
2000071c:	f894 21bc 	ldrb.w	r2, [r4, #444]	; 0x1bc
20000720:	2a00      	cmp	r2, #0
20000722:	d164      	bne.n	200007ee <dcd_rp2040_irq+0x432>
20000724:	461e      	mov	r6, r3
20000726:	e67a      	b.n	2000041e <dcd_rp2040_irq+0x62>
20000728:	f894 317a 	ldrb.w	r3, [r4, #378]	; 0x17a
2000072c:	2b00      	cmp	r3, #0
2000072e:	f43f ae71 	beq.w	20000414 <dcd_rp2040_irq+0x58>
20000732:	f894 217c 	ldrb.w	r2, [r4, #380]	; 0x17c
20000736:	2a00      	cmp	r2, #0
20000738:	d151      	bne.n	200007de <dcd_rp2040_irq+0x422>
2000073a:	461e      	mov	r6, r3
2000073c:	e66a      	b.n	20000414 <dcd_rp2040_irq+0x58>
2000073e:	f894 313a 	ldrb.w	r3, [r4, #314]	; 0x13a
20000742:	2b00      	cmp	r3, #0
20000744:	f43f ae61 	beq.w	2000040a <dcd_rp2040_irq+0x4e>
20000748:	f894 213c 	ldrb.w	r2, [r4, #316]	; 0x13c
2000074c:	2a00      	cmp	r2, #0
2000074e:	d13e      	bne.n	200007ce <dcd_rp2040_irq+0x412>
20000750:	461e      	mov	r6, r3
20000752:	e65a      	b.n	2000040a <dcd_rp2040_irq+0x4e>
20000754:	f894 30fa 	ldrb.w	r3, [r4, #250]	; 0xfa
20000758:	2b00      	cmp	r3, #0
2000075a:	f43f ae51 	beq.w	20000400 <dcd_rp2040_irq+0x44>
2000075e:	f894 20fc 	ldrb.w	r2, [r4, #252]	; 0xfc
20000762:	bb62      	cbnz	r2, 200007be <dcd_rp2040_irq+0x402>
20000764:	461e      	mov	r6, r3
20000766:	e64b      	b.n	20000400 <dcd_rp2040_irq+0x44>
20000768:	f894 30ba 	ldrb.w	r3, [r4, #186]	; 0xba
2000076c:	2b00      	cmp	r3, #0
2000076e:	f43f ae42 	beq.w	200003f6 <dcd_rp2040_irq+0x3a>
20000772:	f894 20bc 	ldrb.w	r2, [r4, #188]	; 0xbc
20000776:	b9d2      	cbnz	r2, 200007ae <dcd_rp2040_irq+0x3f2>
20000778:	461e      	mov	r6, r3
2000077a:	e63c      	b.n	200003f6 <dcd_rp2040_irq+0x3a>
2000077c:	f894 307a 	ldrb.w	r3, [r4, #122]	; 0x7a
20000780:	2b00      	cmp	r3, #0
20000782:	f43f ae33 	beq.w	200003ec <dcd_rp2040_irq+0x30>
20000786:	f894 207c 	ldrb.w	r2, [r4, #124]	; 0x7c
2000078a:	b942      	cbnz	r2, 2000079e <dcd_rp2040_irq+0x3e2>
2000078c:	461e      	mov	r6, r3
2000078e:	e62d      	b.n	200003ec <dcd_rp2040_irq+0x30>
20000790:	2300      	movs	r3, #0
20000792:	4839      	ldr	r0, [pc, #228]	; (20000878 <dcd_rp2040_irq+0x4bc>)
20000794:	f884 33bc 	strb.w	r3, [r4, #956]	; 0x3bc
20000798:	f000 f9b2 	bl	20000b00 <hw_endpoint_start_next_buffer>
2000079c:	e746      	b.n	2000062c <dcd_rp2040_irq+0x270>
2000079e:	2200      	movs	r2, #0
200007a0:	4836      	ldr	r0, [pc, #216]	; (2000087c <dcd_rp2040_irq+0x4c0>)
200007a2:	f884 207c 	strb.w	r2, [r4, #124]	; 0x7c
200007a6:	461e      	mov	r6, r3
200007a8:	f000 f9aa 	bl	20000b00 <hw_endpoint_start_next_buffer>
200007ac:	e61e      	b.n	200003ec <dcd_rp2040_irq+0x30>
200007ae:	2200      	movs	r2, #0
200007b0:	4833      	ldr	r0, [pc, #204]	; (20000880 <dcd_rp2040_irq+0x4c4>)
200007b2:	f884 20bc 	strb.w	r2, [r4, #188]	; 0xbc
200007b6:	461e      	mov	r6, r3
200007b8:	f000 f9a2 	bl	20000b00 <hw_endpoint_start_next_buffer>
200007bc:	e61b      	b.n	200003f6 <dcd_rp2040_irq+0x3a>
200007be:	2200      	movs	r2, #0
200007c0:	4830      	ldr	r0, [pc, #192]	; (20000884 <dcd_rp2040_irq+0x4c8>)
200007c2:	f884 20fc 	strb.w	r2, [r4, #252]	; 0xfc
200007c6:	461e      	mov	r6, r3
200007c8:	f000 f99a 	bl	20000b00 <hw_endpoint_start_next_buffer>
200007cc:	e618      	b.n	20000400 <dcd_rp2040_irq+0x44>
200007ce:	2200      	movs	r2, #0
200007d0:	482d      	ldr	r0, [pc, #180]	; (20000888 <dcd_rp2040_irq+0x4cc>)
200007d2:	f884 213c 	strb.w	r2, [r4, #316]	; 0x13c
200007d6:	461e      	mov	r6, r3
200007d8:	f000 f992 	bl	20000b00 <hw_endpoint_start_next_buffer>
200007dc:	e615      	b.n	2000040a <dcd_rp2040_irq+0x4e>
200007de:	2200      	movs	r2, #0
200007e0:	482a      	ldr	r0, [pc, #168]	; (2000088c <dcd_rp2040_irq+0x4d0>)
200007e2:	f884 217c 	strb.w	r2, [r4, #380]	; 0x17c
200007e6:	461e      	mov	r6, r3
200007e8:	f000 f98a 	bl	20000b00 <hw_endpoint_start_next_buffer>
200007ec:	e612      	b.n	20000414 <dcd_rp2040_irq+0x58>
200007ee:	2200      	movs	r2, #0
200007f0:	4827      	ldr	r0, [pc, #156]	; (20000890 <dcd_rp2040_irq+0x4d4>)
200007f2:	f884 21bc 	strb.w	r2, [r4, #444]	; 0x1bc
200007f6:	461e      	mov	r6, r3
200007f8:	f000 f982 	bl	20000b00 <hw_endpoint_start_next_buffer>
200007fc:	e60f      	b.n	2000041e <dcd_rp2040_irq+0x62>
200007fe:	2200      	movs	r2, #0
20000800:	4824      	ldr	r0, [pc, #144]	; (20000894 <dcd_rp2040_irq+0x4d8>)
20000802:	f884 21fc 	strb.w	r2, [r4, #508]	; 0x1fc
20000806:	461e      	mov	r6, r3
20000808:	f000 f97a 	bl	20000b00 <hw_endpoint_start_next_buffer>
2000080c:	e60c      	b.n	20000428 <dcd_rp2040_irq+0x6c>
2000080e:	2200      	movs	r2, #0
20000810:	4821      	ldr	r0, [pc, #132]	; (20000898 <dcd_rp2040_irq+0x4dc>)
20000812:	f884 223c 	strb.w	r2, [r4, #572]	; 0x23c
20000816:	461e      	mov	r6, r3
20000818:	f000 f972 	bl	20000b00 <hw_endpoint_start_next_buffer>
2000081c:	e609      	b.n	20000432 <dcd_rp2040_irq+0x76>
2000081e:	2200      	movs	r2, #0
20000820:	481e      	ldr	r0, [pc, #120]	; (2000089c <dcd_rp2040_irq+0x4e0>)
20000822:	f884 227c 	strb.w	r2, [r4, #636]	; 0x27c
20000826:	461e      	mov	r6, r3
20000828:	f000 f96a 	bl	20000b00 <hw_endpoint_start_next_buffer>
2000082c:	e606      	b.n	2000043c <dcd_rp2040_irq+0x80>
2000082e:	2200      	movs	r2, #0
20000830:	481b      	ldr	r0, [pc, #108]	; (200008a0 <dcd_rp2040_irq+0x4e4>)
20000832:	f884 22bc 	strb.w	r2, [r4, #700]	; 0x2bc
20000836:	461e      	mov	r6, r3
20000838:	f000 f962 	bl	20000b00 <hw_endpoint_start_next_buffer>
2000083c:	e603      	b.n	20000446 <dcd_rp2040_irq+0x8a>
2000083e:	2200      	movs	r2, #0
20000840:	4818      	ldr	r0, [pc, #96]	; (200008a4 <dcd_rp2040_irq+0x4e8>)
20000842:	f884 22fc 	strb.w	r2, [r4, #764]	; 0x2fc
20000846:	461e      	mov	r6, r3
20000848:	f000 f95a 	bl	20000b00 <hw_endpoint_start_next_buffer>
2000084c:	e600      	b.n	20000450 <dcd_rp2040_irq+0x94>
2000084e:	2200      	movs	r2, #0
20000850:	4815      	ldr	r0, [pc, #84]	; (200008a8 <dcd_rp2040_irq+0x4ec>)
20000852:	f884 233c 	strb.w	r2, [r4, #828]	; 0x33c
20000856:	461e      	mov	r6, r3
20000858:	f000 f952 	bl	20000b00 <hw_endpoint_start_next_buffer>
2000085c:	e5fd      	b.n	2000045a <dcd_rp2040_irq+0x9e>
2000085e:	2200      	movs	r2, #0
20000860:	4812      	ldr	r0, [pc, #72]	; (200008ac <dcd_rp2040_irq+0x4f0>)
20000862:	f884 237c 	strb.w	r2, [r4, #892]	; 0x37c
20000866:	461e      	mov	r6, r3
20000868:	f000 f94a 	bl	20000b00 <hw_endpoint_start_next_buffer>
2000086c:	e5fa      	b.n	20000464 <dcd_rp2040_irq+0xa8>
2000086e:	4810      	ldr	r0, [pc, #64]	; (200008b0 <dcd_rp2040_irq+0x4f4>)
20000870:	ea86 0105 	eor.w	r1, r6, r5
20000874:	f000 fc74 	bl	20001160 <__panic_veneer>
20000878:	20001e34 	.word	0x20001e34
2000087c:	20001af4 	.word	0x20001af4
20000880:	20001b34 	.word	0x20001b34
20000884:	20001b74 	.word	0x20001b74
20000888:	20001bb4 	.word	0x20001bb4
2000088c:	20001bf4 	.word	0x20001bf4
20000890:	20001c34 	.word	0x20001c34
20000894:	20001c74 	.word	0x20001c74
20000898:	20001cb4 	.word	0x20001cb4
2000089c:	20001cf4 	.word	0x20001cf4
200008a0:	20001d34 	.word	0x20001d34
200008a4:	20001d74 	.word	0x20001d74
200008a8:	20001db4 	.word	0x20001db4
200008ac:	20001df4 	.word	0x20001df4
200008b0:	100080d4 	.word	0x100080d4

200008b4 <prepare_ep_buffer>:
200008b4:	8a82      	ldrh	r2, [r0, #20]
200008b6:	e92d 43f0 	stmdb	sp!, {r4, r5, r6, r7, r8, r9, lr}
200008ba:	8b04      	ldrh	r4, [r0, #24]
200008bc:	78c3      	ldrb	r3, [r0, #3]
200008be:	4294      	cmp	r4, r2
200008c0:	bf28      	it	cs
200008c2:	4614      	movcs	r4, r2
200008c4:	1b12      	subs	r2, r2, r4
200008c6:	b292      	uxth	r2, r2
200008c8:	8282      	strh	r2, [r0, #20]
200008ca:	2b00      	cmp	r3, #0
200008cc:	d046      	beq.n	2000095c <prepare_ep_buffer+0xa8>
200008ce:	f444 5610 	orr.w	r6, r4, #9216	; 0x2400
200008d2:	f083 0301 	eor.w	r3, r3, #1
200008d6:	70c3      	strb	r3, [r0, #3]
200008d8:	7843      	ldrb	r3, [r0, #1]
200008da:	4635      	mov	r5, r6
200008dc:	bbb3      	cbnz	r3, 2000094c <prepare_ep_buffer+0x98>
200008de:	68c5      	ldr	r5, [r0, #12]
200008e0:	f104 39ff 	add.w	r9, r4, #4294967295	; 0xffffffff
200008e4:	eb05 1881 	add.w	r8, r5, r1, lsl #6
200008e8:	6905      	ldr	r5, [r0, #16]
200008ea:	b35c      	cbz	r4, 20000944 <prepare_ep_buffer+0x90>
200008ec:	1c6a      	adds	r2, r5, #1
200008ee:	eba8 0702 	sub.w	r7, r8, r2
200008f2:	2f02      	cmp	r7, #2
200008f4:	d935      	bls.n	20000962 <prepare_ep_buffer+0xae>
200008f6:	f1b9 0f07 	cmp.w	r9, #7
200008fa:	d932      	bls.n	20000962 <prepare_ep_buffer+0xae>
200008fc:	46ae      	mov	lr, r5
200008fe:	46c4      	mov	ip, r8
20000900:	1f22      	subs	r2, r4, #4
20000902:	0892      	lsrs	r2, r2, #2
20000904:	3201      	adds	r2, #1
20000906:	f85e 7b04 	ldr.w	r7, [lr], #4
2000090a:	3301      	adds	r3, #1
2000090c:	429a      	cmp	r2, r3
2000090e:	f84c 7b04 	str.w	r7, [ip], #4
20000912:	d8f8      	bhi.n	20000906 <prepare_ep_buffer+0x52>
20000914:	ebb4 0f82 	cmp.w	r4, r2, lsl #2
20000918:	eba9 0382 	sub.w	r3, r9, r2, lsl #2
2000091c:	eb05 0c82 	add.w	ip, r5, r2, lsl #2
20000920:	eb08 0782 	add.w	r7, r8, r2, lsl #2
20000924:	d00c      	beq.n	20000940 <prepare_ep_buffer+0x8c>
20000926:	f815 5022 	ldrb.w	r5, [r5, r2, lsl #2]
2000092a:	f808 5022 	strb.w	r5, [r8, r2, lsl #2]
2000092e:	b13b      	cbz	r3, 20000940 <prepare_ep_buffer+0x8c>
20000930:	f89c 2001 	ldrb.w	r2, [ip, #1]
20000934:	2b01      	cmp	r3, #1
20000936:	707a      	strb	r2, [r7, #1]
20000938:	d002      	beq.n	20000940 <prepare_ep_buffer+0x8c>
2000093a:	f89c 3002 	ldrb.w	r3, [ip, #2]
2000093e:	70bb      	strb	r3, [r7, #2]
20000940:	6905      	ldr	r5, [r0, #16]
20000942:	8a82      	ldrh	r2, [r0, #20]
20000944:	442c      	add	r4, r5
20000946:	6104      	str	r4, [r0, #16]
20000948:	f446 4500 	orr.w	r5, r6, #32768	; 0x8000
2000094c:	b90a      	cbnz	r2, 20000952 <prepare_ep_buffer+0x9e>
2000094e:	f445 4580 	orr.w	r5, r5, #16384	; 0x4000
20000952:	b101      	cbz	r1, 20000956 <prepare_ep_buffer+0xa2>
20000954:	042d      	lsls	r5, r5, #16
20000956:	4628      	mov	r0, r5
20000958:	e8bd 83f0 	ldmia.w	sp!, {r4, r5, r6, r7, r8, r9, pc}
2000095c:	f444 6680 	orr.w	r6, r4, #1024	; 0x400
20000960:	e7b7      	b.n	200008d2 <prepare_ep_buffer+0x1e>
20000962:	f108 38ff 	add.w	r8, r8, #4294967295	; 0xffffffff
20000966:	4425      	add	r5, r4
20000968:	e000      	b.n	2000096c <prepare_ep_buffer+0xb8>
2000096a:	3201      	adds	r2, #1
2000096c:	f812 3c01 	ldrb.w	r3, [r2, #-1]
20000970:	42aa      	cmp	r2, r5
20000972:	f808 3f01 	strb.w	r3, [r8, #1]!
20000976:	d1f8      	bne.n	2000096a <prepare_ep_buffer+0xb6>
20000978:	e7e2      	b.n	20000940 <prepare_ep_buffer+0x8c>
2000097a:	bf00      	nop

2000097c <sync_ep_buffer>:
2000097c:	6883      	ldr	r3, [r0, #8]
2000097e:	681b      	ldr	r3, [r3, #0]
20000980:	b101      	cbz	r1, 20000984 <sync_ep_buffer+0x8>
20000982:	0c1b      	lsrs	r3, r3, #16
20000984:	7842      	ldrb	r2, [r0, #1]
20000986:	f3c3 0309 	ubfx	r3, r3, #0, #10
2000098a:	2a00      	cmp	r2, #0
2000098c:	d03f      	beq.n	20000a0e <sync_ep_buffer+0x92>
2000098e:	b5f0      	push	{r4, r5, r6, r7, lr}
20000990:	e9d0 2403 	ldrd	r2, r4, [r0, #12]
20000994:	018d      	lsls	r5, r1, #6
20000996:	1e5f      	subs	r7, r3, #1
20000998:	eb02 1181 	add.w	r1, r2, r1, lsl #6
2000099c:	b35b      	cbz	r3, 200009f6 <sync_ep_buffer+0x7a>
2000099e:	3501      	adds	r5, #1
200009a0:	442a      	add	r2, r5
200009a2:	1aa2      	subs	r2, r4, r2
200009a4:	2a02      	cmp	r2, #2
200009a6:	d93c      	bls.n	20000a22 <sync_ep_buffer+0xa6>
200009a8:	2f07      	cmp	r7, #7
200009aa:	d93a      	bls.n	20000a22 <sync_ep_buffer+0xa6>
200009ac:	460d      	mov	r5, r1
200009ae:	46a6      	mov	lr, r4
200009b0:	2200      	movs	r2, #0
200009b2:	f1a3 0c04 	sub.w	ip, r3, #4
200009b6:	ea4f 0c9c 	mov.w	ip, ip, lsr #2
200009ba:	f10c 0c01 	add.w	ip, ip, #1
200009be:	f855 6b04 	ldr.w	r6, [r5], #4
200009c2:	3201      	adds	r2, #1
200009c4:	4594      	cmp	ip, r2
200009c6:	f84e 6b04 	str.w	r6, [lr], #4
200009ca:	d8f8      	bhi.n	200009be <sync_ep_buffer+0x42>
200009cc:	ebb3 0f8c 	cmp.w	r3, ip, lsl #2
200009d0:	eba7 078c 	sub.w	r7, r7, ip, lsl #2
200009d4:	eb01 058c 	add.w	r5, r1, ip, lsl #2
200009d8:	eb04 028c 	add.w	r2, r4, ip, lsl #2
200009dc:	d00a      	beq.n	200009f4 <sync_ep_buffer+0x78>
200009de:	f811 102c 	ldrb.w	r1, [r1, ip, lsl #2]
200009e2:	f804 102c 	strb.w	r1, [r4, ip, lsl #2]
200009e6:	b12f      	cbz	r7, 200009f4 <sync_ep_buffer+0x78>
200009e8:	7869      	ldrb	r1, [r5, #1]
200009ea:	2f01      	cmp	r7, #1
200009ec:	7051      	strb	r1, [r2, #1]
200009ee:	d001      	beq.n	200009f4 <sync_ep_buffer+0x78>
200009f0:	78a9      	ldrb	r1, [r5, #2]
200009f2:	7091      	strb	r1, [r2, #2]
200009f4:	6904      	ldr	r4, [r0, #16]
200009f6:	8ac2      	ldrh	r2, [r0, #22]
200009f8:	441c      	add	r4, r3
200009fa:	441a      	add	r2, r3
200009fc:	82c2      	strh	r2, [r0, #22]
200009fe:	8b02      	ldrh	r2, [r0, #24]
20000a00:	6104      	str	r4, [r0, #16]
20000a02:	429a      	cmp	r2, r3
20000a04:	bf84      	itt	hi
20000a06:	2200      	movhi	r2, #0
20000a08:	8282      	strhhi	r2, [r0, #20]
20000a0a:	4618      	mov	r0, r3
20000a0c:	bdf0      	pop	{r4, r5, r6, r7, pc}
20000a0e:	8ac2      	ldrh	r2, [r0, #22]
20000a10:	441a      	add	r2, r3
20000a12:	82c2      	strh	r2, [r0, #22]
20000a14:	8b02      	ldrh	r2, [r0, #24]
20000a16:	429a      	cmp	r2, r3
20000a18:	bf84      	itt	hi
20000a1a:	2200      	movhi	r2, #0
20000a1c:	8282      	strhhi	r2, [r0, #20]
20000a1e:	4618      	mov	r0, r3
20000a20:	4770      	bx	lr
20000a22:	3c01      	subs	r4, #1
20000a24:	18cd      	adds	r5, r1, r3
20000a26:	f811 2b01 	ldrb.w	r2, [r1], #1
20000a2a:	42a9      	cmp	r1, r5
20000a2c:	f804 2f01 	strb.w	r2, [r4, #1]!
20000a30:	d1f9      	bne.n	20000a26 <sync_ep_buffer+0xaa>
20000a32:	e7df      	b.n	200009f4 <sync_ep_buffer+0x78>

20000a34 <_hw_endpoint_xfer_sync>:
20000a34:	b510      	push	{r4, lr}
20000a36:	4604      	mov	r4, r0
20000a38:	6883      	ldr	r3, [r0, #8]
20000a3a:	2100      	movs	r1, #0
20000a3c:	681b      	ldr	r3, [r3, #0]
20000a3e:	f7ff ff9d 	bl	2000097c <sync_ep_buffer>
20000a42:	6863      	ldr	r3, [r4, #4]
20000a44:	681b      	ldr	r3, [r3, #0]
20000a46:	005b      	lsls	r3, r3, #1
20000a48:	d502      	bpl.n	20000a50 <_hw_endpoint_xfer_sync+0x1c>
20000a4a:	8b23      	ldrh	r3, [r4, #24]
20000a4c:	4283      	cmp	r3, r0
20000a4e:	d000      	beq.n	20000a52 <_hw_endpoint_xfer_sync+0x1e>
20000a50:	bd10      	pop	{r4, pc}
20000a52:	4620      	mov	r0, r4
20000a54:	e8bd 4010 	ldmia.w	sp!, {r4, lr}
20000a58:	2101      	movs	r1, #1
20000a5a:	f7ff bf8f 	b.w	2000097c <sync_ep_buffer>
20000a5e:	bf00      	nop

20000a60 <e15_is_bulkin_ep>:
20000a60:	4b08      	ldr	r3, [pc, #32]	; (20000a84 <e15_is_bulkin_ep+0x24>)
20000a62:	6c1b      	ldr	r3, [r3, #64]	; 0x40
20000a64:	f013 0302 	ands.w	r3, r3, #2
20000a68:	d102      	bne.n	20000a70 <e15_is_bulkin_ep+0x10>
20000a6a:	7882      	ldrb	r2, [r0, #2]
20000a6c:	09d2      	lsrs	r2, r2, #7
20000a6e:	d101      	bne.n	20000a74 <e15_is_bulkin_ep+0x14>
20000a70:	2000      	movs	r0, #0
20000a72:	4770      	bx	lr
20000a74:	7ec0      	ldrb	r0, [r0, #27]
20000a76:	f1a0 0002 	sub.w	r0, r0, #2
20000a7a:	fab0 f080 	clz	r0, r0
20000a7e:	0940      	lsrs	r0, r0, #5
20000a80:	4770      	bx	lr
20000a82:	bf00      	nop
20000a84:	50110000 	.word	0x50110000

20000a88 <e15_is_critical_frame_period>:
20000a88:	b508      	push	{r3, lr}
20000a8a:	f7ff ffe9 	bl	20000a60 <e15_is_bulkin_ep>
20000a8e:	b150      	cbz	r0, 20000aa6 <e15_is_critical_frame_period+0x1e>
20000a90:	4a05      	ldr	r2, [pc, #20]	; (20000aa8 <e15_is_critical_frame_period+0x20>)
20000a92:	4b06      	ldr	r3, [pc, #24]	; (20000aac <e15_is_critical_frame_period+0x24>)
20000a94:	6a90      	ldr	r0, [r2, #40]	; 0x28
20000a96:	681b      	ldr	r3, [r3, #0]
20000a98:	f5a0 7048 	sub.w	r0, r0, #800	; 0x320
20000a9c:	1ac0      	subs	r0, r0, r3
20000a9e:	28c6      	cmp	r0, #198	; 0xc6
20000aa0:	bf8c      	ite	hi
20000aa2:	2000      	movhi	r0, #0
20000aa4:	2001      	movls	r0, #1
20000aa6:	bd08      	pop	{r3, pc}
20000aa8:	400b0000 	.word	0x400b0000
20000aac:	20001a8c 	.word	0x20001a8c

20000ab0 <hw_endpoint_reset_transfer>:
20000ab0:	2300      	movs	r3, #0
20000ab2:	e9c0 3304 	strd	r3, r3, [r0, #16]
20000ab6:	7683      	strb	r3, [r0, #26]
20000ab8:	4770      	bx	lr
20000aba:	bf00      	nop

20000abc <_hw_endpoint_buffer_control_update32>:
20000abc:	b510      	push	{r4, lr}
20000abe:	6883      	ldr	r3, [r0, #8]
20000ac0:	b109      	cbz	r1, 20000ac6 <_hw_endpoint_buffer_control_update32+0xa>
20000ac2:	681c      	ldr	r4, [r3, #0]
20000ac4:	4021      	ands	r1, r4
20000ac6:	b182      	cbz	r2, 20000aea <_hw_endpoint_buffer_control_update32+0x2e>
20000ac8:	4311      	orrs	r1, r2
20000aca:	0552      	lsls	r2, r2, #21
20000acc:	d50d      	bpl.n	20000aea <_hw_endpoint_buffer_control_update32+0x2e>
20000ace:	681a      	ldr	r2, [r3, #0]
20000ad0:	0554      	lsls	r4, r2, #21
20000ad2:	d40c      	bmi.n	20000aee <_hw_endpoint_buffer_control_update32+0x32>
20000ad4:	4a08      	ldr	r2, [pc, #32]	; (20000af8 <_hw_endpoint_buffer_control_update32+0x3c>)
20000ad6:	f421 6480 	bic.w	r4, r1, #1024	; 0x400
20000ada:	601c      	str	r4, [r3, #0]
20000adc:	6c12      	ldr	r2, [r2, #64]	; 0x40
20000ade:	0792      	lsls	r2, r2, #30
20000ae0:	d403      	bmi.n	20000aea <_hw_endpoint_buffer_control_update32+0x2e>
20000ae2:	230c      	movs	r3, #12
20000ae4:	3b03      	subs	r3, #3
20000ae6:	d2fd      	bcs.n	20000ae4 <_hw_endpoint_buffer_control_update32+0x28>
20000ae8:	6883      	ldr	r3, [r0, #8]
20000aea:	6019      	str	r1, [r3, #0]
20000aec:	bd10      	pop	{r4, pc}
20000aee:	7881      	ldrb	r1, [r0, #2]
20000af0:	4802      	ldr	r0, [pc, #8]	; (20000afc <_hw_endpoint_buffer_control_update32+0x40>)
20000af2:	f000 fb35 	bl	20001160 <__panic_veneer>
20000af6:	bf00      	nop
20000af8:	50110000 	.word	0x50110000
20000afc:	100080e8 	.word	0x100080e8

20000b00 <hw_endpoint_start_next_buffer>:
20000b00:	b530      	push	{r4, r5, lr}
20000b02:	6843      	ldr	r3, [r0, #4]
20000b04:	2100      	movs	r1, #0
20000b06:	b083      	sub	sp, #12
20000b08:	4604      	mov	r4, r0
20000b0a:	681d      	ldr	r5, [r3, #0]
20000b0c:	f7ff fed2 	bl	200008b4 <prepare_ep_buffer>
20000b10:	4b13      	ldr	r3, [pc, #76]	; (20000b60 <hw_endpoint_start_next_buffer+0x60>)
20000b12:	f440 5280 	orr.w	r2, r0, #4096	; 0x1000
20000b16:	6c1b      	ldr	r3, [r3, #64]	; 0x40
20000b18:	f013 0f02 	tst.w	r3, #2
20000b1c:	78a3      	ldrb	r3, [r4, #2]
20000b1e:	d00e      	beq.n	20000b3e <hw_endpoint_start_next_buffer+0x3e>
20000b20:	065b      	lsls	r3, r3, #25
20000b22:	d00e      	beq.n	20000b42 <hw_endpoint_start_next_buffer+0x42>
20000b24:	f025 45a0 	bic.w	r5, r5, #1342177280	; 0x50000000
20000b28:	f045 5500 	orr.w	r5, r5, #536870912	; 0x20000000
20000b2c:	2100      	movs	r1, #0
20000b2e:	4620      	mov	r0, r4
20000b30:	6863      	ldr	r3, [r4, #4]
20000b32:	601d      	str	r5, [r3, #0]
20000b34:	b003      	add	sp, #12
20000b36:	e8bd 4030 	ldmia.w	sp!, {r4, r5, lr}
20000b3a:	f7ff bfbf 	b.w	20000abc <_hw_endpoint_buffer_control_update32>
20000b3e:	09db      	lsrs	r3, r3, #7
20000b40:	d0f0      	beq.n	20000b24 <hw_endpoint_start_next_buffer+0x24>
20000b42:	8aa3      	ldrh	r3, [r4, #20]
20000b44:	2b00      	cmp	r3, #0
20000b46:	d0ed      	beq.n	20000b24 <hw_endpoint_start_next_buffer+0x24>
20000b48:	2101      	movs	r1, #1
20000b4a:	4620      	mov	r0, r4
20000b4c:	9201      	str	r2, [sp, #4]
20000b4e:	f7ff feb1 	bl	200008b4 <prepare_ep_buffer>
20000b52:	9a01      	ldr	r2, [sp, #4]
20000b54:	f025 5500 	bic.w	r5, r5, #536870912	; 0x20000000
20000b58:	f045 45a0 	orr.w	r5, r5, #1342177280	; 0x50000000
20000b5c:	4302      	orrs	r2, r0
20000b5e:	e7e5      	b.n	20000b2c <hw_endpoint_start_next_buffer+0x2c>
20000b60:	50110000 	.word	0x50110000

20000b64 <hw_endpoint_xfer_continue>:
20000b64:	b538      	push	{r3, r4, r5, lr}
20000b66:	7e85      	ldrb	r5, [r0, #26]
20000b68:	4604      	mov	r4, r0
20000b6a:	b1a5      	cbz	r5, 20000b96 <hw_endpoint_xfer_continue+0x32>
20000b6c:	f7ff ff62 	bl	20000a34 <_hw_endpoint_xfer_sync>
20000b70:	8aa3      	ldrh	r3, [r4, #20]
20000b72:	b90b      	cbnz	r3, 20000b78 <hw_endpoint_xfer_continue+0x14>
20000b74:	4628      	mov	r0, r5
20000b76:	bd38      	pop	{r3, r4, r5, pc}
20000b78:	4620      	mov	r0, r4
20000b7a:	f7ff ff85 	bl	20000a88 <e15_is_critical_frame_period>
20000b7e:	4605      	mov	r5, r0
20000b80:	b120      	cbz	r0, 20000b8c <hw_endpoint_xfer_continue+0x28>
20000b82:	2301      	movs	r3, #1
20000b84:	2500      	movs	r5, #0
20000b86:	7723      	strb	r3, [r4, #28]
20000b88:	4628      	mov	r0, r5
20000b8a:	bd38      	pop	{r3, r4, r5, pc}
20000b8c:	4620      	mov	r0, r4
20000b8e:	f7ff ffb7 	bl	20000b00 <hw_endpoint_start_next_buffer>
20000b92:	4628      	mov	r0, r5
20000b94:	bd38      	pop	{r3, r4, r5, pc}
20000b96:	7881      	ldrb	r1, [r0, #2]
20000b98:	4801      	ldr	r0, [pc, #4]	; (20000ba0 <hw_endpoint_xfer_continue+0x3c>)
20000b9a:	f000 fae1 	bl	20001160 <__panic_veneer>
20000b9e:	bf00      	nop
20000ba0:	10008108 	.word	0x10008108

20000ba4 <dcd_event_handler>:
20000ba4:	e92d 43f0 	stmdb	sp!, {r4, r5, r6, r7, r8, r9, lr}
20000ba8:	7843      	ldrb	r3, [r0, #1]
20000baa:	4680      	mov	r8, r0
20000bac:	3b02      	subs	r3, #2
20000bae:	460d      	mov	r5, r1
20000bb0:	b085      	sub	sp, #20
20000bb2:	2b04      	cmp	r3, #4
20000bb4:	d813      	bhi.n	20000bde <dcd_event_handler+0x3a>
20000bb6:	e8df f003 	tbb	[pc, r3]
20000bba:	4a03      	.short	0x4a03
20000bbc:	756c      	.short	0x756c
20000bbe:	44          	.byte	0x44
20000bbf:	00          	.byte	0x00
20000bc0:	2100      	movs	r1, #0
20000bc2:	4b78      	ldr	r3, [pc, #480]	; (20000da4 <dcd_event_handler+0x200>)
20000bc4:	781a      	ldrb	r2, [r3, #0]
20000bc6:	f36f 0200 	bfc	r2, #0, #1
20000bca:	701a      	strb	r2, [r3, #0]
20000bcc:	781a      	ldrb	r2, [r3, #0]
20000bce:	f36f 0241 	bfc	r2, #1, #1
20000bd2:	701a      	strb	r2, [r3, #0]
20000bd4:	7059      	strb	r1, [r3, #1]
20000bd6:	781a      	ldrb	r2, [r3, #0]
20000bd8:	f361 0282 	bfi	r2, r1, #2, #1
20000bdc:	701a      	strb	r2, [r3, #0]
20000bde:	4b72      	ldr	r3, [pc, #456]	; (20000da8 <dcd_event_handler+0x204>)
20000be0:	681c      	ldr	r4, [r3, #0]
20000be2:	6963      	ldr	r3, [r4, #20]
20000be4:	f3ef 8210 	mrs	r2, PRIMASK
20000be8:	b672      	cpsid	i
20000bea:	e8d3 0fcf 	ldaexb	r0, [r3]
20000bee:	2101      	movs	r1, #1
20000bf0:	2800      	cmp	r0, #0
20000bf2:	d1fa      	bne.n	20000bea <dcd_event_handler+0x46>
20000bf4:	e8c3 1f40 	strexb	r0, r1, [r3]
20000bf8:	2800      	cmp	r0, #0
20000bfa:	d1f6      	bne.n	20000bea <dcd_event_handler+0x46>
20000bfc:	f3bf 8f5f 	dmb	sy
20000c00:	61a2      	str	r2, [r4, #24]
20000c02:	4641      	mov	r1, r8
20000c04:	4620      	mov	r0, r4
20000c06:	f000 fadb 	bl	200011c0 <__tu_fifo_write_veneer>
20000c0a:	2300      	movs	r3, #0
20000c0c:	6962      	ldr	r2, [r4, #20]
20000c0e:	e8c2 3f8f 	stlb	r3, [r2]
20000c12:	69a3      	ldr	r3, [r4, #24]
20000c14:	f383 8810 	msr	PRIMASK, r3
20000c18:	b948      	cbnz	r0, 20000c2e <dcd_event_handler+0x8a>
20000c1a:	f04f 23e0 	mov.w	r3, #3758153728	; 0xe000e000
20000c1e:	f8d3 3df0 	ldr.w	r3, [r3, #3568]	; 0xdf0
20000c22:	07db      	lsls	r3, r3, #31
20000c24:	d50a      	bpl.n	20000c3c <dcd_event_handler+0x98>
20000c26:	be00      	bkpt	0x0000
20000c28:	b005      	add	sp, #20
20000c2a:	e8bd 83f0 	ldmia.w	sp!, {r4, r5, r6, r7, r8, r9, pc}
20000c2e:	462a      	mov	r2, r5
20000c30:	f898 1001 	ldrb.w	r1, [r8, #1]
20000c34:	f898 0000 	ldrb.w	r0, [r8]
20000c38:	f000 fa8a 	bl	20001150 <__tud_event_hook_cb_veneer>
20000c3c:	b005      	add	sp, #20
20000c3e:	e8bd 83f0 	ldmia.w	sp!, {r4, r5, r6, r7, r8, r9, pc}
20000c42:	4a5a      	ldr	r2, [pc, #360]	; (20000dac <dcd_event_handler+0x208>)
20000c44:	7813      	ldrb	r3, [r2, #0]
20000c46:	3301      	adds	r3, #1
20000c48:	b2db      	uxtb	r3, r3
20000c4a:	7013      	strb	r3, [r2, #0]
20000c4c:	e7c7      	b.n	20000bde <dcd_event_handler+0x3a>
20000c4e:	2400      	movs	r4, #0
20000c50:	4e57      	ldr	r6, [pc, #348]	; (20000db0 <dcd_event_handler+0x20c>)
20000c52:	4623      	mov	r3, r4
20000c54:	7831      	ldrb	r1, [r6, #0]
20000c56:	4f57      	ldr	r7, [pc, #348]	; (20000db4 <dcd_event_handler+0x210>)
20000c58:	f8df 915c 	ldr.w	r9, [pc, #348]	; 20000db8 <dcd_event_handler+0x214>
20000c5c:	e00a      	b.n	20000c74 <dcd_event_handler+0xd0>
20000c5e:	f8d9 3000 	ldr.w	r3, [r9]
20000c62:	eb13 1344 	adds.w	r3, r3, r4, lsl #5
20000c66:	d10a      	bne.n	20000c7e <dcd_event_handler+0xda>
20000c68:	3401      	adds	r4, #1
20000c6a:	b2e4      	uxtb	r4, r4
20000c6c:	1c4a      	adds	r2, r1, #1
20000c6e:	42a2      	cmp	r2, r4
20000c70:	4623      	mov	r3, r4
20000c72:	db20      	blt.n	20000cb6 <dcd_event_handler+0x112>
20000c74:	42a1      	cmp	r1, r4
20000c76:	d8f2      	bhi.n	20000c5e <dcd_event_handler+0xba>
20000c78:	1a5b      	subs	r3, r3, r1
20000c7a:	eb07 1343 	add.w	r3, r7, r3, lsl #5
20000c7e:	69db      	ldr	r3, [r3, #28]
20000c80:	2b00      	cmp	r3, #0
20000c82:	d0f1      	beq.n	20000c68 <dcd_event_handler+0xc4>
20000c84:	f8d8 1004 	ldr.w	r1, [r8, #4]
20000c88:	f898 0000 	ldrb.w	r0, [r8]
20000c8c:	4798      	blx	r3
20000c8e:	7831      	ldrb	r1, [r6, #0]
20000c90:	e7ea      	b.n	20000c68 <dcd_event_handler+0xc4>
20000c92:	4b44      	ldr	r3, [pc, #272]	; (20000da4 <dcd_event_handler+0x200>)
20000c94:	781a      	ldrb	r2, [r3, #0]
20000c96:	07d6      	lsls	r6, r2, #31
20000c98:	d5d0      	bpl.n	20000c3c <dcd_event_handler+0x98>
20000c9a:	781a      	ldrb	r2, [r3, #0]
20000c9c:	f042 0204 	orr.w	r2, r2, #4
20000ca0:	701a      	strb	r2, [r3, #0]
20000ca2:	e79c      	b.n	20000bde <dcd_event_handler+0x3a>
20000ca4:	4b3f      	ldr	r3, [pc, #252]	; (20000da4 <dcd_event_handler+0x200>)
20000ca6:	781a      	ldrb	r2, [r3, #0]
20000ca8:	07d4      	lsls	r4, r2, #31
20000caa:	d5c7      	bpl.n	20000c3c <dcd_event_handler+0x98>
20000cac:	781a      	ldrb	r2, [r3, #0]
20000cae:	f36f 0282 	bfc	r2, #2, #1
20000cb2:	701a      	strb	r2, [r3, #0]
20000cb4:	e793      	b.n	20000bde <dcd_event_handler+0x3a>
20000cb6:	4c3b      	ldr	r4, [pc, #236]	; (20000da4 <dcd_event_handler+0x200>)
20000cb8:	7823      	ldrb	r3, [r4, #0]
20000cba:	0758      	lsls	r0, r3, #29
20000cbc:	d436      	bmi.n	20000d2c <dcd_event_handler+0x188>
20000cbe:	78e3      	ldrb	r3, [r4, #3]
20000cc0:	07da      	lsls	r2, r3, #31
20000cc2:	d5bb      	bpl.n	20000c3c <dcd_event_handler+0x98>
20000cc4:	2600      	movs	r6, #0
20000cc6:	2303      	movs	r3, #3
20000cc8:	4937      	ldr	r1, [pc, #220]	; (20000da8 <dcd_event_handler+0x204>)
20000cca:	f898 2000 	ldrb.w	r2, [r8]
20000cce:	680c      	ldr	r4, [r1, #0]
20000cd0:	f8d8 1004 	ldr.w	r1, [r8, #4]
20000cd4:	9603      	str	r6, [sp, #12]
20000cd6:	e9cd 6101 	strd	r6, r1, [sp, #4]
20000cda:	f88d 2004 	strb.w	r2, [sp, #4]
20000cde:	f88d 3005 	strb.w	r3, [sp, #5]
20000ce2:	6963      	ldr	r3, [r4, #20]
20000ce4:	f3ef 8210 	mrs	r2, PRIMASK
20000ce8:	b672      	cpsid	i
20000cea:	e8d3 0fcf 	ldaexb	r0, [r3]
20000cee:	2101      	movs	r1, #1
20000cf0:	2800      	cmp	r0, #0
20000cf2:	d1fa      	bne.n	20000cea <dcd_event_handler+0x146>
20000cf4:	e8c3 1f40 	strexb	r0, r1, [r3]
20000cf8:	2800      	cmp	r0, #0
20000cfa:	d1f6      	bne.n	20000cea <dcd_event_handler+0x146>
20000cfc:	f3bf 8f5f 	dmb	sy
20000d00:	4620      	mov	r0, r4
20000d02:	a901      	add	r1, sp, #4
20000d04:	61a2      	str	r2, [r4, #24]
20000d06:	f000 fa5b 	bl	200011c0 <__tu_fifo_write_veneer>
20000d0a:	6963      	ldr	r3, [r4, #20]
20000d0c:	e8c3 6f8f 	stlb	r6, [r3]
20000d10:	69a3      	ldr	r3, [r4, #24]
20000d12:	f383 8810 	msr	PRIMASK, r3
20000d16:	2800      	cmp	r0, #0
20000d18:	f43f af7f 	beq.w	20000c1a <dcd_event_handler+0x76>
20000d1c:	462a      	mov	r2, r5
20000d1e:	f89d 1005 	ldrb.w	r1, [sp, #5]
20000d22:	f89d 0004 	ldrb.w	r0, [sp, #4]
20000d26:	f000 fa13 	bl	20001150 <__tud_event_hook_cb_veneer>
20000d2a:	e787      	b.n	20000c3c <dcd_event_handler+0x98>
20000d2c:	2700      	movs	r7, #0
20000d2e:	2205      	movs	r2, #5
20000d30:	7823      	ldrb	r3, [r4, #0]
20000d32:	491d      	ldr	r1, [pc, #116]	; (20000da8 <dcd_event_handler+0x204>)
20000d34:	f36f 0382 	bfc	r3, #2, #1
20000d38:	7023      	strb	r3, [r4, #0]
20000d3a:	f898 3000 	ldrb.w	r3, [r8]
20000d3e:	680e      	ldr	r6, [r1, #0]
20000d40:	9701      	str	r7, [sp, #4]
20000d42:	f88d 2005 	strb.w	r2, [sp, #5]
20000d46:	f88d 3004 	strb.w	r3, [sp, #4]
20000d4a:	e9cd 7702 	strd	r7, r7, [sp, #8]
20000d4e:	6973      	ldr	r3, [r6, #20]
20000d50:	f3ef 8210 	mrs	r2, PRIMASK
20000d54:	b672      	cpsid	i
20000d56:	e8d3 0fcf 	ldaexb	r0, [r3]
20000d5a:	2101      	movs	r1, #1
20000d5c:	2800      	cmp	r0, #0
20000d5e:	d1fa      	bne.n	20000d56 <dcd_event_handler+0x1b2>
20000d60:	e8c3 1f40 	strexb	r0, r1, [r3]
20000d64:	2800      	cmp	r0, #0
20000d66:	d1f6      	bne.n	20000d56 <dcd_event_handler+0x1b2>
20000d68:	f3bf 8f5f 	dmb	sy
20000d6c:	4630      	mov	r0, r6
20000d6e:	61b2      	str	r2, [r6, #24]
20000d70:	a901      	add	r1, sp, #4
20000d72:	f000 fa25 	bl	200011c0 <__tu_fifo_write_veneer>
20000d76:	6973      	ldr	r3, [r6, #20]
20000d78:	e8c3 7f8f 	stlb	r7, [r3]
20000d7c:	69b3      	ldr	r3, [r6, #24]
20000d7e:	f383 8810 	msr	PRIMASK, r3
20000d82:	b938      	cbnz	r0, 20000d94 <dcd_event_handler+0x1f0>
20000d84:	f04f 23e0 	mov.w	r3, #3758153728	; 0xe000e000
20000d88:	f8d3 3df0 	ldr.w	r3, [r3, #3568]	; 0xdf0
20000d8c:	07d9      	lsls	r1, r3, #31
20000d8e:	d596      	bpl.n	20000cbe <dcd_event_handler+0x11a>
20000d90:	be00      	bkpt	0x0000
20000d92:	e794      	b.n	20000cbe <dcd_event_handler+0x11a>
20000d94:	462a      	mov	r2, r5
20000d96:	f89d 1005 	ldrb.w	r1, [sp, #5]
20000d9a:	f89d 0004 	ldrb.w	r0, [sp, #4]
20000d9e:	f000 f9d7 	bl	20001150 <__tud_event_hook_cb_veneer>
20000da2:	e78c      	b.n	20000cbe <dcd_event_handler+0x11a>
20000da4:	20001634 	.word	0x20001634
20000da8:	2000168c 	.word	0x2000168c
20000dac:	2002229e 	.word	0x2002229e
20000db0:	2002229c 	.word	0x2002229c
20000db4:	10008130 	.word	0x10008130
20000db8:	20001464 	.word	0x20001464

20000dbc <__aeabi_ldivmod>:
20000dbc:	b97b      	cbnz	r3, 20000dde <__aeabi_ldivmod+0x22>
20000dbe:	b972      	cbnz	r2, 20000dde <__aeabi_ldivmod+0x22>
20000dc0:	2900      	cmp	r1, #0
20000dc2:	bfbe      	ittt	lt
20000dc4:	2000      	movlt	r0, #0
20000dc6:	f04f 4100 	movlt.w	r1, #2147483648	; 0x80000000
20000dca:	e006      	blt.n	20000dda <__aeabi_ldivmod+0x1e>
20000dcc:	bf08      	it	eq
20000dce:	2800      	cmpeq	r0, #0
20000dd0:	bf1c      	itt	ne
20000dd2:	f06f 4100 	mvnne.w	r1, #2147483648	; 0x80000000
20000dd6:	f04f 30ff 	movne.w	r0, #4294967295	; 0xffffffff
20000dda:	f000 b9b5 	b.w	20001148 <__aeabi_idiv0>
20000dde:	f1ad 0c08 	sub.w	ip, sp, #8
20000de2:	e96d ce04 	strd	ip, lr, [sp, #-16]!
20000de6:	2900      	cmp	r1, #0
20000de8:	db09      	blt.n	20000dfe <__aeabi_ldivmod+0x42>
20000dea:	2b00      	cmp	r3, #0
20000dec:	db1a      	blt.n	20000e24 <__aeabi_ldivmod+0x68>
20000dee:	f000 f835 	bl	20000e5c <__udivmoddi4>
20000df2:	f8dd e004 	ldr.w	lr, [sp, #4]
20000df6:	e9dd 2302 	ldrd	r2, r3, [sp, #8]
20000dfa:	b004      	add	sp, #16
20000dfc:	4770      	bx	lr
20000dfe:	4240      	negs	r0, r0
20000e00:	eb61 0141 	sbc.w	r1, r1, r1, lsl #1
20000e04:	2b00      	cmp	r3, #0
20000e06:	db1b      	blt.n	20000e40 <__aeabi_ldivmod+0x84>
20000e08:	f000 f828 	bl	20000e5c <__udivmoddi4>
20000e0c:	f8dd e004 	ldr.w	lr, [sp, #4]
20000e10:	e9dd 2302 	ldrd	r2, r3, [sp, #8]
20000e14:	b004      	add	sp, #16
20000e16:	4240      	negs	r0, r0
20000e18:	eb61 0141 	sbc.w	r1, r1, r1, lsl #1
20000e1c:	4252      	negs	r2, r2
20000e1e:	eb63 0343 	sbc.w	r3, r3, r3, lsl #1
20000e22:	4770      	bx	lr
20000e24:	4252      	negs	r2, r2
20000e26:	eb63 0343 	sbc.w	r3, r3, r3, lsl #1
20000e2a:	f000 f817 	bl	20000e5c <__udivmoddi4>
20000e2e:	f8dd e004 	ldr.w	lr, [sp, #4]
20000e32:	e9dd 2302 	ldrd	r2, r3, [sp, #8]
20000e36:	b004      	add	sp, #16
20000e38:	4240      	negs	r0, r0
20000e3a:	eb61 0141 	sbc.w	r1, r1, r1, lsl #1
20000e3e:	4770      	bx	lr
20000e40:	4252      	negs	r2, r2
20000e42:	eb63 0343 	sbc.w	r3, r3, r3, lsl #1
20000e46:	f000 f809 	bl	20000e5c <__udivmoddi4>
20000e4a:	f8dd e004 	ldr.w	lr, [sp, #4]
20000e4e:	e9dd 2302 	ldrd	r2, r3, [sp, #8]
20000e52:	b004      	add	sp, #16
20000e54:	4252      	negs	r2, r2
20000e56:	eb63 0343 	sbc.w	r3, r3, r3, lsl #1
20000e5a:	4770      	bx	lr

20000e5c <__udivmoddi4>:
20000e5c:	e92d 4ff0 	stmdb	sp!, {r4, r5, r6, r7, r8, r9, sl, fp, lr}
20000e60:	9d09      	ldr	r5, [sp, #36]	; 0x24
20000e62:	4604      	mov	r4, r0
20000e64:	460f      	mov	r7, r1
20000e66:	2b00      	cmp	r3, #0
20000e68:	d148      	bne.n	20000efc <__udivmoddi4+0xa0>
20000e6a:	428a      	cmp	r2, r1
20000e6c:	4694      	mov	ip, r2
20000e6e:	d961      	bls.n	20000f34 <__udivmoddi4+0xd8>
20000e70:	fab2 f382 	clz	r3, r2
20000e74:	b143      	cbz	r3, 20000e88 <__udivmoddi4+0x2c>
20000e76:	f1c3 0120 	rsb	r1, r3, #32
20000e7a:	409f      	lsls	r7, r3
20000e7c:	fa02 fc03 	lsl.w	ip, r2, r3
20000e80:	409c      	lsls	r4, r3
20000e82:	fa20 f101 	lsr.w	r1, r0, r1
20000e86:	430f      	orrs	r7, r1
20000e88:	ea4f 411c 	mov.w	r1, ip, lsr #16
20000e8c:	fa1f fe8c 	uxth.w	lr, ip
20000e90:	0c22      	lsrs	r2, r4, #16
20000e92:	fbb7 f6f1 	udiv	r6, r7, r1
20000e96:	fb01 7716 	mls	r7, r1, r6, r7
20000e9a:	fb06 f00e 	mul.w	r0, r6, lr
20000e9e:	ea42 4207 	orr.w	r2, r2, r7, lsl #16
20000ea2:	4290      	cmp	r0, r2
20000ea4:	d908      	bls.n	20000eb8 <__udivmoddi4+0x5c>
20000ea6:	eb1c 0202 	adds.w	r2, ip, r2
20000eaa:	f106 37ff 	add.w	r7, r6, #4294967295	; 0xffffffff
20000eae:	d202      	bcs.n	20000eb6 <__udivmoddi4+0x5a>
20000eb0:	4290      	cmp	r0, r2
20000eb2:	f200 8137 	bhi.w	20001124 <__udivmoddi4+0x2c8>
20000eb6:	463e      	mov	r6, r7
20000eb8:	1a12      	subs	r2, r2, r0
20000eba:	b2a4      	uxth	r4, r4
20000ebc:	fbb2 f0f1 	udiv	r0, r2, r1
20000ec0:	fb01 2210 	mls	r2, r1, r0, r2
20000ec4:	fb00 fe0e 	mul.w	lr, r0, lr
20000ec8:	ea44 4402 	orr.w	r4, r4, r2, lsl #16
20000ecc:	45a6      	cmp	lr, r4
20000ece:	d908      	bls.n	20000ee2 <__udivmoddi4+0x86>
20000ed0:	eb1c 0404 	adds.w	r4, ip, r4
20000ed4:	f100 32ff 	add.w	r2, r0, #4294967295	; 0xffffffff
20000ed8:	d202      	bcs.n	20000ee0 <__udivmoddi4+0x84>
20000eda:	45a6      	cmp	lr, r4
20000edc:	f200 811c 	bhi.w	20001118 <__udivmoddi4+0x2bc>
20000ee0:	4610      	mov	r0, r2
20000ee2:	ea40 4006 	orr.w	r0, r0, r6, lsl #16
20000ee6:	eba4 040e 	sub.w	r4, r4, lr
20000eea:	2600      	movs	r6, #0
20000eec:	b11d      	cbz	r5, 20000ef6 <__udivmoddi4+0x9a>
20000eee:	40dc      	lsrs	r4, r3
20000ef0:	2300      	movs	r3, #0
20000ef2:	e9c5 4300 	strd	r4, r3, [r5]
20000ef6:	4631      	mov	r1, r6
20000ef8:	e8bd 8ff0 	ldmia.w	sp!, {r4, r5, r6, r7, r8, r9, sl, fp, pc}
20000efc:	428b      	cmp	r3, r1
20000efe:	d909      	bls.n	20000f14 <__udivmoddi4+0xb8>
20000f00:	2d00      	cmp	r5, #0
20000f02:	f000 80fd 	beq.w	20001100 <__udivmoddi4+0x2a4>
20000f06:	2600      	movs	r6, #0
20000f08:	e9c5 0100 	strd	r0, r1, [r5]
20000f0c:	4630      	mov	r0, r6
20000f0e:	4631      	mov	r1, r6
20000f10:	e8bd 8ff0 	ldmia.w	sp!, {r4, r5, r6, r7, r8, r9, sl, fp, pc}
20000f14:	fab3 f683 	clz	r6, r3
20000f18:	2e00      	cmp	r6, #0
20000f1a:	d14b      	bne.n	20000fb4 <__udivmoddi4+0x158>
20000f1c:	428b      	cmp	r3, r1
20000f1e:	f0c0 80f2 	bcc.w	20001106 <__udivmoddi4+0x2aa>
20000f22:	4282      	cmp	r2, r0
20000f24:	f240 80ef 	bls.w	20001106 <__udivmoddi4+0x2aa>
20000f28:	4630      	mov	r0, r6
20000f2a:	2d00      	cmp	r5, #0
20000f2c:	d0e3      	beq.n	20000ef6 <__udivmoddi4+0x9a>
20000f2e:	e9c5 4700 	strd	r4, r7, [r5]
20000f32:	e7e0      	b.n	20000ef6 <__udivmoddi4+0x9a>
20000f34:	b902      	cbnz	r2, 20000f38 <__udivmoddi4+0xdc>
20000f36:	deff      	udf	#255	; 0xff
20000f38:	fab2 f382 	clz	r3, r2
20000f3c:	2b00      	cmp	r3, #0
20000f3e:	f040 809d 	bne.w	2000107c <__udivmoddi4+0x220>
20000f42:	1a89      	subs	r1, r1, r2
20000f44:	ea4f 4e12 	mov.w	lr, r2, lsr #16
20000f48:	b297      	uxth	r7, r2
20000f4a:	2601      	movs	r6, #1
20000f4c:	0c20      	lsrs	r0, r4, #16
20000f4e:	fbb1 f2fe 	udiv	r2, r1, lr
20000f52:	fb0e 1112 	mls	r1, lr, r2, r1
20000f56:	ea40 4101 	orr.w	r1, r0, r1, lsl #16
20000f5a:	fb07 f002 	mul.w	r0, r7, r2
20000f5e:	4288      	cmp	r0, r1
20000f60:	d90f      	bls.n	20000f82 <__udivmoddi4+0x126>
20000f62:	eb1c 0101 	adds.w	r1, ip, r1
20000f66:	f102 38ff 	add.w	r8, r2, #4294967295	; 0xffffffff
20000f6a:	bf2c      	ite	cs
20000f6c:	f04f 0901 	movcs.w	r9, #1
20000f70:	f04f 0900 	movcc.w	r9, #0
20000f74:	4288      	cmp	r0, r1
20000f76:	d903      	bls.n	20000f80 <__udivmoddi4+0x124>
20000f78:	f1b9 0f00 	cmp.w	r9, #0
20000f7c:	f000 80cf 	beq.w	2000111e <__udivmoddi4+0x2c2>
20000f80:	4642      	mov	r2, r8
20000f82:	1a09      	subs	r1, r1, r0
20000f84:	b2a4      	uxth	r4, r4
20000f86:	fbb1 f0fe 	udiv	r0, r1, lr
20000f8a:	fb0e 1110 	mls	r1, lr, r0, r1
20000f8e:	fb00 f707 	mul.w	r7, r0, r7
20000f92:	ea44 4401 	orr.w	r4, r4, r1, lsl #16
20000f96:	42a7      	cmp	r7, r4
20000f98:	d908      	bls.n	20000fac <__udivmoddi4+0x150>
20000f9a:	eb1c 0404 	adds.w	r4, ip, r4
20000f9e:	f100 31ff 	add.w	r1, r0, #4294967295	; 0xffffffff
20000fa2:	d202      	bcs.n	20000faa <__udivmoddi4+0x14e>
20000fa4:	42a7      	cmp	r7, r4
20000fa6:	f200 80b4 	bhi.w	20001112 <__udivmoddi4+0x2b6>
20000faa:	4608      	mov	r0, r1
20000fac:	1be4      	subs	r4, r4, r7
20000fae:	ea40 4002 	orr.w	r0, r0, r2, lsl #16
20000fb2:	e79b      	b.n	20000eec <__udivmoddi4+0x90>
20000fb4:	f1c6 0720 	rsb	r7, r6, #32
20000fb8:	40b3      	lsls	r3, r6
20000fba:	fa01 f406 	lsl.w	r4, r1, r6
20000fbe:	fa22 fc07 	lsr.w	ip, r2, r7
20000fc2:	40f9      	lsrs	r1, r7
20000fc4:	40b2      	lsls	r2, r6
20000fc6:	ea4c 0c03 	orr.w	ip, ip, r3
20000fca:	fa20 f307 	lsr.w	r3, r0, r7
20000fce:	ea4f 491c 	mov.w	r9, ip, lsr #16
20000fd2:	431c      	orrs	r4, r3
20000fd4:	fa1f fe8c 	uxth.w	lr, ip
20000fd8:	fa00 f306 	lsl.w	r3, r0, r6
20000fdc:	0c20      	lsrs	r0, r4, #16
20000fde:	fbb1 f8f9 	udiv	r8, r1, r9
20000fe2:	fb09 1118 	mls	r1, r9, r8, r1
20000fe6:	ea40 4101 	orr.w	r1, r0, r1, lsl #16
20000fea:	fb08 f00e 	mul.w	r0, r8, lr
20000fee:	4288      	cmp	r0, r1
20000ff0:	d90f      	bls.n	20001012 <__udivmoddi4+0x1b6>
20000ff2:	eb1c 0101 	adds.w	r1, ip, r1
20000ff6:	f108 3aff 	add.w	sl, r8, #4294967295	; 0xffffffff
20000ffa:	bf2c      	ite	cs
20000ffc:	f04f 0b01 	movcs.w	fp, #1
20001000:	f04f 0b00 	movcc.w	fp, #0
20001004:	4288      	cmp	r0, r1
20001006:	d903      	bls.n	20001010 <__udivmoddi4+0x1b4>
20001008:	f1bb 0f00 	cmp.w	fp, #0
2000100c:	f000 808d 	beq.w	2000112a <__udivmoddi4+0x2ce>
20001010:	46d0      	mov	r8, sl
20001012:	1a09      	subs	r1, r1, r0
20001014:	b2a4      	uxth	r4, r4
20001016:	fbb1 f0f9 	udiv	r0, r1, r9
2000101a:	fb09 1110 	mls	r1, r9, r0, r1
2000101e:	fb00 fe0e 	mul.w	lr, r0, lr
20001022:	ea44 4101 	orr.w	r1, r4, r1, lsl #16
20001026:	458e      	cmp	lr, r1
20001028:	d907      	bls.n	2000103a <__udivmoddi4+0x1de>
2000102a:	eb1c 0101 	adds.w	r1, ip, r1
2000102e:	f100 34ff 	add.w	r4, r0, #4294967295	; 0xffffffff
20001032:	d201      	bcs.n	20001038 <__udivmoddi4+0x1dc>
20001034:	458e      	cmp	lr, r1
20001036:	d87f      	bhi.n	20001138 <__udivmoddi4+0x2dc>
20001038:	4620      	mov	r0, r4
2000103a:	ea40 4008 	orr.w	r0, r0, r8, lsl #16
2000103e:	eba1 010e 	sub.w	r1, r1, lr
20001042:	fba0 9802 	umull	r9, r8, r0, r2
20001046:	4541      	cmp	r1, r8
20001048:	464c      	mov	r4, r9
2000104a:	46c6      	mov	lr, r8
2000104c:	d302      	bcc.n	20001054 <__udivmoddi4+0x1f8>
2000104e:	d106      	bne.n	2000105e <__udivmoddi4+0x202>
20001050:	454b      	cmp	r3, r9
20001052:	d204      	bcs.n	2000105e <__udivmoddi4+0x202>
20001054:	3801      	subs	r0, #1
20001056:	ebb9 0402 	subs.w	r4, r9, r2
2000105a:	eb68 0e0c 	sbc.w	lr, r8, ip
2000105e:	2d00      	cmp	r5, #0
20001060:	d070      	beq.n	20001144 <__udivmoddi4+0x2e8>
20001062:	1b1a      	subs	r2, r3, r4
20001064:	eb61 010e 	sbc.w	r1, r1, lr
20001068:	fa22 f306 	lsr.w	r3, r2, r6
2000106c:	fa01 f707 	lsl.w	r7, r1, r7
20001070:	40f1      	lsrs	r1, r6
20001072:	2600      	movs	r6, #0
20001074:	431f      	orrs	r7, r3
20001076:	e9c5 7100 	strd	r7, r1, [r5]
2000107a:	e73c      	b.n	20000ef6 <__udivmoddi4+0x9a>
2000107c:	fa02 fc03 	lsl.w	ip, r2, r3
20001080:	f1c3 0020 	rsb	r0, r3, #32
20001084:	fa01 f203 	lsl.w	r2, r1, r3
20001088:	fa21 f600 	lsr.w	r6, r1, r0
2000108c:	ea4f 4e1c 	mov.w	lr, ip, lsr #16
20001090:	fa24 f100 	lsr.w	r1, r4, r0
20001094:	fa1f f78c 	uxth.w	r7, ip
20001098:	409c      	lsls	r4, r3
2000109a:	4311      	orrs	r1, r2
2000109c:	fbb6 f0fe 	udiv	r0, r6, lr
200010a0:	0c0a      	lsrs	r2, r1, #16
200010a2:	fb0e 6610 	mls	r6, lr, r0, r6
200010a6:	ea42 4206 	orr.w	r2, r2, r6, lsl #16
200010aa:	fb00 f607 	mul.w	r6, r0, r7
200010ae:	4296      	cmp	r6, r2
200010b0:	d90e      	bls.n	200010d0 <__udivmoddi4+0x274>
200010b2:	eb1c 0202 	adds.w	r2, ip, r2
200010b6:	f100 38ff 	add.w	r8, r0, #4294967295	; 0xffffffff
200010ba:	bf2c      	ite	cs
200010bc:	f04f 0901 	movcs.w	r9, #1
200010c0:	f04f 0900 	movcc.w	r9, #0
200010c4:	4296      	cmp	r6, r2
200010c6:	d902      	bls.n	200010ce <__udivmoddi4+0x272>
200010c8:	f1b9 0f00 	cmp.w	r9, #0
200010cc:	d031      	beq.n	20001132 <__udivmoddi4+0x2d6>
200010ce:	4640      	mov	r0, r8
200010d0:	1b92      	subs	r2, r2, r6
200010d2:	b289      	uxth	r1, r1
200010d4:	fbb2 f6fe 	udiv	r6, r2, lr
200010d8:	fb0e 2216 	mls	r2, lr, r6, r2
200010dc:	ea41 4102 	orr.w	r1, r1, r2, lsl #16
200010e0:	fb06 f207 	mul.w	r2, r6, r7
200010e4:	428a      	cmp	r2, r1
200010e6:	d907      	bls.n	200010f8 <__udivmoddi4+0x29c>
200010e8:	eb1c 0101 	adds.w	r1, ip, r1
200010ec:	f106 38ff 	add.w	r8, r6, #4294967295	; 0xffffffff
200010f0:	d201      	bcs.n	200010f6 <__udivmoddi4+0x29a>
200010f2:	428a      	cmp	r2, r1
200010f4:	d823      	bhi.n	2000113e <__udivmoddi4+0x2e2>
200010f6:	4646      	mov	r6, r8
200010f8:	1a89      	subs	r1, r1, r2
200010fa:	ea46 4600 	orr.w	r6, r6, r0, lsl #16
200010fe:	e725      	b.n	20000f4c <__udivmoddi4+0xf0>
20001100:	462e      	mov	r6, r5
20001102:	4628      	mov	r0, r5
20001104:	e6f7      	b.n	20000ef6 <__udivmoddi4+0x9a>
20001106:	1a84      	subs	r4, r0, r2
20001108:	eb61 0303 	sbc.w	r3, r1, r3
2000110c:	2001      	movs	r0, #1
2000110e:	461f      	mov	r7, r3
20001110:	e70b      	b.n	20000f2a <__udivmoddi4+0xce>
20001112:	4464      	add	r4, ip
20001114:	3802      	subs	r0, #2
20001116:	e749      	b.n	20000fac <__udivmoddi4+0x150>
20001118:	4464      	add	r4, ip
2000111a:	3802      	subs	r0, #2
2000111c:	e6e1      	b.n	20000ee2 <__udivmoddi4+0x86>
2000111e:	3a02      	subs	r2, #2
20001120:	4461      	add	r1, ip
20001122:	e72e      	b.n	20000f82 <__udivmoddi4+0x126>
20001124:	3e02      	subs	r6, #2
20001126:	4462      	add	r2, ip
20001128:	e6c6      	b.n	20000eb8 <__udivmoddi4+0x5c>
2000112a:	f1a8 0802 	sub.w	r8, r8, #2
2000112e:	4461      	add	r1, ip
20001130:	e76f      	b.n	20001012 <__udivmoddi4+0x1b6>
20001132:	3802      	subs	r0, #2
20001134:	4462      	add	r2, ip
20001136:	e7cb      	b.n	200010d0 <__udivmoddi4+0x274>
20001138:	3802      	subs	r0, #2
2000113a:	4461      	add	r1, ip
2000113c:	e77d      	b.n	2000103a <__udivmoddi4+0x1de>
2000113e:	3e02      	subs	r6, #2
20001140:	4461      	add	r1, ip
20001142:	e7d9      	b.n	200010f8 <__udivmoddi4+0x29c>
20001144:	462e      	mov	r6, r5
20001146:	e6d6      	b.n	20000ef6 <__udivmoddi4+0x9a>

20001148 <__aeabi_idiv0>:
20001148:	4770      	bx	lr
2000114a:	bf00      	nop
2000114c:	0000      	movs	r0, r0
	...

20001150 <__tud_event_hook_cb_veneer>:
20001150:	b401      	push	{r0}
20001152:	4802      	ldr	r0, [pc, #8]	; (2000115c <__tud_event_hook_cb_veneer+0xc>)
20001154:	4684      	mov	ip, r0
20001156:	bc01      	pop	{r0}
20001158:	4760      	bx	ip
2000115a:	bf00      	nop
2000115c:	100028c1 	.word	0x100028c1

20001160 <__panic_veneer>:
20001160:	b401      	push	{r0}
20001162:	4802      	ldr	r0, [pc, #8]	; (2000116c <__panic_veneer+0xc>)
20001164:	4684      	mov	ip, r0
20001166:	bc01      	pop	{r0}
20001168:	4760      	bx	ip
2000116a:	bf00      	nop
2000116c:	10000629 	.word	0x10000629

20001170 <__time_us_64_veneer>:
20001170:	b401      	push	{r0}
20001172:	4802      	ldr	r0, [pc, #8]	; (2000117c <__time_us_64_veneer+0xc>)
20001174:	4684      	mov	ip, r0
20001176:	bc01      	pop	{r0}
20001178:	4760      	bx	ip
2000117a:	bf00      	nop
2000117c:	10001631 	.word	0x10001631

20001180 <__ulPortLockGetCurrentOwnerId_veneer>:
20001180:	b401      	push	{r0}
20001182:	4802      	ldr	r0, [pc, #8]	; (2000118c <__ulPortLockGetCurrentOwnerId_veneer+0xc>)
20001184:	4684      	mov	ip, r0
20001186:	bc01      	pop	{r0}
20001188:	4760      	bx	ip
2000118a:	bf00      	nop
2000118c:	1000486d 	.word	0x1000486d

20001190 <__xPortLockInternalSpinUnlockWithBestEffortWaitOrTimeout_veneer>:
20001190:	b401      	push	{r0}
20001192:	4802      	ldr	r0, [pc, #8]	; (2000119c <__xPortLockInternalSpinUnlockWithBestEffortWaitOrTimeout_veneer+0xc>)
20001194:	4684      	mov	ip, r0
20001196:	bc01      	pop	{r0}
20001198:	4760      	bx	ip
2000119a:	bf00      	nop
2000119c:	1000492d 	.word	0x1000492d

200011a0 <__vPortLockInternalSpinUnlockWithNotify_veneer>:
200011a0:	b401      	push	{r0}
200011a2:	4802      	ldr	r0, [pc, #8]	; (200011ac <__vPortLockInternalSpinUnlockWithNotify_veneer+0xc>)
200011a4:	4684      	mov	ip, r0
200011a6:	bc01      	pop	{r0}
200011a8:	4760      	bx	ip
200011aa:	bf00      	nop
200011ac:	10004899 	.word	0x10004899

200011b0 <__memset_veneer>:
200011b0:	b401      	push	{r0}
200011b2:	4802      	ldr	r0, [pc, #8]	; (200011bc <__memset_veneer+0xc>)
200011b4:	4684      	mov	ip, r0
200011b6:	bc01      	pop	{r0}
200011b8:	4760      	bx	ip
200011ba:	bf00      	nop
200011bc:	10007bd9 	.word	0x10007bd9

200011c0 <__tu_fifo_write_veneer>:
200011c0:	b401      	push	{r0}
200011c2:	4802      	ldr	r0, [pc, #8]	; (200011cc <__tu_fifo_write_veneer+0xc>)
200011c4:	4684      	mov	ip, r0
200011c6:	bc01      	pop	{r0}
200011c8:	4760      	bx	ip
200011ca:	bf00      	nop
200011cc:	10004341 	.word	0x10004341

200011d0 <striped_spin_lock_num>:
200011d0:	00000010                                ....

200011d4 <irq_handler_chain_slots>:
200011d4:	00000000 	.word	0x00000000
200011d8:	00010000 	.word	0x00010000
	...
200011e4:	00020000 	.word	0x00020000
	...
200011f0:	00030000 	.word	0x00030000
	...
200011fc:	00ff0000 	.word	0x00ff0000
20001200:	00000000 	.word	0x00000000

20001204 <irq_handler_chain_first_slot>:
20001204:	b501      	push	{r0, lr}
20001206:	6848      	ldr	r0, [r1, #4]
20001208:	3101      	adds	r1, #1
2000120a:	468e      	mov	lr, r1
2000120c:	4700      	bx	r0

2000120e <irq_handler_chain_remove_tail>:
2000120e:	4670      	mov	r0, lr
20001210:	3809      	subs	r0, #9
20001212:	4901      	ldr	r1, [pc, #4]	; (20001218 <irq_handler_chain_remove_tail+0xa>)
20001214:	4788      	blx	r1
20001216:	bd01      	pop	{r0, pc}
20001218:	10000d21 	.word	0x10000d21

2000121c <default_alarm_pool>:
	...
20001230:	20001280                                ... 

20001234 <stdio_usb>:
20001234:	10002061 10002015 10001f91 10001f01     a ... ..........
20001244:	00000000 00000100                       ........

2000124c <_usbd_qdef>:
2000124c:	20001690 000c0010 00000000 00000000     ... ............
	...

20001268 <_usbd_rhport>:
20001268:	                                         .

20001269 <cDoorbellNum>:
20001269:	                                         .

2000126a <ucPrimaryCoreNum>:
2000126a:	                                         ..

2000126c <uxTopUsedPriority>:
2000126c:	0000001f                                ....

20001270 <malloc_mutex>:
	...

20001278 <print_mutex>:
	...
